TN:
SF:/home/pieter/GitHub/Control-Surface/src/Banks/Bank.hpp
FN:29,_ZN10OutputBankC2Ehh
FN:42,_ZN10OutputBank6selectEh
FN:47,_ZNK10OutputBank12getSelectionEv
FN:53,_ZNK10OutputBank16getTracksPerBankEv
FN:82,_ZN4BankILh10EEC2Ehh
FN:82,_ZN4BankILh2EEC2Ehh
FN:82,_ZN4BankILh3EEC2Ehh
FN:133,_ZN4BankILh3EE3addEP17BankableMIDIInputILh3EE
FN:133,_ZN4BankILh10EE3addEP17BankableMIDIInputILh10EE
FN:133,_ZN4BankILh2EE3addEP17BankableMIDIInputILh2EE
FN:138,_ZN4BankILh2EE6removeEP17BankableMIDIInputILh2EE
FN:138,_ZN4BankILh10EE6removeEP17BankableMIDIInputILh10EE
FN:138,_ZN4BankILh3EE6removeEP17BankableMIDIInputILh3EE
FN:143,_ZN4BankILh2EE6selectEh
FN:143,_ZN4BankILh10EE6selectEh
FN:143,_ZN4BankILh3EE6selectEh
FNDA:1,_ZN4BankILh3EE3addEP17BankableMIDIInputILh3EE
FNDA:6,_ZN4BankILh10EE6selectEh
FNDA:3,_ZN4BankILh10EE6removeEP17BankableMIDIInputILh10EE
FNDA:3,_ZN4BankILh2EE6removeEP17BankableMIDIInputILh2EE
FNDA:8,_ZN4BankILh2EE6selectEh
FNDA:4,_ZN4BankILh10EEC2Ehh
FNDA:66,_ZNK10OutputBank16getTracksPerBankEv
FNDA:25,_ZN10OutputBankC2Ehh
FNDA:3,_ZN4BankILh10EE3addEP17BankableMIDIInputILh10EE
FNDA:3,_ZN4BankILh2EE3addEP17BankableMIDIInputILh2EE
FNDA:3,_ZN4BankILh2EEC2Ehh
FNDA:1,_ZN4BankILh3EE6removeEP17BankableMIDIInputILh3EE
FNDA:26,_ZN10OutputBank6selectEh
FNDA:48,_ZNK10OutputBank12getSelectionEv
FNDA:2,_ZN4BankILh3EE6selectEh
FNDA:1,_ZN4BankILh3EEC2Ehh
FNF:16
FNH:16
DA:29,25
DA:30,25
DA:31,25
DA:32,1
DA:34,24
DA:42,26
DA:47,48
DA:53,66
DA:82,8
DA:84,8
DA:133,7
DA:134,7
DA:135,7
DA:138,7
DA:139,7
DA:140,7
DA:143,16
DA:144,16
DA:145,15
DA:146,30
DA:147,15
DA:148,15
LF:22
LH:22
end_of_record
TN:
SF:/home/pieter/GitHub/Control-Surface/src/Banks/BankConfig.hpp
FN:38,_ZN10BankConfigILh2EEC2ER4BankILh2EE8BankType
FN:38,_ZN10BankConfigILh3EEC2ER4BankILh3EE8BankType
FN:49,_ZN16OutputBankConfigC2ER10OutputBank8BankType
FNDA:13,_ZN16OutputBankConfigC2ER10OutputBank8BankType
FNDA:3,_ZN10BankConfigILh2EEC2ER4BankILh2EE8BankType
FNDA:1,_ZN10BankConfigILh3EEC2ER4BankILh3EE8BankType
FNF:3
FNH:3
DA:38,4
DA:39,4
DA:49,13
DA:50,13
LF:4
LH:4
end_of_record
TN:
SF:/home/pieter/GitHub/Control-Surface/src/Banks/BankableMIDIInput.hpp
FN:31,_ZN17BankableMIDIInputILh2EEC2ER4BankILh2EE8BankType
FN:31,_ZN17BankableMIDIInputILh10EEC2ER4BankILh10EE8BankType
FN:31,_ZN17BankableMIDIInputILh3EEC2ER4BankILh3EE8BankType
FN:43,_ZN17BankableMIDIInputILh3EEC2ERK10BankConfigILh3EE
FN:43,_ZN17BankableMIDIInputILh2EEC2ERK10BankConfigILh2EE
FN:50,_ZN17BankableMIDIInputILh2EED0Ev
FN:50,_ZN17BankableMIDIInputILh2EED2Ev
FN:50,_ZN17BankableMIDIInputILh10EED2Ev
FN:50,_ZN17BankableMIDIInputILh3EED0Ev
FN:50,_ZN17BankableMIDIInputILh3EED2Ev
FN:50,_ZN17BankableMIDIInputILh10EED0Ev
FN:57,_ZNK17BankableMIDIInputILh3EE12getSelectionEv
FN:57,_ZNK17BankableMIDIInputILh2EE12getSelectionEv
FN:69,_ZNK17BankableMIDIInputILh2EE8getIndexERK20MIDICNChannelAddressS3_
FN:69,_ZNK17BankableMIDIInputILh3EE8getIndexERK20MIDICNChannelAddressS3_
FN:110,_ZNK17BankableMIDIInputILh2EE13matchBankableEhh
FN:110,_ZNK17BankableMIDIInputILh3EE13matchBankableEhh
FN:160,_ZNK17BankableMIDIInputILh3EE13matchBankableERK20MIDICNChannelAddressS3_
FN:160,_ZNK17BankableMIDIInputILh2EE13matchBankableERK20MIDICNChannelAddressS3_
FN:240,_ZNK17BankableMIDIInputILh3EE19onBankSettingChangeEv
FN:240,_ZNK17BankableMIDIInputILh2EE19onBankSettingChangeEv
FN:240,_ZNK17BankableMIDIInputILh10EE19onBankSettingChangeEv
FNDA:0,_ZN17BankableMIDIInputILh2EED0Ev
FNDA:5,_ZNK17BankableMIDIInputILh2EE13matchBankableEhh
FNDA:3,_ZN17BankableMIDIInputILh10EED2Ev
FNDA:1,_ZN17BankableMIDIInputILh3EEC2ERK10BankConfigILh3EE
FNDA:0,_ZN17BankableMIDIInputILh3EED0Ev
FNDA:3,_ZN17BankableMIDIInputILh2EED2Ev
FNDA:1,_ZN17BankableMIDIInputILh3EED2Ev
FNDA:2,_ZNK17BankableMIDIInputILh3EE19onBankSettingChangeEv
FNDA:3,_ZN17BankableMIDIInputILh2EEC2ER4BankILh2EE8BankType
FNDA:3,_ZNK17BankableMIDIInputILh3EE12getSelectionEv
FNDA:3,_ZN17BankableMIDIInputILh10EEC2ER4BankILh10EE8BankType
FNDA:6,_ZNK17BankableMIDIInputILh2EE19onBankSettingChangeEv
FNDA:5,_ZNK17BankableMIDIInputILh2EE8getIndexERK20MIDICNChannelAddressS3_
FNDA:3,_ZN17BankableMIDIInputILh2EEC2ERK10BankConfigILh2EE
FNDA:2,_ZNK17BankableMIDIInputILh3EE13matchBankableEhh
FNDA:2,_ZNK17BankableMIDIInputILh3EE13matchBankableERK20MIDICNChannelAddressS3_
FNDA:0,_ZNK17BankableMIDIInputILh10EE19onBankSettingChangeEv
FNDA:2,_ZNK17BankableMIDIInputILh3EE8getIndexERK20MIDICNChannelAddressS3_
FNDA:1,_ZN17BankableMIDIInputILh3EEC2ER4BankILh3EE8BankType
FNDA:14,_ZNK17BankableMIDIInputILh2EE12getSelectionEv
FNDA:0,_ZN17BankableMIDIInputILh10EED0Ev
FNDA:5,_ZNK17BankableMIDIInputILh2EE13matchBankableERK20MIDICNChannelAddressS3_
FNF:22
FNH:18
DA:31,7
DA:32,7
DA:33,7
DA:43,4
DA:44,4
DA:50,7
DA:57,17
DA:69,7
DA:71,7
DA:72,5
DA:73,5
DA:74,5
DA:75,2
DA:76,2
DA:77,2
DA:78,2
DA:79,0
DA:80,0
DA:81,0
DA:82,0
DA:110,7
DA:111,7
DA:112,14
DA:113,14
DA:160,7
DA:162,7
DA:163,0
DA:164,7
DA:165,5
DA:166,10
DA:167,10
DA:168,10
DA:170,2
DA:171,4
DA:172,4
DA:173,2
DA:174,4
DA:176,0
DA:177,0
DA:178,0
DA:179,0
DA:180,0
DA:182,0
DA:240,8
LF:44
LH:33
end_of_record
TN:
SF:/home/pieter/GitHub/Control-Surface/src/Banks/BankableMIDIOutput.hpp
FN:35,_ZN18BankableMIDIOutputC2ERK10OutputBank8BankType
FN:46,_ZN18BankableMIDIOutputC2ERK16OutputBankConfig
FN:53,_ZNK18BankableMIDIOutput16getAddressOffsetEv
FN:67,_ZNK18BankableMIDIOutput17getRawBankSettingEv
FN:75,_ZNK18BankableMIDIOutput12getSelectionEv
FN:86,_ZN18BankableMIDIOutput4lockEv
FN:97,_ZN18BankableMIDIOutput6unlockEv
FNDA:13,_ZN18BankableMIDIOutputC2ERK10OutputBank8BankType
FNDA:42,_ZNK18BankableMIDIOutput16getAddressOffsetEv
FNDA:12,_ZN18BankableMIDIOutput4lockEv
FNDA:13,_ZN18BankableMIDIOutputC2ERK16OutputBankConfig
FNDA:26,_ZNK18BankableMIDIOutput17getRawBankSettingEv
FNDA:12,_ZN18BankableMIDIOutput6unlockEv
FNDA:42,_ZNK18BankableMIDIOutput12getSelectionEv
FNF:7
FNH:7
DA:35,13
DA:36,13
DA:46,13
DA:47,13
DA:53,42
DA:54,42
DA:55,42
DA:56,42
DA:57,0
DA:58,0
DA:59,0
DA:67,26
DA:75,42
DA:76,42
DA:86,12
DA:87,12
DA:88,12
DA:89,12
DA:97,12
LF:19
LH:16
end_of_record
TN:
SF:/home/pieter/GitHub/Control-Surface/src/Control_Surface/Control_Surface_Class.cpp
FN:13,_ZN16Control_Surface_11getInstanceEv
FN:18,_ZN16Control_Surface_5beginEv
FN:42,_ZN16Control_Surface_4loopEv
FN:52,_ZN16Control_Surface_4MIDIEv
FN:60,_ZN16Control_Surface_15updateMidiInputEv
FN:65,_ZN16Control_Surface_16onChannelMessageER14MIDI_Interface
FN:116,_ZN16Control_Surface_14onSysExMessageER14MIDI_Interface
FN:135,_ZN16Control_Surface_17onRealtimeMessageER14MIDI_Interfaceh
FN:145,_ZN16Control_Surface_12updateInputsEv
FN:151,_ZN16Control_Surface_14updateDisplaysEv
FNDA:0,_ZN16Control_Surface_15updateMidiInputEv
FNDA:1,_ZN16Control_Surface_11getInstanceEv
FNDA:0,_ZN16Control_Surface_12updateInputsEv
FNDA:0,_ZN16Control_Surface_14onSysExMessageER14MIDI_Interface
FNDA:0,_ZN16Control_Surface_5beginEv
FNDA:0,_ZN16Control_Surface_16onChannelMessageER14MIDI_Interface
FNDA:66,_ZN16Control_Surface_4MIDIEv
FNDA:0,_ZN16Control_Surface_14updateDisplaysEv
FNDA:0,_ZN16Control_Surface_17onRealtimeMessageER14MIDI_Interfaceh
FNDA:0,_ZN16Control_Surface_4loopEv
FNF:10
FNH:2
DA:13,1
DA:14,1
DA:15,1
DA:18,0
DA:26,0
DA:27,0
DA:28,0
DA:29,0
DA:30,0
DA:31,0
DA:32,0
DA:33,0
DA:34,0
DA:35,0
DA:36,0
DA:37,0
DA:38,0
DA:39,0
DA:40,0
DA:42,0
DA:43,0
DA:44,0
DA:45,0
DA:46,0
DA:47,0
DA:48,0
DA:49,0
DA:50,0
DA:52,66
DA:53,66
DA:54,66
DA:55,0
DA:57,66
DA:60,0
DA:61,0
DA:62,0
DA:63,0
DA:65,0
DA:66,0
DA:67,0
DA:81,0
DA:82,0
DA:84,0
DA:87,0
DA:88,0
DA:89,0
DA:90,0
DA:92,0
DA:95,0
DA:97,0
DA:100,0
DA:102,0
DA:106,0
DA:107,0
DA:111,0
DA:116,0
DA:118,0
DA:130,0
DA:131,0
DA:135,0
DA:139,0
DA:140,0
DA:145,0
DA:146,0
DA:147,0
DA:148,0
DA:149,0
DA:151,0
DA:152,0
DA:153,0
DA:154,0
DA:155,0
DA:156,0
DA:157,0
DA:158,0
DA:160,0
DA:161,0
DA:163,0
DA:164,0
DA:165,0
LF:80
LH:7
end_of_record
TN:
SF:/home/pieter/GitHub/Control-Surface/src/Control_Surface/Control_Surface_Class.hpp
FN:65,_ZN16Control_Surface_C2Ev
FNDA:1,_ZN16Control_Surface_C2Ev
FNF:1
FNH:1
DA:65,1
LF:1
LH:1
end_of_record
TN:
SF:/home/pieter/GitHub/Control-Surface/src/Def/Channel.hpp
FN:18,_ZN7ChannelC2Ea
FN:26,_ZNK7Channel6getRawEv
FN:44,_ZNK7ChanneleqERKS_
FN:54,_ZN7ChannelpLEa
FN:65,_ZNK7ChannelplEa
FN:77,_ZN7ChannelmIEa
FN:88,_ZNK7ChannelmiEa
FNDA:1,_ZN7ChannelmIEa
FNDA:6,_ZNK7ChannelplEa
FNDA:6,_ZN7ChannelpLEa
FNDA:1,_ZNK7ChannelmiEa
FNDA:11,_ZNK7ChanneleqERKS_
FNDA:180,_ZN7ChannelC2Ea
FNDA:320,_ZNK7Channel6getRawEv
FNF:7
FNH:7
DA:18,180
DA:19,180
DA:26,320
DA:44,11
DA:45,11
DA:54,6
DA:55,6
DA:56,6
DA:65,6
DA:66,6
DA:67,6
DA:68,6
DA:77,1
DA:78,1
DA:79,1
DA:88,1
DA:89,1
DA:90,1
DA:91,1
LF:19
LH:19
end_of_record
TN:
SF:/home/pieter/GitHub/Control-Surface/src/Def/MIDICNChannelAddress.cpp
FN:3,_ZN20MIDICNChannelAddresspLERK28RelativeMIDICNChannelAddress
FN:15,_ZN20MIDICNChannelAddressmIERK28RelativeMIDICNChannelAddress
FN:27,_ZNK20MIDICNChannelAddressplERK28RelativeMIDICNChannelAddress
FN:34,_ZNK20MIDICNChannelAddressmiERK28RelativeMIDICNChannelAddress
FN:41,_ZNK20MIDICNChannelAddresseqERKS_
FN:48,_ZNK20MIDICNChannelAddressneERKS_
FN:55,_ZN20MIDICNChannelAddress11matchSingleERKS_S1_
FN:60,_ZN20MIDICNChannelAddress19matchAddressInRangeERKS_S1_h
FNDA:16,_ZN20MIDICNChannelAddress11matchSingleERKS_S1_
FNDA:9,_ZN20MIDICNChannelAddressmIERK28RelativeMIDICNChannelAddress
FNDA:9,_ZNK20MIDICNChannelAddressmiERK28RelativeMIDICNChannelAddress
FNDA:67,_ZN20MIDICNChannelAddress19matchAddressInRangeERKS_S1_h
FNDA:13,_ZNK20MIDICNChannelAddressplERK28RelativeMIDICNChannelAddress
FNDA:8,_ZNK20MIDICNChannelAddressneERKS_
FNDA:22,_ZNK20MIDICNChannelAddresseqERKS_
FNDA:95,_ZN20MIDICNChannelAddresspLERK28RelativeMIDICNChannelAddress
FNF:8
FNH:8
DA:3,95
DA:5,95
DA:6,2
DA:8,93
DA:9,93
DA:10,93
DA:12,95
DA:15,9
DA:17,9
DA:18,0
DA:20,9
DA:21,9
DA:22,9
DA:24,9
DA:27,13
DA:29,13
DA:30,13
DA:31,13
DA:34,9
DA:36,9
DA:37,9
DA:38,9
DA:41,22
DA:42,21
DA:43,21
DA:44,62
DA:45,41
DA:48,8
DA:49,15
DA:50,7
DA:51,5
DA:52,11
DA:55,16
DA:57,16
DA:60,67
DA:63,67
DA:64,67
DA:65,134
DA:66,67
DA:67,67
DA:68,134
DA:69,67
DA:70,67
LF:43
LH:42
end_of_record
TN:
SF:/home/pieter/GitHub/Control-Surface/src/Def/MIDICNChannelAddress.hpp
FN:22,_ZN13MIDICNChannelC2E7Channeli
FN:26,_ZNK13MIDICNChannel10getChannelEv
FN:29,_ZNK13MIDICNChannel13getRawChannelEv
FN:32,_ZNK13MIDICNChannel14getCableNumberEv
FN:44,_ZN28RelativeMIDICNChannelAddressC2Ev
FN:45,_ZN28RelativeMIDICNChannelAddressC2Eiii
FN:49,_ZNK28RelativeMIDICNChannelAddress7isValidEv
FN:59,_ZN20MIDICNChannelAddressC2Ev
FN:66,_ZN20MIDICNChannelAddressC2Ei13MIDICNChannel
FN:73,_ZN20MIDICNChannelAddressC2Ei7Channeli
FN:88,_ZN20MIDICNChannelAddressC2ERK13MIDICNChannel
FN:106,_ZNK20MIDICNChannelAddress10getAddressEv
FN:109,_ZNK20MIDICNChannelAddress10getChannelEv
FN:112,_ZNK20MIDICNChannelAddress14getCableNumberEv
FN:115,_ZNK20MIDICNChannelAddress7isValidEv
FN:119,_ZNK20MIDICNChannelAddresscvbEv
FNDA:66,_ZNK20MIDICNChannelAddresscvbEv
FNDA:6,_ZNK13MIDICNChannel14getCableNumberEv
FNDA:86,_ZNK20MIDICNChannelAddress14getCableNumberEv
FNDA:103,_ZNK28RelativeMIDICNChannelAddress7isValidEv
FNDA:0,_ZNK13MIDICNChannel10getChannelEv
FNDA:3,_ZN20MIDICNChannelAddressC2Ev
FNDA:60,_ZN28RelativeMIDICNChannelAddressC2Eiii
FNDA:154,_ZN20MIDICNChannelAddressC2Ei7Channeli
FNDA:0,_ZN20MIDICNChannelAddressC2ERK13MIDICNChannel
FNDA:2,_ZN13MIDICNChannelC2E7Channeli
FNDA:90,_ZNK20MIDICNChannelAddress10getChannelEv
FNDA:1,_ZN28RelativeMIDICNChannelAddressC2Ev
FNDA:230,_ZNK20MIDICNChannelAddress10getAddressEv
FNDA:6,_ZN20MIDICNChannelAddressC2Ei13MIDICNChannel
FNDA:6,_ZNK13MIDICNChannel13getRawChannelEv
FNDA:193,_ZNK20MIDICNChannelAddress7isValidEv
FNF:16
FNH:14
DA:22,2
DA:23,2
DA:26,0
DA:29,6
DA:32,6
DA:44,1
DA:45,60
DA:47,180
DA:48,180
DA:49,103
DA:59,3
DA:60,3
DA:65,3
DA:66,6
DA:67,6
DA:69,6
DA:70,12
DA:71,12
DA:72,6
DA:73,154
DA:75,154
DA:77,154
DA:78,308
DA:79,154
DA:80,154
DA:88,0
DA:89,0
DA:106,230
DA:109,90
DA:112,86
DA:115,193
DA:119,66
LF:32
LH:29
end_of_record
TN:
SF:/home/pieter/GitHub/Control-Surface/src/Display/Bitmaps/XBitmaps.hpp
FN:10,_ZN7XBitmapC2EttPKh
FNDA:0,_ZN7XBitmapC2EttPKh
FNF:1
FNH:0
DA:10,0
DA:11,0
LF:2
LH:0
end_of_record
TN:
SF:/home/pieter/GitHub/Control-Surface/src/Display/DisplayElement.hpp
FN:34,_ZN14DisplayElement10getDisplayEv
FN:39,_ZN14DisplayElement6getAllEv
FNDA:0,_ZN14DisplayElement6getAllEv
FNDA:0,_ZN14DisplayElement10getDisplayEv
FNF:2
FNH:0
DA:34,0
DA:39,0
LF:2
LH:0
end_of_record
TN:
SF:/home/pieter/GitHub/Control-Surface/src/Display/DisplayInterface.cpp
FN:5,_ZN16DisplayInterface5beginEv
FN:11,_ZN16DisplayInterface8fillRectEsssst
FN:17,_ZN16DisplayInterface10drawCircleEssst
FN:40,_ZN16DisplayInterface10fillCircleEssst
FN:59,_ZN16DisplayInterface8beginAllEv
FNDA:0,_ZN16DisplayInterface5beginEv
FNDA:0,_ZN16DisplayInterface10drawCircleEssst
FNDA:0,_ZN16DisplayInterface10fillCircleEssst
FNDA:0,_ZN16DisplayInterface8fillRectEsssst
FNDA:0,_ZN16DisplayInterface8beginAllEv
FNF:5
FNH:0
DA:5,0
DA:6,0
DA:7,0
DA:8,0
DA:9,0
DA:11,0
DA:13,0
DA:14,0
DA:15,0
DA:17,0
DA:19,0
DA:20,0
DA:21,0
DA:23,0
DA:24,0
DA:25,0
DA:26,0
DA:27,0
DA:28,0
DA:29,0
DA:30,0
DA:31,0
DA:33,0
DA:34,0
DA:36,0
DA:38,0
DA:40,0
DA:42,0
DA:43,0
DA:44,0
DA:46,0
DA:47,0
DA:48,0
DA:49,0
DA:50,0
DA:52,0
DA:53,0
DA:55,0
DA:57,0
DA:59,0
DA:60,0
DA:61,0
DA:62,0
LF:43
LH:0
end_of_record
TN:
SF:/home/pieter/GitHub/Control-Surface/src/Display/DisplayInterface.hpp
FN:31,_ZN16DisplayInterface14drawBackgroundEv
FN:87,_ZN16DisplayInterface22clearAndDrawBackgroundEv
FNDA:0,_ZN16DisplayInterface14drawBackgroundEv
FNDA:0,_ZN16DisplayInterface22clearAndDrawBackgroundEv
FNF:2
FNH:0
DA:31,0
DA:87,0
DA:88,0
DA:89,0
DA:90,0
LF:5
LH:0
end_of_record
TN:
SF:/home/pieter/GitHub/Control-Surface/src/Hardware/Button.cpp
FN:5,_ZN6ButtonC2Et
FN:7,_ZN6Button5beginEv
FN:9,_ZN6Button6invertEv
FN:15,_ZN6Button8getStateEv
FN:33,_ZN6Button7getNameENS_5StateE
FN:43,_ZN6Button10stableTimeEv
FNDA:0,_ZN6Button10stableTimeEv
FNDA:172,_ZN6Button8getStateEv
FNDA:37,_ZN6ButtonC2Et
FNDA:37,_ZN6Button5beginEv
FNDA:0,_ZN6Button6invertEv
FNDA:0,_ZN6Button7getNameENS_5StateE
FNF:6
FNH:3
DA:5,37
DA:7,37
DA:9,0
DA:15,172
DA:18,172
DA:19,172
DA:20,172
DA:21,160
DA:22,160
DA:24,12
DA:26,172
DA:27,81
DA:28,81
DA:30,172
DA:33,0
DA:34,0
DA:35,0
DA:36,0
DA:37,0
DA:38,0
DA:39,0
DA:43,0
LF:22
LH:13
end_of_record
TN:
SF:/home/pieter/GitHub/Control-Surface/src/Hardware/ButtonMatrix.hpp
FN:38,_ZN12ButtonMatrixILh3ELh2EED2Ev
FN:38,_ZN12ButtonMatrixILh3ELh2EED0Ev
FNDA:2,_ZN12ButtonMatrixILh3ELh2EED2Ev
FNDA:0,_ZN12ButtonMatrixILh3ELh2EED0Ev
FNF:2
FNH:1
DA:38,2
LF:1
LH:1
end_of_record
TN:
SF:/home/pieter/GitHub/Control-Surface/src/Hardware/ButtonMatrix.ipp
FN:8,_ZN12ButtonMatrixILh3ELh2EEC2ERK5ArrayItLm3EERKS1_ItLm2EE
FN:15,_ZN12ButtonMatrixILh3ELh2EE7refreshEv
FN:39,_ZN12ButtonMatrixILh3ELh2EE5beginEv
FN:50,_ZN12ButtonMatrixILh3ELh2EE14positionToBitsEhh
FN:57,_ZN12ButtonMatrixILh3ELh2EE11bitsToIndexEh
FN:62,_ZN12ButtonMatrixILh3ELh2EE13bitsToBitmaskEh
FN:67,_ZN12ButtonMatrixILh3ELh2EE12getPrevStateEhh
FN:73,_ZN12ButtonMatrixILh3ELh2EE12setPrevStateEhhb
FNDA:2,_ZN12ButtonMatrixILh3ELh2EE5beginEv
FNDA:36,_ZN12ButtonMatrixILh3ELh2EE12getPrevStateEhh
FNDA:2,_ZN12ButtonMatrixILh3ELh2EEC2ERK5ArrayItLm3EERKS1_ItLm2EE
FNDA:42,_ZN12ButtonMatrixILh3ELh2EE13bitsToBitmaskEh
FNDA:6,_ZN12ButtonMatrixILh3ELh2EE7refreshEv
FNDA:42,_ZN12ButtonMatrixILh3ELh2EE11bitsToIndexEh
FNDA:6,_ZN12ButtonMatrixILh3ELh2EE12setPrevStateEhhb
FNDA:42,_ZN12ButtonMatrixILh3ELh2EE14positionToBitsEhh
FNF:8
FNH:8
DA:8,2
DA:10,2
DA:11,2
DA:12,2
DA:15,6
DA:16,6
DA:19,6
DA:20,0
DA:22,24
DA:23,18
DA:24,54
DA:25,36
DA:26,36
DA:29,6
DA:30,6
DA:31,6
DA:34,18
DA:39,2
DA:42,6
DA:43,4
DA:45,8
DA:46,6
DA:47,2
DA:50,42
DA:53,42
DA:57,42
DA:58,42
DA:62,42
DA:63,42
DA:67,36
DA:68,36
DA:69,36
DA:73,6
DA:75,6
DA:76,6
DA:77,3
DA:79,3
DA:80,6
LF:38
LH:37
end_of_record
TN:
SF:/home/pieter/GitHub/Control-Surface/src/Hardware/ExtendedInputOutput/AnalogMultiplex.hpp
FN:39,_ZN15AnalogMultiplexILh3EEC2EtRK5ArrayItLm3EEt
FN:39,_ZN15AnalogMultiplexILh4EEC2EtRK5ArrayItLm4EEt
FN:65,_ZN15AnalogMultiplexILh3EE12digitalWriteEth
FN:65,_ZN15AnalogMultiplexILh4EE12digitalWriteEth
FN:88,_ZN15AnalogMultiplexILh4EE11analogWriteEts
FN:88,_ZN15AnalogMultiplexILh3EE11analogWriteEts
FN:101,_ZN15AnalogMultiplexILh4EE6updateEv
FN:101,_ZN15AnalogMultiplexILh3EE6updateEv
FN:154,_ZN15AnalogMultiplexILh3EE7pinModeEth
FN:154,_ZN15AnalogMultiplexILh4EE7pinModeEth
FN:159,_ZN15AnalogMultiplexILh4EE11digitalReadEt
FN:159,_ZN15AnalogMultiplexILh3EE11digitalReadEt
FN:167,_ZN15AnalogMultiplexILh4EE10analogReadEt
FN:167,_ZN15AnalogMultiplexILh3EE10analogReadEt
FN:176,_ZN15AnalogMultiplexILh4EE5beginEv
FN:176,_ZN15AnalogMultiplexILh3EE5beginEv
FN:186,_ZN15AnalogMultiplexILh4EE13setMuxAddressEh
FN:186,_ZN15AnalogMultiplexILh3EE13setMuxAddressEh
FN:195,_ZN15AnalogMultiplexILh3EE14prepareReadingEh
FN:195,_ZN15AnalogMultiplexILh4EE14prepareReadingEh
FN:202,_ZN15AnalogMultiplexILh3EE12afterReadingEv
FN:202,_ZN15AnalogMultiplexILh4EE12afterReadingEv
FNDA:6,_ZN15AnalogMultiplexILh4EE14prepareReadingEh
FNDA:5,_ZN15AnalogMultiplexILh4EE5beginEv
FNDA:0,_ZN15AnalogMultiplexILh3EE7pinModeEth
FNDA:2,_ZN15AnalogMultiplexILh4EE11digitalReadEt
FNDA:4,_ZN15AnalogMultiplexILh4EE10analogReadEt
FNDA:3,_ZN15AnalogMultiplexILh3EE12afterReadingEv
FNDA:0,_ZN15AnalogMultiplexILh4EE11analogWriteEts
FNDA:3,_ZN15AnalogMultiplexILh3EE10analogReadEt
FNDA:6,_ZN15AnalogMultiplexILh4EE12afterReadingEv
FNDA:3,_ZN15AnalogMultiplexILh3EE14prepareReadingEh
FNDA:0,_ZN15AnalogMultiplexILh4EE6updateEv
FNDA:5,_ZN15AnalogMultiplexILh4EEC2EtRK5ArrayItLm4EEt
FNDA:0,_ZN15AnalogMultiplexILh3EE6updateEv
FNDA:1,_ZN15AnalogMultiplexILh4EE7pinModeEth
FNDA:3,_ZN15AnalogMultiplexILh3EE13setMuxAddressEh
FNDA:0,_ZN15AnalogMultiplexILh3EE11digitalReadEt
FNDA:1,_ZN15AnalogMultiplexILh3EE5beginEv
FNDA:0,_ZN15AnalogMultiplexILh3EE12digitalWriteEth
FNDA:1,_ZN15AnalogMultiplexILh3EEC2EtRK5ArrayItLm3EEt
FNDA:6,_ZN15AnalogMultiplexILh4EE13setMuxAddressEh
FNDA:0,_ZN15AnalogMultiplexILh3EE11analogWriteEts
FNDA:0,_ZN15AnalogMultiplexILh4EE12digitalWriteEth
FNF:22
FNH:14
DA:39,6
DA:41,6
DA:42,6
DA:65,0
DA:66,0
DA:88,0
DA:89,0
DA:101,0
DA:154,1
DA:155,1
DA:156,1
DA:159,2
DA:160,2
DA:161,2
DA:162,2
DA:163,2
DA:167,7
DA:168,7
DA:169,7
DA:170,7
DA:171,7
DA:172,7
DA:176,6
DA:177,29
DA:178,23
DA:179,6
DA:180,4
DA:181,4
DA:183,6
DA:186,9
DA:187,9
DA:188,42
DA:189,33
DA:190,33
DA:192,9
DA:195,9
DA:196,9
DA:197,9
DA:198,5
DA:199,9
DA:202,9
DA:203,9
DA:204,5
DA:205,9
LF:44
LH:39
end_of_record
TN:
SF:/home/pieter/GitHub/Control-Surface/src/Hardware/ExtendedInputOutput/ExtendedIOElement.cpp
FN:6,_ZN17ExtendedIOElementC2Et
FN:17,_ZN17ExtendedIOElementD2Ev
FN:17,_ZN17ExtendedIOElementD0Ev
FN:19,_ZN17ExtendedIOElement8beginAllEv
FN:24,_ZNK17ExtendedIOElement3pinEt
FN:39,_ZNK17ExtendedIOElementixEt
FN:41,_ZNK17ExtendedIOElement9getLengthEv
FN:43,_ZNK17ExtendedIOElement6getEndEv
FN:45,_ZNK17ExtendedIOElement8getStartEv
FN:47,_ZN17ExtendedIOElement6getAllEv
FNDA:0,_ZNK17ExtendedIOElement9getLengthEv
FNDA:0,_ZN17ExtendedIOElementD0Ev
FNDA:18,_ZNK17ExtendedIOElement6getEndEv
FNDA:15,_ZN17ExtendedIOElementC2Et
FNDA:14,_ZN17ExtendedIOElementD2Ev
FNDA:0,_ZNK17ExtendedIOElementixEt
FNDA:6,_ZN17ExtendedIOElement8beginAllEv
FNDA:20,_ZNK17ExtendedIOElement3pinEt
FNDA:51,_ZNK17ExtendedIOElement8getStartEv
FNDA:16,_ZN17ExtendedIOElement6getAllEv
FNF:10
FNH:7
DA:6,15
DA:7,16
DA:8,15
DA:9,1
DA:13,14
DA:14,14
DA:15,14
DA:17,14
DA:19,6
DA:20,12
DA:21,6
DA:22,6
DA:24,20
DA:25,20
DA:28,2
DA:36,18
DA:39,0
DA:41,0
DA:43,18
DA:45,51
DA:47,16
DA:48,16
LF:22
LH:20
end_of_record
TN:
SF:/home/pieter/GitHub/Control-Surface/src/Hardware/ExtendedInputOutput/ExtendedInputOutput.cpp
FN:9,_ZN5ExtIO7inRangeItEEbT_S1_S1_
FN:13,_ZN5ExtIO17getIOElementOfPinEt
FN:32,_ZN5ExtIO7pinModeEth
FN:41,_ZN5ExtIO7pinModeEih
FN:43,_ZN5ExtIO12digitalWriteEth
FN:52,_ZN5ExtIO12digitalWriteEih
FN:54,_ZN5ExtIO11digitalReadEt
FN:63,_ZN5ExtIO11digitalReadEi
FN:65,_ZN5ExtIO8shiftOutEtthh
FN:78,_ZN5ExtIO8shiftOutEiihh
FN:82,_ZN5ExtIO10analogReadEt
FN:91,_ZN5ExtIO10analogReadEi
FNDA:223,_ZN5ExtIO11digitalReadEt
FNDA:21,_ZN5ExtIO10analogReadEt
FNDA:1,_ZN5ExtIO11digitalReadEi
FNDA:0,_ZN5ExtIO10analogReadEi
FNDA:18,_ZN5ExtIO7inRangeItEEbT_S1_S1_
FNDA:0,_ZN5ExtIO7pinModeEih
FNDA:0,_ZN5ExtIO12digitalWriteEih
FNDA:0,_ZN5ExtIO8shiftOutEtthh
FNDA:57,_ZN5ExtIO12digitalWriteEth
FNDA:0,_ZN5ExtIO8shiftOutEiihh
FNDA:119,_ZN5ExtIO7pinModeEth
FNDA:16,_ZN5ExtIO17getIOElementOfPinEt
FNF:12
FNH:7
DA:9,18
DA:10,18
DA:13,16
DA:14,20
DA:15,19
DA:16,1
DA:17,18
DA:18,14
DA:20,2
DA:32,119
DA:34,119
DA:35,118
DA:37,1
DA:38,1
DA:40,119
DA:41,0
DA:43,57
DA:45,57
DA:46,57
DA:48,0
DA:49,0
DA:51,57
DA:52,0
DA:54,223
DA:55,223
DA:56,215
DA:58,8
DA:59,6
DA:63,1
DA:65,0
DA:68,0
DA:69,0
DA:70,0
DA:72,0
DA:74,0
DA:75,0
DA:77,0
DA:78,0
DA:79,0
DA:80,0
DA:82,21
DA:83,21
DA:84,14
DA:86,7
DA:87,7
DA:91,0
LF:46
LH:30
end_of_record
TN:
SF:/home/pieter/GitHub/Control-Surface/src/Hardware/ExtendedInputOutput/StaticSizeExtendedIOElement.hpp
FN:16,_ZN27StaticSizeExtendedIOElementILt8EEC2Ev
FN:16,_ZN27StaticSizeExtendedIOElementILt16EEC2Ev
FNDA:5,_ZN27StaticSizeExtendedIOElementILt16EEC2Ev
FNDA:1,_ZN27StaticSizeExtendedIOElementILt8EEC2Ev
FNF:2
FNH:2
DA:16,6
LF:1
LH:1
end_of_record
TN:
SF:/home/pieter/GitHub/Control-Surface/src/Hardware/IncrementButton.cpp
FN:3,_ZN15IncrementButton8getStateEv
FNDA:12,_ZN15IncrementButton8getStateEv
FNF:1
FNH:1
DA:3,12
DA:4,12
DA:6,12
DA:11,10
DA:12,4
DA:13,6
DA:14,6
DA:16,0
DA:18,0
DA:19,0
DA:20,0
DA:22,0
DA:24,0
DA:25,0
DA:26,0
DA:29,6
LF:16
LH:8
end_of_record
TN:
SF:/home/pieter/GitHub/Control-Surface/src/Hardware/IncrementButton.hpp
FN:24,_ZN15IncrementButtonC2ERK6Button
FN:27,_ZN15IncrementButton5beginEv
FNDA:2,_ZN15IncrementButtonC2ERK6Button
FNDA:2,_ZN15IncrementButton5beginEv
FNF:2
FNH:2
DA:24,2
DA:27,2
LF:2
LH:2
end_of_record
TN:
SF:/home/pieter/GitHub/Control-Surface/src/Hardware/IncrementDecrementButtons.cpp
FN:3,_ZN25IncrementDecrementButtons8getStateEv
FNDA:19,_ZN25IncrementDecrementButtons8getStateEv
FNF:1
FNH:1
DA:3,19
DA:4,19
DA:5,19
DA:7,19
DA:9,17
DA:10,3
DA:13,6
DA:14,11
DA:17,1
DA:18,1
DA:19,10
DA:20,5
DA:22,0
DA:23,0
DA:26,5
DA:28,5
DA:29,5
DA:31,0
DA:32,0
DA:35,5
DA:37,0
DA:39,0
DA:41,0
DA:42,0
DA:43,0
DA:44,0
DA:46,0
DA:47,0
DA:48,0
DA:49,0
DA:51,0
DA:53,0
DA:54,0
DA:55,0
DA:56,0
DA:58,0
DA:59,0
DA:60,0
DA:61,0
DA:64,8
LF:40
LH:17
end_of_record
TN:
SF:/home/pieter/GitHub/Control-Surface/src/Hardware/IncrementDecrementButtons.hpp
FN:30,_ZN25IncrementDecrementButtonsC2ERK6ButtonS2_
FN:35,_ZN25IncrementDecrementButtons5beginEv
FNDA:5,_ZN25IncrementDecrementButtonsC2ERK6ButtonS2_
FNDA:5,_ZN25IncrementDecrementButtons5beginEv
FNF:2
FNH:2
DA:30,5
DA:32,5
DA:35,5
DA:36,5
DA:37,5
DA:38,5
LF:6
LH:6
end_of_record
TN:
SF:/home/pieter/GitHub/Control-Surface/src/Hardware/LEDs/DotBarDisplayLEDs.hpp
FN:24,_ZN17DotBarDisplayLEDsILh2EEC2ERK5ArrayItLm2EE
FN:32,_ZNK17DotBarDisplayLEDsILh2EE7displayEh
FNDA:4,_ZNK17DotBarDisplayLEDsILh2EE7displayEh
FNDA:1,_ZN17DotBarDisplayLEDsILh2EEC2ERK5ArrayItLm2EE
FNF:2
FNH:2
DA:24,1
DA:32,4
DA:33,4
DA:34,0
DA:35,4
DA:36,4
DA:38,0
DA:39,4
LF:8
LH:6
end_of_record
TN:
SF:/home/pieter/GitHub/Control-Surface/src/Hardware/LEDs/LEDs.hpp
FN:23,_ZN4LEDsILh2EEC2ERK5ArrayItLm2EE
FN:28,_ZNK4LEDsILh2EE5beginEv
FN:42,_ZNK4LEDsILh2EE12displayRangeEhh
FN:57,_ZNK4LEDsILh2EE10displayDotEh
FN:62,_ZNK4LEDsILh2EE5clearEv
FNDA:0,_ZNK4LEDsILh2EE10displayDotEh
FNDA:1,_ZN4LEDsILh2EEC2ERK5ArrayItLm2EE
FNDA:1,_ZNK4LEDsILh2EE5beginEv
FNDA:4,_ZNK4LEDsILh2EE12displayRangeEhh
FNDA:0,_ZNK4LEDsILh2EE5clearEv
FNF:5
FNH:3
DA:23,1
DA:28,1
DA:29,3
DA:30,2
DA:31,1
DA:42,4
DA:43,4
DA:44,0
DA:45,11
DA:46,7
DA:47,5
DA:48,1
DA:49,4
DA:57,0
DA:62,0
DA:63,0
DA:64,0
DA:65,0
LF:18
LH:12
end_of_record
TN:
SF:/home/pieter/GitHub/Control-Surface/src/Helpers/Array.hpp
FN:28,_ZN5ArrayIS_IhLm2EELm3EEixEm
FN:28,_ZN5ArrayIS_IiLm2EELm3EEixEm
FN:28,_ZN5ArrayIiLm2EEixEm
FN:28,_ZN5ArrayIiLm6EEixEm
FN:28,_ZN5ArrayIhLm2EEixEm
FN:38,_ZNK5ArrayIiLm6EEixEm
FN:38,_ZNK5ArrayItLm3EEixEm
FN:38,_ZNK5ArrayItLm2EEixEm
FN:38,_ZNK5ArrayItLm4EEixEm
FN:38,_ZNK5ArrayIiLm5EEixEm
FN:38,_ZNK5ArrayIjLm4EEixEm
FN:43,_ZN5ArrayIjLm4EE5beginEv
FN:43,_ZN5ArrayI6ButtonLm2EE5beginEv
FN:43,_ZN5ArrayIiLm6EE5beginEv
FN:48,_ZNK5ArrayItLm2EE5beginEv
FN:48,_ZNK5ArrayIiLm6EE5beginEv
FN:48,_ZNK5ArrayItLm3EE5beginEv
FN:48,_ZNK5ArrayIaLm3EE5beginEv
FN:48,_ZNK5ArrayIaLm1EE5beginEv
FN:48,_ZNK5ArrayItLm4EE5beginEv
FN:48,_ZNK5ArrayIaLm2EE5beginEv
FN:53,_ZN5ArrayI6ButtonLm2EE3endEv
FN:53,_ZN5ArrayIjLm4EE3endEv
FN:53,_ZN5ArrayIiLm6EE3endEv
FN:58,_ZNK5ArrayIaLm1EE3endEv
FN:58,_ZNK5ArrayIaLm3EE3endEv
FN:58,_ZNK5ArrayIaLm2EE3endEv
FN:58,_ZNK5ArrayItLm2EE3endEv
FN:58,_ZNK5ArrayItLm3EE3endEv
FN:58,_ZNK5ArrayItLm4EE3endEv
FN:58,_ZNK5ArrayIiLm6EE3endEv
FN:66,_ZNK5ArrayIiLm5EEeqERKS0_
FN:66,_ZNK5ArrayIjLm4EEeqERKS0_
FN:81,_ZNK5ArrayIiLm5EEneERKS0_
FNDA:44,_ZNK5ArrayItLm2EEixEm
FNDA:26,_ZN5ArrayI6ButtonLm2EE5beginEv
FNDA:3,_ZNK5ArrayIiLm5EEneERKS0_
FNDA:1,_ZNK5ArrayIiLm6EE5beginEv
FNDA:6,_ZNK5ArrayItLm3EE5beginEv
FNDA:0,_ZNK5ArrayIaLm1EE3endEv
FNDA:26,_ZN5ArrayI6ButtonLm2EE3endEv
FNDA:36,_ZNK5ArrayItLm3EEixEm
FNDA:2,_ZN5ArrayIjLm4EE5beginEv
FNDA:3,_ZNK5ArrayItLm2EE5beginEv
FNDA:6,_ZNK5ArrayIiLm6EEixEm
FNDA:0,_ZNK5ArrayIaLm1EE5beginEv
FNDA:60,_ZNK5ArrayIiLm5EEixEm
FNDA:0,_ZNK5ArrayIaLm2EE3endEv
FNDA:0,_ZNK5ArrayIaLm3EE5beginEv
FNDA:6,_ZN5ArrayIS_IhLm2EELm3EEixEm
FNDA:0,_ZNK5ArrayIaLm3EE3endEv
FNDA:4,_ZNK5ArrayItLm4EEixEm
FNDA:12,_ZNK5ArrayItLm4EE5beginEv
FNDA:6,_ZNK5ArrayItLm3EE3endEv
FNDA:6,_ZN5ArrayIS_IiLm2EELm3EEixEm
FNDA:3,_ZNK5ArrayItLm2EE3endEv
FNDA:6,_ZN5ArrayIiLm2EEixEm
FNDA:0,_ZNK5ArrayIaLm2EE5beginEv
FNDA:1,_ZN5ArrayIiLm6EE5beginEv
FNDA:2,_ZNK5ArrayIjLm4EEeqERKS0_
FNDA:6,_ZNK5ArrayIiLm5EEeqERKS0_
FNDA:16,_ZNK5ArrayIjLm4EEixEm
FNDA:1,_ZN5ArrayIiLm6EE3endEv
FNDA:13,_ZN5ArrayIiLm6EEixEm
FNDA:6,_ZN5ArrayIhLm2EEixEm
FNDA:12,_ZNK5ArrayItLm4EE3endEv
FNDA:1,_ZNK5ArrayIiLm6EE3endEv
FNDA:2,_ZN5ArrayIjLm4EE3endEv
FNF:34
FNH:28
DA:28,37
DA:38,166
DA:43,29
DA:48,22
DA:53,29
DA:58,22
DA:66,8
DA:67,8
DA:68,0
DA:69,43
DA:70,38
DA:71,3
DA:72,5
DA:81,3
LF:14
LH:13
end_of_record
TN:
SF:/home/pieter/GitHub/Control-Surface/src/Helpers/ArrayHelpers.hpp
FN:15,_Z8generateIPjZN25generateArray_simple_Test8TestBodyEvEUlvE_EvT_S3_T0_
FN:15,_Z8generateIPj11IncrementorIiiEEvT_S3_T0_
FN:33,_ZN11IncrementorIiiEC1Eii
FN:35,_ZN11IncrementorIiiEclEv
FN:62,_Z13generateArrayIjLm4EZN25generateArray_simple_Test8TestBodyEvEUlvE_E5ArrayIT_XT0_EET1_
FN:62,_Z13generateArrayIjLm4E11IncrementorIiiEE5ArrayIT_XT0_EET1_
FN:102,_Z24generateIncrementalArrayIjLm4EiiE5ArrayIT_XT0_EET1_T2_
FNDA:1,_Z8generateIPjZN25generateArray_simple_Test8TestBodyEvEUlvE_EvT_S3_T0_
FNDA:1,_ZN11IncrementorIiiEC1Eii
FNDA:1,_Z24generateIncrementalArrayIjLm4EiiE5ArrayIT_XT0_EET1_T2_
FNDA:1,_Z13generateArrayIjLm4EZN25generateArray_simple_Test8TestBodyEvEUlvE_E5ArrayIT_XT0_EET1_
FNDA:4,_ZN11IncrementorIiiEclEv
FNDA:1,_Z8generateIPj11IncrementorIiiEEvT_S3_T0_
FNDA:1,_Z13generateArrayIjLm4E11IncrementorIiiEE5ArrayIT_XT0_EET1_
FNF:7
FNH:7
DA:15,10
DA:17,10
DA:18,8
DA:19,2
DA:33,1
DA:34,1
DA:35,4
DA:36,4
DA:37,4
DA:38,4
DA:62,2
DA:63,2
DA:64,2
DA:65,2
DA:102,1
DA:103,1
DA:104,2
LF:17
LH:17
end_of_record
TN:
SF:/home/pieter/GitHub/Control-Surface/src/Helpers/BitArray.hpp
FN:23,_ZN8BitArrayILh16EE3getEh
FN:33,_ZN8BitArrayILh16EE3setEh
FN:43,_ZN8BitArrayILh16EE5clearEh
FN:55,_ZN8BitArrayILh16EE3setEhb
FN:67,_ZNK8BitArrayILh16EE9safeIndexEh
FN:96,_ZNK8BitArrayILh16EE15getBufferLengthEv
FN:99,_ZNK8BitArrayILh16EE14getBufferIndexEh
FN:102,_ZNK8BitArrayILh16EE12getBufferBitEh
FN:103,_ZNK8BitArrayILh16EE13getBufferMaskEh
FNDA:69,_ZNK8BitArrayILh16EE14getBufferIndexEh
FNDA:2,_ZN8BitArrayILh16EE5clearEh
FNDA:3,_ZN8BitArrayILh16EE3setEh
FNDA:69,_ZNK8BitArrayILh16EE13getBufferMaskEh
FNDA:69,_ZNK8BitArrayILh16EE12getBufferBitEh
FNDA:69,_ZNK8BitArrayILh16EE15getBufferLengthEv
FNDA:2,_ZN8BitArrayILh16EE3setEhb
FNDA:64,_ZN8BitArrayILh16EE3getEh
FNDA:69,_ZNK8BitArrayILh16EE9safeIndexEh
FNF:9
FNH:9
DA:23,64
DA:24,64
DA:33,3
DA:34,3
DA:35,3
DA:43,2
DA:44,2
DA:45,2
DA:55,2
DA:56,2
DA:57,2
DA:67,69
DA:68,69
DA:69,0
DA:75,69
DA:96,69
DA:99,69
DA:100,69
DA:102,69
DA:103,69
DA:104,69
LF:21
LH:20
end_of_record
TN:
SF:/home/pieter/GitHub/Control-Surface/src/Helpers/Error.hpp
FN:44,_ZN14ErrorExceptionC2ENSt7__cxx1112basic_stringIcSt11char_traitsIcESaIcEEEi
FN:46,_ZNK14ErrorException4whatEv
FN:47,_ZNK14ErrorException12getErrorCodeEv
FNDA:1,_ZNK14ErrorException4whatEv
FNDA:9,_ZN14ErrorExceptionC2ENSt7__cxx1112basic_stringIcSt11char_traitsIcESaIcEEEi
FNDA:8,_ZNK14ErrorException12getErrorCodeEv
FNF:3
FNH:3
DA:44,9
DA:45,9
DA:46,1
DA:47,8
LF:4
LH:4
end_of_record
TN:
SF:/home/pieter/GitHub/Control-Surface/src/Helpers/LinkedList.hpp
FN:25,_ZN16DoublyLinkedListI9UpdatableI15NormalUpdatableEE18node_iterator_baseIS2_EC2EPS2_
FN:25,_ZN16DoublyLinkedListI17ExtendedIOElementE18node_iterator_baseIS0_EC2EPS0_
FN:25,_ZN16DoublyLinkedListI17BankableMIDIInputILh3EEE18node_iterator_baseIS1_EC2EPS1_
FN:25,_ZN16DoublyLinkedListI9UpdatableI10MotorFaderEE18node_iterator_baseIS2_EC2EPS2_
FN:25,_ZN16DoublyLinkedListI18MIDIInputElementCCE18node_iterator_baseIS0_EC2EPS0_
FN:25,_ZN16DoublyLinkedListI8TestNodeE18node_iterator_baseIS0_EC2EPS0_
FN:25,_ZN16DoublyLinkedListI9UpdatableI7DisplayEE18node_iterator_baseIS2_EC2EPS2_
FN:25,_ZN16DoublyLinkedListI17BankableMIDIInputILh2EEE18node_iterator_baseIS1_EC2EPS1_
FN:25,_ZN16DoublyLinkedListI18MIDIInputElementPCE18node_iterator_baseIS0_EC2EPS0_
FN:25,_ZN16DoublyLinkedListI9UpdatableI13PotentiometerEE18node_iterator_baseIS2_EC2EPS2_
FN:25,_ZN16DoublyLinkedListI31MIDIInputElementChannelPressureE18node_iterator_baseIS0_EC2EPS0_
FN:25,_ZN16DoublyLinkedListI16DisplayInterfaceE18node_iterator_baseIS0_EC2EPS0_
FN:25,_ZN16DoublyLinkedListI14DisplayElementE18node_iterator_baseIS0_EC2EPS0_
FN:25,_ZN16DoublyLinkedListI8TestNodeE18node_iterator_baseIKS0_EC2EPS3_
FN:25,_ZN16DoublyLinkedListI20MIDIInputElementNoteE18node_iterator_baseIS0_EC2EPS0_
FN:25,_ZN16DoublyLinkedListI17BankableMIDIInputILh10EEE18node_iterator_baseIS1_EC2EPS1_
FN:27,_ZNK16DoublyLinkedListI9UpdatableI13PotentiometerEE18node_iterator_baseIS2_EneERKS5_
FN:27,_ZNK16DoublyLinkedListI16DisplayInterfaceE18node_iterator_baseIS0_EneERKS3_
FN:27,_ZNK16DoublyLinkedListI8TestNodeE18node_iterator_baseIKS0_EneERKS4_
FN:27,_ZNK16DoublyLinkedListI9UpdatableI7DisplayEE18node_iterator_baseIS2_EneERKS5_
FN:27,_ZNK16DoublyLinkedListI18MIDIInputElementPCE18node_iterator_baseIS0_EneERKS3_
FN:27,_ZNK16DoublyLinkedListI14DisplayElementE18node_iterator_baseIS0_EneERKS3_
FN:27,_ZNK16DoublyLinkedListI17ExtendedIOElementE18node_iterator_baseIS0_EneERKS3_
FN:27,_ZNK16DoublyLinkedListI9UpdatableI15NormalUpdatableEE18node_iterator_baseIS2_EneERKS5_
FN:27,_ZNK16DoublyLinkedListI8TestNodeE18node_iterator_baseIS0_EneERKS3_
FN:27,_ZNK16DoublyLinkedListI20MIDIInputElementNoteE18node_iterator_baseIS0_EneERKS3_
FN:27,_ZNK16DoublyLinkedListI17BankableMIDIInputILh2EEE18node_iterator_baseIS1_EneERKS4_
FN:27,_ZNK16DoublyLinkedListI17BankableMIDIInputILh10EEE18node_iterator_baseIS1_EneERKS4_
FN:27,_ZNK16DoublyLinkedListI9UpdatableI10MotorFaderEE18node_iterator_baseIS2_EneERKS5_
FN:27,_ZNK16DoublyLinkedListI17BankableMIDIInputILh3EEE18node_iterator_baseIS1_EneERKS4_
FN:27,_ZNK16DoublyLinkedListI31MIDIInputElementChannelPressureE18node_iterator_baseIS0_EneERKS3_
FN:27,_ZNK16DoublyLinkedListI18MIDIInputElementCCE18node_iterator_baseIS0_EneERKS3_
FN:31,_ZNK16DoublyLinkedListI9UpdatableI10MotorFaderEE18node_iterator_baseIS2_EdeEv
FN:31,_ZNK16DoublyLinkedListI18MIDIInputElementPCE18node_iterator_baseIS0_EdeEv
FN:31,_ZNK16DoublyLinkedListI9UpdatableI15NormalUpdatableEE18node_iterator_baseIS2_EdeEv
FN:31,_ZNK16DoublyLinkedListI9UpdatableI13PotentiometerEE18node_iterator_baseIS2_EdeEv
FN:31,_ZNK16DoublyLinkedListI17BankableMIDIInputILh10EEE18node_iterator_baseIS1_EdeEv
FN:31,_ZNK16DoublyLinkedListI18MIDIInputElementCCE18node_iterator_baseIS0_EdeEv
FN:31,_ZNK16DoublyLinkedListI17ExtendedIOElementE18node_iterator_baseIS0_EdeEv
FN:31,_ZNK16DoublyLinkedListI14DisplayElementE18node_iterator_baseIS0_EdeEv
FN:31,_ZNK16DoublyLinkedListI16DisplayInterfaceE18node_iterator_baseIS0_EdeEv
FN:31,_ZNK16DoublyLinkedListI31MIDIInputElementChannelPressureE18node_iterator_baseIS0_EdeEv
FN:31,_ZNK16DoublyLinkedListI8TestNodeE18node_iterator_baseIS0_EdeEv
FN:31,_ZNK16DoublyLinkedListI8TestNodeE18node_iterator_baseIKS0_EdeEv
FN:31,_ZNK16DoublyLinkedListI20MIDIInputElementNoteE18node_iterator_baseIS0_EdeEv
FN:31,_ZNK16DoublyLinkedListI17BankableMIDIInputILh2EEE18node_iterator_baseIS1_EdeEv
FN:31,_ZNK16DoublyLinkedListI9UpdatableI7DisplayEE18node_iterator_baseIS2_EdeEv
FN:31,_ZNK16DoublyLinkedListI17BankableMIDIInputILh3EEE18node_iterator_baseIS1_EdeEv
FN:44,_ZN16DoublyLinkedListI9UpdatableI13PotentiometerEE13node_iteratorIS2_EC2EPS2_
FN:44,_ZN16DoublyLinkedListI16DisplayInterfaceE13node_iteratorIS0_EC2EPS0_
FN:44,_ZN16DoublyLinkedListI9UpdatableI10MotorFaderEE13node_iteratorIS2_EC2EPS2_
FN:44,_ZN16DoublyLinkedListI8TestNodeE13node_iteratorIS0_EC2EPS0_
FN:44,_ZN16DoublyLinkedListI17BankableMIDIInputILh2EEE13node_iteratorIS1_EC2EPS1_
FN:44,_ZN16DoublyLinkedListI17ExtendedIOElementE13node_iteratorIS0_EC2EPS0_
FN:44,_ZN16DoublyLinkedListI14DisplayElementE13node_iteratorIS0_EC2EPS0_
FN:44,_ZN16DoublyLinkedListI18MIDIInputElementPCE13node_iteratorIS0_EC2EPS0_
FN:44,_ZN16DoublyLinkedListI9UpdatableI7DisplayEE13node_iteratorIS2_EC2EPS2_
FN:44,_ZN16DoublyLinkedListI17BankableMIDIInputILh10EEE13node_iteratorIS1_EC2EPS1_
FN:44,_ZN16DoublyLinkedListI8TestNodeE13node_iteratorIKS0_EC2EPS3_
FN:44,_ZN16DoublyLinkedListI20MIDIInputElementNoteE13node_iteratorIS0_EC2EPS0_
FN:44,_ZN16DoublyLinkedListI31MIDIInputElementChannelPressureE13node_iteratorIS0_EC2EPS0_
FN:44,_ZN16DoublyLinkedListI18MIDIInputElementCCE13node_iteratorIS0_EC2EPS0_
FN:44,_ZN16DoublyLinkedListI17BankableMIDIInputILh3EEE13node_iteratorIS1_EC2EPS1_
FN:44,_ZN16DoublyLinkedListI9UpdatableI15NormalUpdatableEE13node_iteratorIS2_EC2EPS2_
FN:55,_ZN16DoublyLinkedListI16DisplayInterfaceE13node_iteratorIS0_EppEv
FN:55,_ZN16DoublyLinkedListI9UpdatableI10MotorFaderEE13node_iteratorIS2_EppEv
FN:55,_ZN16DoublyLinkedListI17ExtendedIOElementE13node_iteratorIS0_EppEv
FN:55,_ZN16DoublyLinkedListI17BankableMIDIInputILh10EEE13node_iteratorIS1_EppEv
FN:55,_ZN16DoublyLinkedListI14DisplayElementE13node_iteratorIS0_EppEv
FN:55,_ZN16DoublyLinkedListI8TestNodeE13node_iteratorIS0_EppEv
FN:55,_ZN16DoublyLinkedListI20MIDIInputElementNoteE13node_iteratorIS0_EppEv
FN:55,_ZN16DoublyLinkedListI9UpdatableI13PotentiometerEE13node_iteratorIS2_EppEv
FN:55,_ZN16DoublyLinkedListI17BankableMIDIInputILh2EEE13node_iteratorIS1_EppEv
FN:55,_ZN16DoublyLinkedListI9UpdatableI7DisplayEE13node_iteratorIS2_EppEv
FN:55,_ZN16DoublyLinkedListI9UpdatableI15NormalUpdatableEE13node_iteratorIS2_EppEv
FN:55,_ZN16DoublyLinkedListI8TestNodeE13node_iteratorIKS0_EppEv
FN:55,_ZN16DoublyLinkedListI31MIDIInputElementChannelPressureE13node_iteratorIS0_EppEv
FN:55,_ZN16DoublyLinkedListI18MIDIInputElementCCE13node_iteratorIS0_EppEv
FN:55,_ZN16DoublyLinkedListI17BankableMIDIInputILh3EEE13node_iteratorIS1_EppEv
FN:55,_ZN16DoublyLinkedListI18MIDIInputElementPCE13node_iteratorIS0_EppEv
FN:73,_ZN16DoublyLinkedListI8TestNodeE21reverse_node_iteratorIKS0_EC2EPS3_
FN:73,_ZN16DoublyLinkedListI8TestNodeE21reverse_node_iteratorIS0_EC2EPS0_
FN:84,_ZN16DoublyLinkedListI8TestNodeE21reverse_node_iteratorIS0_EppEv
FN:84,_ZN16DoublyLinkedListI8TestNodeE21reverse_node_iteratorIKS0_EppEv
FN:109,_ZN16DoublyLinkedListI17BankableMIDIInputILh3EEE6appendEPS1_
FN:109,_ZN16DoublyLinkedListI17ExtendedIOElementE6appendEPS0_
FN:109,_ZN16DoublyLinkedListI18MIDIInputElementCCE6appendEPS0_
FN:109,_ZN16DoublyLinkedListI8TestNodeE6appendEPS0_
FN:109,_ZN16DoublyLinkedListI31MIDIInputElementChannelPressureE6appendEPS0_
FN:109,_ZN16DoublyLinkedListI17BankableMIDIInputILh2EEE6appendEPS1_
FN:109,_ZN16DoublyLinkedListI18MIDIInputElementPCE6appendEPS0_
FN:109,_ZN16DoublyLinkedListI17BankableMIDIInputILh10EEE6appendEPS1_
FN:109,_ZN16DoublyLinkedListI9UpdatableI15NormalUpdatableEE6appendEPS2_
FN:109,_ZN16DoublyLinkedListI20MIDIInputElementNoteE6appendEPS0_
FN:125,_ZN16DoublyLinkedListI8TestNodeE6appendERS0_
FN:136,_ZN16DoublyLinkedListI8TestNodeE12insertBeforeEPS0_S2_
FN:147,_ZN16DoublyLinkedListI8TestNodeE12insertBeforeERS0_S2_
FN:162,_ZN16DoublyLinkedListI8TestNodeE12insertSortedIZNS1_12insertSortedEPS0_EUlRS0_S4_E_EEvS3_T_
FN:162,_ZN16DoublyLinkedListI8TestNodeE12insertSortedIZN45DoublyLinkedList_insertSortedGreaterThan_Test8TestBodyEvEUlRS0_S4_E_EEvPS0_T_
FN:182,_ZN16DoublyLinkedListI8TestNodeE12insertSortedEPS0_
FN:183,_ZZN16DoublyLinkedListI8TestNodeE12insertSortedEPS0_ENKUlRS0_S3_E_clES3_S3_
FN:192,_ZN16DoublyLinkedListI20MIDIInputElementNoteE6removeEPS0_
FN:192,_ZN16DoublyLinkedListI17BankableMIDIInputILh3EEE6removeEPS1_
FN:192,_ZN16DoublyLinkedListI18MIDIInputElementPCE6removeEPS0_
FN:192,_ZN16DoublyLinkedListI17ExtendedIOElementE6removeEPS0_
FN:192,_ZN16DoublyLinkedListI18MIDIInputElementCCE6removeEPS0_
FN:192,_ZN16DoublyLinkedListI31MIDIInputElementChannelPressureE6removeEPS0_
FN:192,_ZN16DoublyLinkedListI9UpdatableI15NormalUpdatableEE6removeEPS2_
FN:192,_ZN16DoublyLinkedListI17BankableMIDIInputILh10EEE6removeEPS1_
FN:192,_ZN16DoublyLinkedListI17BankableMIDIInputILh2EEE6removeEPS1_
FN:192,_ZN16DoublyLinkedListI8TestNodeE6removeEPS0_
FN:224,_ZN16DoublyLinkedListI20MIDIInputElementNoteE8moveDownEPS0_
FN:224,_ZN16DoublyLinkedListI18MIDIInputElementPCE8moveDownEPS0_
FN:224,_ZN16DoublyLinkedListI8TestNodeE8moveDownEPS0_
FN:224,_ZN16DoublyLinkedListI18MIDIInputElementCCE8moveDownEPS0_
FN:224,_ZN16DoublyLinkedListI31MIDIInputElementChannelPressureE8moveDownEPS0_
FN:260,_ZN16DoublyLinkedListI8TestNodeE12couldContainEPS0_
FN:260,_ZN16DoublyLinkedListI9UpdatableI15NormalUpdatableEE12couldContainEPS2_
FN:265,_ZN16DoublyLinkedListI8TestNodeE5beginEv
FN:265,_ZN16DoublyLinkedListI17BankableMIDIInputILh3EEE5beginEv
FN:265,_ZN16DoublyLinkedListI9UpdatableI13PotentiometerEE5beginEv
FN:265,_ZN16DoublyLinkedListI9UpdatableI7DisplayEE5beginEv
FN:265,_ZN16DoublyLinkedListI9UpdatableI15NormalUpdatableEE5beginEv
FN:265,_ZN16DoublyLinkedListI31MIDIInputElementChannelPressureE5beginEv
FN:265,_ZN16DoublyLinkedListI18MIDIInputElementPCE5beginEv
FN:265,_ZN16DoublyLinkedListI17BankableMIDIInputILh10EEE5beginEv
FN:265,_ZN16DoublyLinkedListI17BankableMIDIInputILh2EEE5beginEv
FN:265,_ZN16DoublyLinkedListI14DisplayElementE5beginEv
FN:265,_ZN16DoublyLinkedListI17ExtendedIOElementE5beginEv
FN:265,_ZN16DoublyLinkedListI20MIDIInputElementNoteE5beginEv
FN:265,_ZN16DoublyLinkedListI16DisplayInterfaceE5beginEv
FN:265,_ZN16DoublyLinkedListI18MIDIInputElementCCE5beginEv
FN:265,_ZN16DoublyLinkedListI9UpdatableI10MotorFaderEE5beginEv
FN:266,_ZN16DoublyLinkedListI18MIDIInputElementPCE3endEv
FN:266,_ZN16DoublyLinkedListI9UpdatableI7DisplayEE3endEv
FN:266,_ZN16DoublyLinkedListI16DisplayInterfaceE3endEv
FN:266,_ZN16DoublyLinkedListI8TestNodeE3endEv
FN:266,_ZN16DoublyLinkedListI31MIDIInputElementChannelPressureE3endEv
FN:266,_ZN16DoublyLinkedListI18MIDIInputElementCCE3endEv
FN:266,_ZN16DoublyLinkedListI9UpdatableI15NormalUpdatableEE3endEv
FN:266,_ZN16DoublyLinkedListI17BankableMIDIInputILh10EEE3endEv
FN:266,_ZN16DoublyLinkedListI20MIDIInputElementNoteE3endEv
FN:266,_ZN16DoublyLinkedListI17BankableMIDIInputILh2EEE3endEv
FN:266,_ZN16DoublyLinkedListI17ExtendedIOElementE3endEv
FN:266,_ZN16DoublyLinkedListI14DisplayElementE3endEv
FN:266,_ZN16DoublyLinkedListI9UpdatableI13PotentiometerEE3endEv
FN:266,_ZN16DoublyLinkedListI9UpdatableI10MotorFaderEE3endEv
FN:266,_ZN16DoublyLinkedListI17BankableMIDIInputILh3EEE3endEv
FN:268,_ZNK16DoublyLinkedListI8TestNodeE5beginEv
FN:269,_ZNK16DoublyLinkedListI8TestNodeE3endEv
FN:271,_ZN16DoublyLinkedListI8TestNodeE6rbeginEv
FN:272,_ZN16DoublyLinkedListI8TestNodeE4rendEv
FN:274,_ZNK16DoublyLinkedListI8TestNodeE6rbeginEv
FN:275,_ZNK16DoublyLinkedListI8TestNodeE4rendEv
FN:278,_ZNK16DoublyLinkedListI8TestNodeE8getFirstEv
FN:280,_ZNK16DoublyLinkedListI8TestNodeE7getLastEv
FN:299,_ZN14DoublyLinkableI18MIDIInputElementCCED2Ev
FN:299,_ZN14DoublyLinkableI17BankableMIDIInputILh2EEED2Ev
FN:299,_ZN14DoublyLinkableI20MIDIInputElementNoteED0Ev
FN:299,_ZN14DoublyLinkableI18MIDIInputElementPCED0Ev
FN:299,_ZN14DoublyLinkableI17BankableMIDIInputILh3EEED0Ev
FN:299,_ZN14DoublyLinkableI18MIDIInputElementCCED0Ev
FN:299,_ZN14DoublyLinkableI9UpdatableI15NormalUpdatableEED0Ev
FN:299,_ZN14DoublyLinkableI20MIDIInputElementNoteED2Ev
FN:299,_ZN14DoublyLinkableI17ExtendedIOElementED0Ev
FN:299,_ZN14DoublyLinkableI17BankableMIDIInputILh10EEED2Ev
FN:299,_ZN14DoublyLinkableI17BankableMIDIInputILh3EEED2Ev
FN:299,_ZN14DoublyLinkableI17BankableMIDIInputILh2EEED0Ev
FN:299,_ZN14DoublyLinkableI8TestNodeED0Ev
FN:299,_ZN14DoublyLinkableI17BankableMIDIInputILh10EEED0Ev
FN:299,_ZN14DoublyLinkableI17ExtendedIOElementED2Ev
FN:299,_ZN14DoublyLinkableI8TestNodeED2Ev
FN:299,_ZN14DoublyLinkableI9UpdatableI15NormalUpdatableEED2Ev
FN:299,_ZN14DoublyLinkableI31MIDIInputElementChannelPressureED0Ev
FN:299,_ZN14DoublyLinkableI18MIDIInputElementPCED2Ev
FN:299,_ZN14DoublyLinkableI31MIDIInputElementChannelPressureED2Ev
FNDA:0,_ZN14DoublyLinkableI8TestNodeED0Ev
FNDA:8,_ZN16DoublyLinkedListI17BankableMIDIInputILh2EEE3endEv
FNDA:0,_ZN14DoublyLinkableI17BankableMIDIInputILh2EEED0Ev
FNDA:27,_ZN16DoublyLinkedListI8TestNodeE12insertBeforeEPS0_S2_
FNDA:8,_ZN16DoublyLinkedListI17BankableMIDIInputILh2EEE5beginEv
FNDA:88,_ZN16DoublyLinkedListI8TestNodeE6appendEPS0_
FNDA:5,_ZN16DoublyLinkedListI17BankableMIDIInputILh10EEE5beginEv
FNDA:16,_ZNK16DoublyLinkedListI17BankableMIDIInputILh2EEE18node_iterator_baseIS1_EneERKS4_
FNDA:12,_ZNK16DoublyLinkedListI20MIDIInputElementNoteE18node_iterator_baseIS0_EneERKS3_
FNDA:0,_ZN16DoublyLinkedListI18MIDIInputElementPCE5beginEv
FNDA:2,_ZN16DoublyLinkedListI8TestNodeE13node_iteratorIKS0_EC2EPS3_
FNDA:17,_ZNK16DoublyLinkedListI31MIDIInputElementChannelPressureE18node_iterator_baseIS0_EdeEv
FNDA:0,_ZN16DoublyLinkedListI14DisplayElementE18node_iterator_baseIS0_EC2EPS0_
FNDA:3,_ZN14DoublyLinkableI17BankableMIDIInputILh10EEED2Ev
FNDA:1,_ZN14DoublyLinkableI17BankableMIDIInputILh3EEED2Ev
FNDA:10,_ZN16DoublyLinkedListI17BankableMIDIInputILh10EEE13node_iteratorIS1_EC2EPS1_
FNDA:9,_ZN16DoublyLinkedListI31MIDIInputElementChannelPressureE6removeEPS0_
FNDA:10,_ZN16DoublyLinkedListI20MIDIInputElementNoteE3endEv
FNDA:17,_ZN16DoublyLinkedListI31MIDIInputElementChannelPressureE5beginEv
FNDA:0,_ZN14DoublyLinkableI17ExtendedIOElementED0Ev
FNDA:0,_ZN16DoublyLinkedListI9UpdatableI13PotentiometerEE18node_iterator_baseIS2_EC2EPS2_
FNDA:34,_ZN16DoublyLinkedListI31MIDIInputElementChannelPressureE18node_iterator_baseIS0_EC2EPS0_
FNDA:0,_ZN16DoublyLinkedListI16DisplayInterfaceE18node_iterator_baseIS0_EC2EPS0_
FNDA:112,_ZN14DoublyLinkableI8TestNodeED2Ev
FNDA:0,_ZNK16DoublyLinkedListI9UpdatableI10MotorFaderEE18node_iterator_baseIS2_EneERKS5_
FNDA:0,_ZN16DoublyLinkedListI18MIDIInputElementCCE13node_iteratorIS0_EC2EPS0_
FNDA:0,_ZN16DoublyLinkedListI14DisplayElementE3endEv
FNDA:34,_ZN16DoublyLinkedListI31MIDIInputElementChannelPressureE13node_iteratorIS0_EC2EPS0_
FNDA:27,_ZN16DoublyLinkedListI8TestNodeE12insertBeforeERS0_S2_
FNDA:2,_ZN16DoublyLinkedListI8TestNodeE21reverse_node_iteratorIS0_EC2EPS0_
FNDA:0,_ZN16DoublyLinkedListI14DisplayElementE5beginEv
FNDA:31,_ZN16DoublyLinkedListI9UpdatableI15NormalUpdatableEE6removeEPS2_
FNDA:3,_ZN16DoublyLinkedListI17BankableMIDIInputILh2EEE6appendEPS1_
FNDA:12,_ZNK16DoublyLinkedListI8TestNodeE7getLastEv
FNDA:10,_ZNK16DoublyLinkedListI17BankableMIDIInputILh10EEE18node_iterator_baseIS1_EneERKS4_
FNDA:20,_ZN16DoublyLinkedListI20MIDIInputElementNoteE13node_iteratorIS0_EC2EPS0_
FNDA:199,_ZNK16DoublyLinkedListI8TestNodeE18node_iterator_baseIS0_EdeEv
FNDA:9,_ZN16DoublyLinkedListI31MIDIInputElementChannelPressureE6appendEPS0_
FNDA:15,_ZN14DoublyLinkableI17ExtendedIOElementED2Ev
FNDA:22,_ZN16DoublyLinkedListI17ExtendedIOElementE3endEv
FNDA:4,_ZN16DoublyLinkedListI8TestNodeE18node_iterator_baseIKS0_EC2EPS3_
FNDA:0,_ZN14DoublyLinkableI17BankableMIDIInputILh10EEED0Ev
FNDA:0,_ZN14DoublyLinkableI18MIDIInputElementPCED2Ev
FNDA:0,_ZN16DoublyLinkedListI9UpdatableI10MotorFaderEE3endEv
FNDA:31,_ZN16DoublyLinkedListI9UpdatableI15NormalUpdatableEE12couldContainEPS2_
FNDA:0,_ZN14DoublyLinkableI31MIDIInputElementChannelPressureED0Ev
FNDA:80,_ZN16DoublyLinkedListI9UpdatableI15NormalUpdatableEE13node_iteratorIS2_EC2EPS2_
FNDA:10,_ZNK16DoublyLinkedListI20MIDIInputElementNoteE18node_iterator_baseIS0_EdeEv
FNDA:0,_ZN16DoublyLinkedListI18MIDIInputElementCCE13node_iteratorIS0_EppEv
FNDA:2,_ZN16DoublyLinkedListI17BankableMIDIInputILh3EEE13node_iteratorIS1_EppEv
FNDA:3,_ZN16DoublyLinkedListI17BankableMIDIInputILh2EEE6removeEPS1_
FNDA:4,_ZN16DoublyLinkedListI17BankableMIDIInputILh3EEE13node_iteratorIS1_EC2EPS1_
FNDA:0,_ZN16DoublyLinkedListI16DisplayInterfaceE5beginEv
FNDA:4,_ZNK16DoublyLinkedListI17BankableMIDIInputILh3EEE18node_iterator_baseIS1_EneERKS4_
FNDA:3,_ZN16DoublyLinkedListI17BankableMIDIInputILh10EEE6removeEPS1_
FNDA:0,_ZN16DoublyLinkedListI9UpdatableI13PotentiometerEE3endEv
FNDA:10,_ZN16DoublyLinkedListI20MIDIInputElementNoteE5beginEv
FNDA:2,_ZN16DoublyLinkedListI31MIDIInputElementChannelPressureE13node_iteratorIS0_EppEv
FNDA:20,_ZN16DoublyLinkedListI20MIDIInputElementNoteE18node_iterator_baseIS0_EC2EPS0_
FNDA:22,_ZN16DoublyLinkedListI17ExtendedIOElementE5beginEv
FNDA:3,_ZN16DoublyLinkedListI17BankableMIDIInputILh10EEE6appendEPS1_
FNDA:0,_ZN16DoublyLinkedListI18MIDIInputElementPCE6appendEPS0_
FNDA:10,_ZNK16DoublyLinkedListI8TestNodeE18node_iterator_baseIKS0_EdeEv
FNDA:31,_ZN14DoublyLinkableI9UpdatableI15NormalUpdatableEED2Ev
FNDA:0,_ZN16DoublyLinkedListI9UpdatableI10MotorFaderEE5beginEv
FNDA:74,_ZZN16DoublyLinkedListI8TestNodeE12insertSortedEPS0_ENKUlRS0_S3_E_clES3_S3_
FNDA:6,_ZN16DoublyLinkedListI8TestNodeE6removeEPS0_
FNDA:0,_ZN16DoublyLinkedListI18MIDIInputElementCCE5beginEv
FNDA:0,_ZN16DoublyLinkedListI18MIDIInputElementPCE13node_iteratorIS0_EppEv
FNDA:10,_ZN16DoublyLinkedListI17BankableMIDIInputILh10EEE18node_iterator_baseIS1_EC2EPS1_
FNDA:5,_ZN16DoublyLinkedListI20MIDIInputElementNoteE6appendEPS0_
FNDA:0,_ZNK16DoublyLinkedListI18MIDIInputElementCCE18node_iterator_baseIS0_EneERKS3_
FNDA:2,_ZNK16DoublyLinkedListI17BankableMIDIInputILh3EEE18node_iterator_baseIS1_EdeEv
FNDA:19,_ZNK16DoublyLinkedListI31MIDIInputElementChannelPressureE18node_iterator_baseIS0_EneERKS3_
FNDA:2,_ZN16DoublyLinkedListI17BankableMIDIInputILh3EEE3endEv
FNDA:0,_ZNK16DoublyLinkedListI9UpdatableI7DisplayEE18node_iterator_baseIS2_EdeEv
FNDA:31,_ZN16DoublyLinkedListI9UpdatableI15NormalUpdatableEE6appendEPS2_
FNDA:9,_ZN14DoublyLinkableI31MIDIInputElementChannelPressureED2Ev
FNDA:8,_ZNK16DoublyLinkedListI17BankableMIDIInputILh2EEE18node_iterator_baseIS1_EdeEv
FNDA:15,_ZN16DoublyLinkedListI31MIDIInputElementChannelPressureE8moveDownEPS0_
FNDA:14,_ZN16DoublyLinkedListI17ExtendedIOElementE6appendEPS0_
FNDA:0,_ZN16DoublyLinkedListI18MIDIInputElementPCE8moveDownEPS0_
FNDA:40,_ZNK16DoublyLinkedListI9UpdatableI15NormalUpdatableEE18node_iterator_baseIS2_EdeEv
FNDA:0,_ZNK16DoublyLinkedListI16DisplayInterfaceE18node_iterator_baseIS0_EneERKS3_
FNDA:0,_ZNK16DoublyLinkedListI18MIDIInputElementPCE18node_iterator_baseIS0_EdeEv
FNDA:0,_ZN16DoublyLinkedListI16DisplayInterfaceE3endEv
FNDA:0,_ZN16DoublyLinkedListI9UpdatableI7DisplayEE3endEv
FNDA:22,_ZN16DoublyLinkedListI8TestNodeE12insertSortedIZNS1_12insertSortedEPS0_EUlRS0_S4_E_EEvS3_T_
FNDA:3,_ZN14DoublyLinkableI17BankableMIDIInputILh2EEED2Ev
FNDA:44,_ZN16DoublyLinkedListI17ExtendedIOElementE18node_iterator_baseIS0_EC2EPS0_
FNDA:8,_ZN16DoublyLinkedListI20MIDIInputElementNoteE8moveDownEPS0_
FNDA:0,_ZN16DoublyLinkedListI18MIDIInputElementPCE3endEv
FNDA:1,_ZNK16DoublyLinkedListI8TestNodeE5beginEv
FNDA:13,_ZN14DoublyLinkableI18MIDIInputElementCCED2Ev
FNDA:1,_ZN16DoublyLinkedListI17BankableMIDIInputILh3EEE6removeEPS1_
FNDA:1,_ZN16DoublyLinkedListI17BankableMIDIInputILh3EEE6appendEPS1_
FNDA:0,_ZNK16DoublyLinkedListI9UpdatableI10MotorFaderEE18node_iterator_baseIS2_EdeEv
FNDA:5,_ZN16DoublyLinkedListI20MIDIInputElementNoteE6removeEPS0_
FNDA:28,_ZN16DoublyLinkedListI8TestNodeE6appendERS0_
FNDA:0,_ZNK16DoublyLinkedListI9UpdatableI13PotentiometerEE18node_iterator_baseIS2_EneERKS5_
FNDA:80,_ZN16DoublyLinkedListI9UpdatableI15NormalUpdatableEE18node_iterator_baseIS2_EC2EPS2_
FNDA:2,_ZN16DoublyLinkedListI17BankableMIDIInputILh3EEE5beginEv
FNDA:0,_ZNK16DoublyLinkedListI18MIDIInputElementCCE18node_iterator_baseIS0_EdeEv
FNDA:5,_ZNK16DoublyLinkedListI17BankableMIDIInputILh10EEE18node_iterator_baseIS1_EdeEv
FNDA:5,_ZN16DoublyLinkedListI8TestNodeE21reverse_node_iteratorIS0_EppEv
FNDA:0,_ZN16DoublyLinkedListI14DisplayElementE13node_iteratorIS0_EppEv
FNDA:1,_ZN16DoublyLinkedListI8TestNodeE6rbeginEv
FNDA:14,_ZN16DoublyLinkedListI17ExtendedIOElementE6removeEPS0_
FNDA:0,_ZNK16DoublyLinkedListI9UpdatableI7DisplayEE18node_iterator_baseIS2_EneERKS5_
FNDA:5,_ZN16DoublyLinkedListI17BankableMIDIInputILh10EEE13node_iteratorIS1_EppEv
FNDA:0,_ZN16DoublyLinkedListI16DisplayInterfaceE13node_iteratorIS0_EC2EPS0_
FNDA:22,_ZN16DoublyLinkedListI8TestNodeE12insertSortedEPS0_
FNDA:0,_ZN16DoublyLinkedListI9UpdatableI13PotentiometerEE13node_iteratorIS2_EC2EPS2_
FNDA:17,_ZN16DoublyLinkedListI31MIDIInputElementChannelPressureE3endEv
FNDA:0,_ZN16DoublyLinkedListI9UpdatableI10MotorFaderEE18node_iterator_baseIS2_EC2EPS2_
FNDA:10,_ZN16DoublyLinkedListI17ExtendedIOElementE13node_iteratorIS0_EppEv
FNDA:2,_ZN16DoublyLinkedListI8TestNodeE21reverse_node_iteratorIKS0_EC2EPS3_
FNDA:12,_ZNK16DoublyLinkedListI8TestNodeE18node_iterator_baseIKS0_EneERKS4_
FNDA:39,_ZN16DoublyLinkedListI8TestNodeE5beginEv
FNDA:1,_ZN16DoublyLinkedListI8TestNodeE4rendEv
FNDA:0,_ZN14DoublyLinkableI20MIDIInputElementNoteED0Ev
FNDA:0,_ZNK16DoublyLinkedListI9UpdatableI13PotentiometerEE18node_iterator_baseIS2_EdeEv
FNDA:0,_ZN16DoublyLinkedListI9UpdatableI10MotorFaderEE13node_iteratorIS2_EppEv
FNDA:0,_ZN16DoublyLinkedListI16DisplayInterfaceE13node_iteratorIS0_EppEv
FNDA:39,_ZN16DoublyLinkedListI8TestNodeE3endEv
FNDA:0,_ZN16DoublyLinkedListI18MIDIInputElementPCE6removeEPS0_
FNDA:4,_ZN16DoublyLinkedListI17BankableMIDIInputILh3EEE18node_iterator_baseIS1_EC2EPS1_
FNDA:0,_ZN14DoublyLinkableI18MIDIInputElementCCED0Ev
FNDA:8,_ZN16DoublyLinkedListI17BankableMIDIInputILh2EEE13node_iteratorIS1_EppEv
FNDA:0,_ZNK16DoublyLinkedListI16DisplayInterfaceE18node_iterator_baseIS0_EdeEv
FNDA:0,_ZN16DoublyLinkedListI9UpdatableI13PotentiometerEE13node_iteratorIS2_EppEv
FNDA:0,_ZNK16DoublyLinkedListI14DisplayElementE18node_iterator_baseIS0_EneERKS3_
FNDA:40,_ZN16DoublyLinkedListI9UpdatableI15NormalUpdatableEE3endEv
FNDA:2,_ZN16DoublyLinkedListI20MIDIInputElementNoteE13node_iteratorIS0_EppEv
FNDA:16,_ZN16DoublyLinkedListI17BankableMIDIInputILh2EEE18node_iterator_baseIS1_EC2EPS1_
FNDA:0,_ZN16DoublyLinkedListI9UpdatableI7DisplayEE18node_iterator_baseIS2_EC2EPS2_
FNDA:0,_ZN14DoublyLinkableI17BankableMIDIInputILh3EEED0Ev
FNDA:67,_ZN16DoublyLinkedListI18MIDIInputElementCCE8moveDownEPS0_
FNDA:0,_ZN16DoublyLinkedListI18MIDIInputElementCCE3endEv
FNDA:80,_ZN16DoublyLinkedListI8TestNodeE18node_iterator_baseIS0_EC2EPS0_
FNDA:0,_ZNK16DoublyLinkedListI14DisplayElementE18node_iterator_baseIS0_EdeEv
FNDA:144,_ZN16DoublyLinkedListI8TestNodeE13node_iteratorIS0_EppEv
FNDA:78,_ZN16DoublyLinkedListI8TestNodeE13node_iteratorIS0_EC2EPS0_
FNDA:0,_ZN16DoublyLinkedListI9UpdatableI13PotentiometerEE5beginEv
FNDA:0,_ZNK16DoublyLinkedListI18MIDIInputElementPCE18node_iterator_baseIS0_EneERKS3_
FNDA:0,_ZN14DoublyLinkableI18MIDIInputElementPCED0Ev
FNDA:13,_ZNK16DoublyLinkedListI8TestNodeE8getFirstEv
FNDA:1,_ZNK16DoublyLinkedListI8TestNodeE6rbeginEv
FNDA:13,_ZN16DoublyLinkedListI8TestNodeE12insertSortedIZN45DoublyLinkedList_insertSortedGreaterThan_Test8TestBodyEvEUlRS0_S4_E_EEvPS0_T_
FNDA:0,_ZN16DoublyLinkedListI18MIDIInputElementCCE18node_iterator_baseIS0_EC2EPS0_
FNDA:0,_ZN16DoublyLinkedListI9UpdatableI10MotorFaderEE13node_iteratorIS2_EC2EPS2_
FNDA:5,_ZN16DoublyLinkedListI8TestNodeE8moveDownEPS0_
FNDA:25,_ZNK16DoublyLinkedListI17ExtendedIOElementE18node_iterator_baseIS0_EdeEv
FNDA:1,_ZNK16DoublyLinkedListI8TestNodeE4rendEv
FNDA:5,_ZN16DoublyLinkedListI17BankableMIDIInputILh10EEE3endEv
FNDA:5,_ZN16DoublyLinkedListI8TestNodeE21reverse_node_iteratorIKS0_EppEv
FNDA:0,_ZN16DoublyLinkedListI9UpdatableI7DisplayEE13node_iteratorIS2_EC2EPS2_
FNDA:40,_ZN16DoublyLinkedListI9UpdatableI15NormalUpdatableEE5beginEv
FNDA:5,_ZN16DoublyLinkedListI8TestNodeE13node_iteratorIKS0_EppEv
FNDA:0,_ZN16DoublyLinkedListI18MIDIInputElementPCE13node_iteratorIS0_EC2EPS0_
FNDA:15,_ZN16DoublyLinkedListI8TestNodeE12couldContainEPS0_
FNDA:0,_ZN16DoublyLinkedListI18MIDIInputElementPCE18node_iterator_baseIS0_EC2EPS0_
FNDA:44,_ZN16DoublyLinkedListI17ExtendedIOElementE13node_iteratorIS0_EC2EPS0_
FNDA:13,_ZN16DoublyLinkedListI18MIDIInputElementCCE6appendEPS0_
FNDA:0,_ZN16DoublyLinkedListI14DisplayElementE13node_iteratorIS0_EC2EPS0_
FNDA:5,_ZN14DoublyLinkableI20MIDIInputElementNoteED2Ev
FNDA:40,_ZN16DoublyLinkedListI9UpdatableI15NormalUpdatableEE13node_iteratorIS2_EppEv
FNDA:13,_ZN16DoublyLinkedListI18MIDIInputElementCCE6removeEPS0_
FNDA:0,_ZN16DoublyLinkedListI9UpdatableI7DisplayEE5beginEv
FNDA:1,_ZNK16DoublyLinkedListI8TestNodeE3endEv
FNDA:80,_ZNK16DoublyLinkedListI9UpdatableI15NormalUpdatableEE18node_iterator_baseIS2_EneERKS5_
FNDA:189,_ZNK16DoublyLinkedListI8TestNodeE18node_iterator_baseIS0_EneERKS3_
FNDA:0,_ZN14DoublyLinkableI9UpdatableI15NormalUpdatableEED0Ev
FNDA:32,_ZNK16DoublyLinkedListI17ExtendedIOElementE18node_iterator_baseIS0_EneERKS3_
FNDA:0,_ZN16DoublyLinkedListI9UpdatableI7DisplayEE13node_iteratorIS2_EppEv
FNDA:16,_ZN16DoublyLinkedListI17BankableMIDIInputILh2EEE13node_iteratorIS1_EC2EPS1_
FNF:176
FNH:113
DA:25,292
DA:27,374
DA:28,374
DA:31,316
DA:33,316
DA:44,288
DA:55,218
DA:57,218
DA:58,218
DA:73,4
DA:84,10
DA:86,10
DA:87,10
DA:109,167
DA:110,167
DA:111,96
DA:112,167
DA:113,167
DA:114,71
DA:115,167
DA:116,167
DA:117,167
DA:125,28
DA:136,27
DA:137,27
DA:138,7
DA:140,20
DA:141,27
DA:142,27
DA:143,27
DA:144,27
DA:147,27
DA:148,27
DA:149,27
DA:162,35
DA:163,35
DA:164,35
DA:165,139
DA:166,129
DA:167,25
DA:168,25
DA:170,104
DA:172,10
DA:182,22
DA:183,96
DA:184,22
DA:192,85
DA:193,85
DA:194,9
DA:195,85
DA:196,81
DA:197,85
DA:198,4
DA:199,85
DA:200,76
DA:201,85
DA:202,85
DA:203,85
DA:224,95
DA:225,95
DA:226,95
DA:227,92
DA:228,3
DA:229,3
DA:231,3
DA:232,2
DA:234,1
DA:235,3
DA:236,3
DA:237,3
DA:238,3
DA:239,3
DA:240,2
DA:242,1
DA:260,46
DA:261,57
DA:262,57
DA:265,143
DA:266,143
DA:268,1
DA:269,1
DA:271,1
DA:272,1
DA:274,1
DA:275,1
DA:278,13
DA:280,12
DA:299,192
LF:88
LH:88
end_of_record
TN:
SF:/home/pieter/GitHub/Control-Surface/src/Helpers/MillisTimer.hpp
FN:10,_ZN5TimerIXadL_Z6microsvEEEC2Em
FN:11,_ZN5TimerIXadL_Z6microsvEEE5beginEv
FN:12,_ZN5TimerIXadL_Z6microsvEEEcvbEv
FNDA:2,_ZN5TimerIXadL_Z6microsvEEEC2Em
FNDA:0,_ZN5TimerIXadL_Z6microsvEEEcvbEv
FNDA:0,_ZN5TimerIXadL_Z6microsvEEE5beginEv
FNF:3
FNH:1
DA:10,2
DA:11,0
DA:12,0
DA:13,0
DA:14,0
DA:15,0
DA:17,0
LF:7
LH:1
end_of_record
TN:
SF:/home/pieter/GitHub/Control-Surface/src/Helpers/Updatable.hpp
FN:21,_ZN9UpdatableI15NormalUpdatableEC2Ev
FN:25,_ZN9UpdatableI15NormalUpdatableED2Ev
FN:25,_ZN9UpdatableI15NormalUpdatableED0Ev
FN:62,_ZN9UpdatableI15NormalUpdatableE9isEnabledEv
FN:66,_ZN9UpdatableI15NormalUpdatableE8beginAllEv
FN:66,_ZN9UpdatableI13PotentiometerE8beginAllEv
FN:66,_ZN9UpdatableI7DisplayE8beginAllEv
FN:66,_ZN9UpdatableI10MotorFaderE8beginAllEv
FN:73,_ZN9UpdatableI13PotentiometerE9updateAllEv
FN:73,_ZN9UpdatableI15NormalUpdatableE9updateAllEv
FNDA:31,_ZN9UpdatableI15NormalUpdatableED2Ev
FNDA:31,_ZN9UpdatableI15NormalUpdatableE9isEnabledEv
FNDA:0,_ZN9UpdatableI13PotentiometerE9updateAllEv
FNDA:8,_ZN9UpdatableI15NormalUpdatableE8beginAllEv
FNDA:0,_ZN9UpdatableI13PotentiometerE8beginAllEv
FNDA:0,_ZN9UpdatableI15NormalUpdatableED0Ev
FNDA:32,_ZN9UpdatableI15NormalUpdatableE9updateAllEv
FNDA:0,_ZN9UpdatableI10MotorFaderE8beginAllEv
FNDA:0,_ZN9UpdatableI7DisplayE8beginAllEv
FNDA:31,_ZN9UpdatableI15NormalUpdatableEC2Ev
FNF:10
FNH:5
DA:21,31
DA:25,31
DA:26,31
DA:27,31
DA:28,62
DA:62,31
DA:66,8
DA:67,16
DA:68,8
DA:69,8
DA:73,32
DA:74,64
DA:75,32
DA:76,32
LF:14
LH:14
end_of_record
TN:
SF:/home/pieter/GitHub/Control-Surface/src/Helpers/unique_ptr.hpp
FN:12,_ZN10unique_ptrI9TestClassEC2EPS0_
FN:14,_ZN10unique_ptrI9TestClassED2Ev
FN:16,_ZN10unique_ptrI9TestClassEaSEOS1_
FN:21,_ZN10unique_ptrI9TestClassE5resetEPS0_
FN:27,_ZN10unique_ptrI9TestClassE7releaseEv
FN:38,_ZN10unique_ptrI9TestClassEptEv
FNDA:5,_ZN10unique_ptrI9TestClassEC2EPS0_
FNDA:3,_ZN10unique_ptrI9TestClassE5resetEPS0_
FNDA:5,_ZN10unique_ptrI9TestClassED2Ev
FNDA:2,_ZN10unique_ptrI9TestClassE7releaseEv
FNDA:1,_ZN10unique_ptrI9TestClassEaSEOS1_
FNDA:1,_ZN10unique_ptrI9TestClassEptEv
FNF:6
FNH:6
DA:12,5
DA:14,5
DA:16,1
DA:17,1
DA:18,1
DA:21,3
DA:22,3
DA:23,3
DA:24,3
DA:25,3
DA:27,2
DA:28,2
DA:29,2
DA:30,2
DA:38,1
LF:15
LH:15
end_of_record
TN:
SF:/home/pieter/GitHub/Control-Surface/src/MIDI_Constants/Chords/Chords.hpp
FN:8,_ZN6IChordD0Ev
FN:8,_ZN6IChordD2Ev
FN:16,_ZN5ChordILh3EEC2ERK5ArrayIaLm3EE
FN:16,_ZN5ChordILh2EEC2ERK5ArrayIaLm2EE
FN:16,_ZN5ChordILh1EEC2ERK5ArrayIaLm1EE
FN:17,_ZNK5ChordILh3EE5beginEv
FN:17,_ZNK5ChordILh2EE5beginEv
FN:17,_ZNK5ChordILh1EE5beginEv
FN:18,_ZNK5ChordILh3EE3endEv
FN:18,_ZNK5ChordILh1EE3endEv
FN:18,_ZNK5ChordILh2EE3endEv
FNDA:0,_ZN5ChordILh2EEC2ERK5ArrayIaLm2EE
FNDA:0,_ZNK5ChordILh1EE3endEv
FNDA:0,_ZNK5ChordILh3EE3endEv
FNDA:0,_ZN6IChordD2Ev
FNDA:0,_ZNK5ChordILh3EE5beginEv
FNDA:0,_ZN6IChordD0Ev
FNDA:0,_ZN5ChordILh3EEC2ERK5ArrayIaLm3EE
FNDA:0,_ZNK5ChordILh2EE3endEv
FNDA:0,_ZNK5ChordILh2EE5beginEv
FNDA:0,_ZNK5ChordILh1EE5beginEv
FNDA:0,_ZN5ChordILh1EEC2ERK5ArrayIaLm1EE
FNF:11
FNH:0
DA:8,0
DA:16,0
DA:17,0
DA:18,0
LF:4
LH:0
end_of_record
TN:
SF:/home/pieter/GitHub/Control-Surface/src/MIDI_Inputs/LEDs/MCU/VULEDs.hpp
FN:11,_ZN3MCU11VULEDs_BaseILh2EEC2ERK17DotBarDisplayLEDsILh2EE
FN:14,_ZN3MCU11VULEDs_BaseILh2EE5beginEv
FN:16,_ZNK3MCU11VULEDs_BaseILh2EE7displayEv
FN:57,_ZN3MCU8Bankable6VULEDsILh2ELh2EEC1ERK10BankConfigILh2EERK17DotBarDisplayLEDsILh2EERK20MIDICNChannelAddressj
FN:63,_ZNK3MCU8Bankable6VULEDsILh2ELh2EE19onBankSettingChangeEv
FNDA:1,_ZN3MCU8Bankable6VULEDsILh2ELh2EEC1ERK10BankConfigILh2EERK17DotBarDisplayLEDsILh2EERK20MIDICNChannelAddressj
FNDA:2,_ZNK3MCU8Bankable6VULEDsILh2ELh2EE19onBankSettingChangeEv
FNDA:1,_ZN3MCU11VULEDs_BaseILh2EEC2ERK17DotBarDisplayLEDsILh2EE
FNDA:1,_ZN3MCU11VULEDs_BaseILh2EE5beginEv
FNDA:4,_ZNK3MCU11VULEDs_BaseILh2EE7displayEv
FNF:5
FNH:5
DA:11,1
DA:14,1
DA:16,4
DA:17,4
DA:18,4
DA:19,4
DA:20,4
DA:57,1
DA:60,1
DA:63,2
LF:10
LH:10
end_of_record
TN:
SF:/home/pieter/GitHub/Control-Surface/src/MIDI_Inputs/LEDs/MIDINoteLED.hpp
FN:9,_ZN16MIDINoteLED_BaseC2Et
FN:12,_ZN16MIDINoteLED_Base5beginEv
FN:15,_ZNK16MIDINoteLED_Base7displayEv
FN:35,_ZN11MIDINoteLEDC1EtRK20MIDICNChannelAddress
FNDA:1,_ZN16MIDINoteLED_BaseC2Et
FNDA:2,_ZNK16MIDINoteLED_Base7displayEv
FNDA:1,_ZN16MIDINoteLED_Base5beginEv
FNDA:1,_ZN11MIDINoteLEDC1EtRK20MIDICNChannelAddress
FNF:4
FNH:4
DA:9,1
DA:12,1
DA:15,2
DA:35,1
DA:36,1
LF:5
LH:5
end_of_record
TN:
SF:/home/pieter/GitHub/Control-Surface/src/MIDI_Inputs/MCU/SevenSegmentDisplay.hpp
FN:16,_ZN3MCU19SevenSegmentDisplayILh10EEC2ERK20MIDICNChannelAddress
FN:21,_ZN3MCU19SevenSegmentDisplayILh10EE5resetEv
FN:30,_ZN3MCU19SevenSegmentDisplayILh10EE10updateImplERK20MIDI_message_matcherRK20MIDICNChannelAddress
FN:47,_ZNK3MCU19SevenSegmentDisplayILh10EE5matchERK20MIDICNChannelAddress
FN:61,_ZNK3MCU19SevenSegmentDisplayILh10EE7getTextEPchh
FN:76,_ZNK3MCU19SevenSegmentDisplayILh10EE14getCharacterAtEh
FN:96,_ZNK3MCU19SevenSegmentDisplayILh10EE17getDecimalPointAtEh
FN:103,_ZNK3MCU19SevenSegmentDisplayILh10EE7printToER5Print
FNDA:13,_ZN3MCU19SevenSegmentDisplayILh10EE5resetEv
FNDA:0,_ZNK3MCU19SevenSegmentDisplayILh10EE17getDecimalPointAtEh
FNDA:67,_ZN3MCU19SevenSegmentDisplayILh10EE10updateImplERK20MIDI_message_matcherRK20MIDICNChannelAddress
FNDA:176,_ZNK3MCU19SevenSegmentDisplayILh10EE14getCharacterAtEh
FNDA:13,_ZN3MCU19SevenSegmentDisplayILh10EEC2ERK20MIDICNChannelAddress
FNDA:67,_ZNK3MCU19SevenSegmentDisplayILh10EE5matchERK20MIDICNChannelAddress
FNDA:30,_ZNK3MCU19SevenSegmentDisplayILh10EE7getTextEPchh
FNDA:0,_ZNK3MCU19SevenSegmentDisplayILh10EE7printToER5Print
FNF:8
FNH:6
DA:16,13
DA:17,13
DA:18,13
DA:19,13
DA:21,13
DA:22,143
DA:23,130
DA:24,13
DA:30,67
DA:32,67
DA:33,67
DA:35,67
DA:36,67
DA:37,67
DA:38,67
DA:39,67
DA:40,67
DA:47,67
DA:48,67
DA:49,67
DA:61,30
DA:63,30
DA:64,1
DA:65,30
DA:66,4
DA:67,172
DA:68,142
DA:69,30
DA:70,30
DA:76,176
DA:77,176
DA:96,0
DA:97,0
DA:103,0
DA:104,0
DA:105,0
DA:106,0
DA:107,0
DA:108,0
DA:110,0
LF:40
LH:31
end_of_record
TN:
SF:/home/pieter/GitHub/Control-Surface/src/MIDI_Inputs/MCU/TimeDisplay.hpp
FN:12,_ZN3MCU11TimeDisplayC2E7Channel
FN:24,_ZNK3MCU11TimeDisplay7getBarsEPc
FN:33,_ZNK3MCU11TimeDisplay8getBeatsEPc
FN:42,_ZNK3MCU11TimeDisplay9getFramesEPc
FNDA:6,_ZNK3MCU11TimeDisplay7getBarsEPc
FNDA:6,_ZNK3MCU11TimeDisplay8getBeatsEPc
FNDA:13,_ZN3MCU11TimeDisplayC2E7Channel
FNDA:6,_ZNK3MCU11TimeDisplay9getFramesEPc
FNF:4
FNH:4
DA:12,13
DA:13,13
DA:14,13
DA:24,6
DA:25,6
DA:26,4
DA:27,2
DA:28,1
DA:30,1
DA:32,6
DA:33,6
DA:34,6
DA:35,4
DA:36,2
DA:37,1
DA:39,1
DA:41,6
DA:42,6
DA:43,6
DA:44,4
DA:45,2
DA:46,1
DA:48,1
DA:50,6
LF:24
LH:24
end_of_record
TN:
SF:/home/pieter/GitHub/Control-Surface/src/MIDI_Inputs/MCU/VU.hpp
FN:18,_ZN3IVUC2Eh
FN:40,_ZN3MCU7VU_BaseC2ERK20MIDICNChannelAddressj
FN:45,_ZNK3MCU7VU_Base8getValueEv
FN:47,_ZNK3MCU7VU_Base11getOverloadEv
FN:57,_ZN3MCU7VU_Base6updateEv
FN:66,_ZNK3MCU7VU_Base9getTargetERK20MIDI_message_matcher
FN:86,_ZN3MCU7VU_Base14setValueHelperEhh
FN:94,_ZN3MCU7VU_Base17setOverloadHelperEh
FN:100,_ZN3MCU7VU_Base19clearOverloadHelperEh
FN:104,_ZN3MCU7VU_Base14getValueHelperEh
FN:108,_ZN3MCU7VU_Base17getOverloadHelperEh
FN:138,_ZN3MCU2VUC1ERK20MIDICNChannelAddressj
FN:141,_ZN3MCU2VU10updateImplERK20MIDI_message_matcherRK20MIDICNChannelAddress
FN:153,_ZN3MCU2VU5resetEv
FN:156,_ZN3MCU2VU8decayAllEv
FN:161,_ZNK3MCU2VU11getRawValueEv
FN:163,_ZN3MCU2VU8setValueEh
FN:164,_ZN3MCU2VU11setOverloadEv
FN:165,_ZN3MCU2VU13clearOverloadEv
FN:203,_ZN3MCU8Bankable2VUILm2EEC2ERK10BankConfigILh2EERK20MIDICNChannelAddressj
FN:203,_ZN3MCU8Bankable2VUILm2EEC1ERK10BankConfigILh2EERK20MIDICNChannelAddressj
FN:203,_ZN3MCU8Bankable2VUILm3EEC1ERK10BankConfigILh3EERK20MIDICNChannelAddressj
FN:207,_ZN3MCU8Bankable2VUILm3EE10updateImplERK20MIDI_message_matcherRK20MIDICNChannelAddress
FN:207,_ZN3MCU8Bankable2VUILm2EE10updateImplERK20MIDI_message_matcherRK20MIDICNChannelAddress
FN:221,_ZNK3MCU8Bankable2VUILm3EE5matchERK20MIDICNChannelAddress
FN:221,_ZNK3MCU8Bankable2VUILm2EE5matchERK20MIDICNChannelAddress
FN:225,_ZN3MCU8Bankable2VUILm3EE5resetEv
FN:225,_ZN3MCU8Bankable2VUILm2EE5resetEv
FN:231,_ZN3MCU8Bankable2VUILm3EE8decayAllEv
FN:231,_ZN3MCU8Bankable2VUILm2EE8decayAllEv
FN:237,_ZNK3MCU8Bankable2VUILm3EE11getRawValueEv
FN:237,_ZNK3MCU8Bankable2VUILm2EE11getRawValueEv
FN:241,_ZN3MCU8Bankable2VUILm3EE8setValueEhh
FN:241,_ZN3MCU8Bankable2VUILm2EE8setValueEhh
FN:244,_ZN3MCU8Bankable2VUILm3EE11setOverloadEh
FN:244,_ZN3MCU8Bankable2VUILm2EE11setOverloadEh
FN:247,_ZN3MCU8Bankable2VUILm2EE13clearOverloadEh
FN:247,_ZN3MCU8Bankable2VUILm3EE13clearOverloadEh
FNDA:0,_ZN3MCU8Bankable2VUILm2EE8decayAllEv
FNDA:9,_ZN3IVUC2Eh
FNDA:8,_ZN3MCU7VU_Base14setValueHelperEhh
FNDA:20,_ZN3MCU7VU_Base14getValueHelperEh
FNDA:9,_ZN3MCU7VU_Base17getOverloadHelperEh
FNDA:1,_ZN3MCU8Bankable2VUILm2EE13clearOverloadEh
FNDA:14,_ZNK3MCU8Bankable2VUILm2EE11getRawValueEv
FNDA:1,_ZN3MCU8Bankable2VUILm3EEC1ERK10BankConfigILh3EERK20MIDICNChannelAddressj
FNDA:0,_ZN3MCU8Bankable2VUILm3EE13clearOverloadEh
FNDA:3,_ZN3MCU7VU_Base19clearOverloadHelperEh
FNDA:1,_ZN3MCU8Bankable2VUILm2EE11setOverloadEh
FNDA:2,_ZN3MCU2VU13clearOverloadEv
FNDA:20,_ZNK3MCU7VU_Base8getValueEv
FNDA:5,_ZNK3MCU8Bankable2VUILm2EE5matchERK20MIDICNChannelAddress
FNDA:2,_ZNK3MCU8Bankable2VUILm3EE5matchERK20MIDICNChannelAddress
FNDA:12,_ZNK3MCU2VU11getRawValueEv
FNDA:3,_ZNK3MCU8Bankable2VUILm3EE11getRawValueEv
FNDA:8,_ZN3MCU2VU10updateImplERK20MIDI_message_matcherRK20MIDICNChannelAddress
FNDA:3,_ZN3MCU2VU11setOverloadEv
FNDA:1,_ZN3MCU7VU_Base6updateEv
FNDA:0,_ZN3MCU8Bankable2VUILm3EE8decayAllEv
FNDA:1,_ZN3MCU2VU8decayAllEv
FNDA:5,_ZN3MCU2VUC1ERK20MIDICNChannelAddressj
FNDA:15,_ZNK3MCU7VU_Base9getTargetERK20MIDI_message_matcher
FNDA:9,_ZNK3MCU7VU_Base11getOverloadEv
FNDA:0,_ZN3MCU8Bankable2VUILm3EE5resetEv
FNDA:1,_ZN3MCU8Bankable2VUILm2EEC2ERK10BankConfigILh2EERK20MIDICNChannelAddressj
FNDA:2,_ZN3MCU8Bankable2VUILm3EE10updateImplERK20MIDI_message_matcherRK20MIDICNChannelAddress
FNDA:2,_ZN3MCU8Bankable2VUILm3EE8setValueEhh
FNDA:9,_ZN3MCU7VU_BaseC2ERK20MIDICNChannelAddressj
FNDA:0,_ZN3MCU8Bankable2VUILm3EE11setOverloadEh
FNDA:4,_ZN3MCU7VU_Base17setOverloadHelperEh
FNDA:2,_ZN3MCU8Bankable2VUILm2EEC1ERK10BankConfigILh2EERK20MIDICNChannelAddressj
FNDA:0,_ZN3MCU2VU5resetEv
FNDA:0,_ZN3MCU8Bankable2VUILm2EE5resetEv
FNDA:3,_ZN3MCU2VU8setValueEh
FNDA:5,_ZN3MCU8Bankable2VUILm2EE10updateImplERK20MIDI_message_matcherRK20MIDICNChannelAddress
FNDA:3,_ZN3MCU8Bankable2VUILm2EE8setValueEhh
FNF:38
FNH:31
DA:18,9
DA:40,9
DA:41,9
DA:42,18
DA:45,20
DA:47,9
DA:48,9
DA:57,1
DA:58,1
DA:59,1
DA:60,1
DA:61,1
DA:63,1
DA:66,15
DA:68,15
DA:69,15
DA:70,15
DA:71,15
DA:86,8
DA:87,8
DA:88,8
DA:89,8
DA:94,4
DA:95,4
DA:100,3
DA:101,3
DA:104,20
DA:105,20
DA:108,9
DA:109,9
DA:138,5
DA:139,5
DA:141,8
DA:143,8
DA:144,8
DA:145,2
DA:146,3
DA:147,0
DA:148,3
DA:150,8
DA:153,0
DA:156,1
DA:157,1
DA:158,1
DA:159,1
DA:161,12
DA:163,3
DA:164,3
DA:165,2
DA:203,4
DA:205,4
DA:207,7
DA:209,7
DA:210,7
DA:211,7
DA:212,7
DA:213,1
DA:214,1
DA:215,0
DA:216,5
DA:218,7
DA:221,7
DA:222,7
DA:225,0
DA:226,0
DA:227,0
DA:228,0
DA:231,0
DA:232,0
DA:233,0
DA:234,0
DA:235,0
DA:237,17
DA:238,17
DA:241,5
DA:242,5
DA:243,5
DA:244,1
DA:245,1
DA:246,1
DA:247,1
DA:248,1
DA:249,1
LF:83
LH:71
end_of_record
TN:
SF:/home/pieter/GitHub/Control-Surface/src/MIDI_Inputs/MIDIInputElement.hpp
FN:22,_ZN16MIDIInputElementC2ERK20MIDICNChannelAddress
FN:25,_ZN16MIDIInputElementD0Ev
FN:25,_ZN16MIDIInputElementD2Ev
FN:28,_ZN16MIDIInputElement5beginEv
FN:31,_ZNK16MIDIInputElement7displayEv
FN:37,_ZN16MIDIInputElement6updateEv
FN:40,_ZN16MIDIInputElement10updateWithERK20MIDI_message_matcher
FN:66,_ZNK16MIDIInputElement9getTargetERK20MIDI_message_matcher
FN:76,_ZNK16MIDIInputElement5matchERK20MIDICNChannelAddress
FNDA:0,_ZN16MIDIInputElement6updateEv
FNDA:87,_ZNK16MIDIInputElement7displayEv
FNDA:16,_ZNK16MIDIInputElement5matchERK20MIDICNChannelAddress
FNDA:90,_ZN16MIDIInputElement10updateWithERK20MIDI_message_matcher
FNDA:0,_ZN16MIDIInputElement5beginEv
FNDA:27,_ZN16MIDIInputElementD2Ev
FNDA:0,_ZN16MIDIInputElementD0Ev
FNDA:27,_ZN16MIDIInputElementC2ERK20MIDICNChannelAddress
FNDA:75,_ZNK16MIDIInputElement9getTargetERK20MIDI_message_matcher
FNF:9
FNH:6
DA:22,27
DA:25,27
DA:28,0
DA:31,87
DA:37,0
DA:40,90
DA:42,90
DA:43,90
DA:44,0
DA:46,90
DA:47,0
DA:49,90
DA:50,90
DA:51,90
DA:66,75
DA:67,75
DA:76,16
DA:77,16
LF:18
LH:14
end_of_record
TN:
SF:/home/pieter/GitHub/Control-Surface/src/MIDI_Inputs/MIDIInputElementCC.hpp
FN:33,_ZN18MIDIInputElementCCC2ERK20MIDICNChannelAddress
FN:40,_ZN18MIDIInputElementCCD2Ev
FN:40,_ZN18MIDIInputElementCCD0Ev
FN:47,_ZN18MIDIInputElementCC8beginAllEv
FN:55,_ZN18MIDIInputElementCC9updateAllEv
FN:63,_ZN18MIDIInputElementCC8resetAllEv
FN:71,_ZN18MIDIInputElementCC13updateAllWithERK20MIDI_message_matcher
FN:81,_ZN18MIDIInputElementCC8moveDownEv
FNDA:0,_ZN18MIDIInputElementCC13updateAllWithERK20MIDI_message_matcher
FNDA:0,_ZN18MIDIInputElementCC8resetAllEv
FNDA:67,_ZN18MIDIInputElementCC8moveDownEv
FNDA:13,_ZN18MIDIInputElementCCD2Ev
FNDA:0,_ZN18MIDIInputElementCC9updateAllEv
FNDA:13,_ZN18MIDIInputElementCCC2ERK20MIDICNChannelAddress
FNDA:0,_ZN18MIDIInputElementCC8beginAllEv
FNDA:0,_ZN18MIDIInputElementCCD0Ev
FNF:8
FNH:3
DA:33,13
DA:34,13
DA:36,13
DA:37,13
DA:40,13
DA:42,13
DA:43,13
DA:47,0
DA:49,0
DA:50,0
DA:51,0
DA:55,0
DA:57,0
DA:58,0
DA:59,0
DA:63,0
DA:65,0
DA:66,0
DA:67,0
DA:71,0
DA:72,0
DA:73,0
DA:74,0
DA:81,67
DA:83,67
DA:84,67
LF:26
LH:10
end_of_record
TN:
SF:/home/pieter/GitHub/Control-Surface/src/MIDI_Inputs/MIDIInputElementChannelPressure.hpp
FN:21,_ZN31MIDIInputElementChannelPressureC2ERK20MIDICNChannelAddress
FN:31,_ZN31MIDIInputElementChannelPressureD2Ev
FN:31,_ZN31MIDIInputElementChannelPressureD0Ev
FN:36,_ZN31MIDIInputElementChannelPressure8beginAllEv
FN:48,_ZN31MIDIInputElementChannelPressure8resetAllEv
FN:57,_ZN31MIDIInputElementChannelPressure9updateAllEv
FN:69,_ZN31MIDIInputElementChannelPressure13updateAllWithERK20MIDI_message_matcher
FN:80,_ZNK31MIDIInputElementChannelPressure9getTargetERK20MIDI_message_matcher
FN:85,_ZN31MIDIInputElementChannelPressure8moveDownEv
FNDA:1,_ZN31MIDIInputElementChannelPressure8beginAllEv
FNDA:0,_ZN31MIDIInputElementChannelPressureD0Ev
FNDA:9,_ZN31MIDIInputElementChannelPressureC2ERK20MIDICNChannelAddress
FNDA:15,_ZN31MIDIInputElementChannelPressure8moveDownEv
FNDA:0,_ZN31MIDIInputElementChannelPressure8resetAllEv
FNDA:9,_ZN31MIDIInputElementChannelPressureD2Ev
FNDA:15,_ZN31MIDIInputElementChannelPressure13updateAllWithERK20MIDI_message_matcher
FNDA:0,_ZNK31MIDIInputElementChannelPressure9getTargetERK20MIDI_message_matcher
FNDA:1,_ZN31MIDIInputElementChannelPressure9updateAllEv
FNF:9
FNH:6
DA:21,9
DA:22,9
DA:24,9
DA:25,9
DA:31,9
DA:33,9
DA:34,9
DA:36,1
DA:38,2
DA:39,1
DA:40,1
DA:48,0
DA:50,0
DA:51,0
DA:52,0
DA:57,1
DA:59,2
DA:60,1
DA:61,1
DA:69,15
DA:70,15
DA:71,15
DA:72,15
DA:80,0
DA:81,0
DA:85,15
DA:87,15
DA:88,15
LF:28
LH:22
end_of_record
TN:
SF:/home/pieter/GitHub/Control-Surface/src/MIDI_Inputs/MIDIInputElementNote.hpp
FN:28,_ZN20MIDIInputElementNoteC2ERK20MIDICNChannelAddress
FN:38,_ZN20MIDIInputElementNoteD2Ev
FN:38,_ZN20MIDIInputElementNoteD0Ev
FN:48,_ZN20MIDIInputElementNote8beginAllEv
FN:59,_ZN20MIDIInputElementNote9updateAllEv
FN:70,_ZN20MIDIInputElementNote8resetAllEv
FN:82,_ZN20MIDIInputElementNote13updateAllWithERK20MIDI_message_matcher
FN:92,_ZN20MIDIInputElementNote8moveDownEv
FNDA:5,_ZN20MIDIInputElementNoteC2ERK20MIDICNChannelAddress
FNDA:0,_ZN20MIDIInputElementNote9updateAllEv
FNDA:8,_ZN20MIDIInputElementNote8moveDownEv
FNDA:8,_ZN20MIDIInputElementNote13updateAllWithERK20MIDI_message_matcher
FNDA:1,_ZN20MIDIInputElementNote8beginAllEv
FNDA:0,_ZN20MIDIInputElementNoteD0Ev
FNDA:1,_ZN20MIDIInputElementNote8resetAllEv
FNDA:5,_ZN20MIDIInputElementNoteD2Ev
FNF:8
FNH:6
DA:28,5
DA:29,5
DA:31,5
DA:32,5
DA:38,5
DA:40,5
DA:41,5
DA:48,1
DA:50,2
DA:51,1
DA:52,1
DA:59,0
DA:61,0
DA:62,0
DA:63,0
DA:70,1
DA:72,2
DA:73,1
DA:74,1
DA:82,8
DA:83,8
DA:84,8
DA:85,8
DA:92,8
DA:94,8
DA:95,8
LF:26
LH:22
end_of_record
TN:
SF:/home/pieter/GitHub/Control-Surface/src/MIDI_Inputs/MIDIInputElementPC.hpp
FN:20,_ZN18MIDIInputElementPCC2ERK20MIDICNChannelAddress
FN:30,_ZN18MIDIInputElementPCD0Ev
FN:30,_ZN18MIDIInputElementPCD2Ev
FN:35,_ZN18MIDIInputElementPC8beginAllEv
FN:68,_ZN18MIDIInputElementPC13updateAllWithERK20MIDI_message_matcher
FN:79,_ZNK18MIDIInputElementPC9getTargetERK20MIDI_message_matcher
FN:84,_ZN18MIDIInputElementPC8moveDownEv
FNDA:0,_ZN18MIDIInputElementPCC2ERK20MIDICNChannelAddress
FNDA:0,_ZN18MIDIInputElementPCD0Ev
FNDA:0,_ZNK18MIDIInputElementPC9getTargetERK20MIDI_message_matcher
FNDA:0,_ZN18MIDIInputElementPC8beginAllEv
FNDA:0,_ZN18MIDIInputElementPCD2Ev
FNDA:0,_ZN18MIDIInputElementPC8moveDownEv
FNDA:0,_ZN18MIDIInputElementPC13updateAllWithERK20MIDI_message_matcher
FNF:7
FNH:0
DA:20,0
DA:21,0
DA:23,0
DA:24,0
DA:30,0
DA:32,0
DA:33,0
DA:35,0
DA:37,0
DA:38,0
DA:39,0
DA:68,0
DA:69,0
DA:70,0
DA:71,0
DA:79,0
DA:80,0
DA:84,0
DA:86,0
DA:87,0
LF:20
LH:0
end_of_record
TN:
SF:/home/pieter/GitHub/Control-Surface/src/MIDI_Inputs/MIDINote.hpp
FN:9,_ZN13MIDINote_BaseC2ERK20MIDICNChannelAddress
FN:14,_ZNK13MIDINote_Base8getStateEv
FN:17,_ZN13MIDINote_Base23getValueFromMIDIMessageERK20MIDI_message_matcher
FN:27,_ZN8MIDINoteC1ERK20MIDICNChannelAddress
FN:27,_ZN8MIDINoteC2ERK20MIDICNChannelAddress
FN:29,_ZNK8MIDINote8getValueEv
FN:31,_ZN8MIDINote5resetEv
FN:34,_ZN8MIDINote10updateImplERK20MIDI_message_matcherRK20MIDICNChannelAddress
FNDA:8,_ZN13MIDINote_Base23getValueFromMIDIMessageERK20MIDI_message_matcher
FNDA:5,_ZN13MIDINote_BaseC2ERK20MIDICNChannelAddress
FNDA:1,_ZN8MIDINoteC2ERK20MIDICNChannelAddress
FNDA:2,_ZN8MIDINote5resetEv
FNDA:8,_ZNK13MIDINote_Base8getStateEv
FNDA:4,_ZN8MIDINoteC1ERK20MIDICNChannelAddress
FNDA:14,_ZNK8MIDINote8getValueEv
FNDA:8,_ZN8MIDINote10updateImplERK20MIDI_message_matcherRK20MIDICNChannelAddress
FNF:8
FNH:8
DA:9,5
DA:10,5
DA:14,8
DA:17,8
DA:18,8
DA:27,5
DA:29,14
DA:31,2
DA:34,8
DA:36,8
DA:37,8
LF:11
LH:11
end_of_record
TN:
SF:/home/pieter/GitHub/Control-Surface/src/MIDI_Inputs/MIDI_message_matcher.hpp
FN:9,_ZN20MIDI_message_matcherC2Eh7Channelhhh
FN:13,_ZN20MIDI_message_matcherC2ERK12MIDI_message
FNDA:90,_ZN20MIDI_message_matcherC2Eh7Channelhhh
FNDA:0,_ZN20MIDI_message_matcherC2ERK12MIDI_message
FNF:2
FNH:1
DA:9,90
DA:11,270
DA:12,90
DA:13,0
DA:14,0
DA:15,0
LF:6
LH:3
end_of_record
TN:
SF:/home/pieter/GitHub/Control-Surface/src/MIDI_Inputs/ProgramChangeSelector.hpp
FN:8,_ZN26ProgramChangeSelector_BaseILh3EEC2ERK13MIDICNChannel
FN:11,_ZN26ProgramChangeSelector_BaseILh3EE5beginEv
FN:16,_ZN26ProgramChangeSelector_BaseILh3EE10beginInputEv
FN:18,_ZN26ProgramChangeSelector_BaseILh3EE5resetEv
FN:20,_ZN26ProgramChangeSelector_BaseILh3EE6updateEv
FN:22,_ZN26ProgramChangeSelector_BaseILh3EE10updateImplERK20MIDI_message_matcherRK20MIDICNChannelAddress
FN:40,_ZN21ProgramChangeSelectorILh3EEC1ER10SelectableILh3EERK13MIDICNChannel
FN:40,_ZN21ProgramChangeSelectorILh3EEC2ER10SelectableILh3EERK13MIDICNChannel
FN:44,_ZN21ProgramChangeSelectorILh3EE11beginOutputEv
FN:45,_ZN21ProgramChangeSelectorILh3EE12updateOutputEhh
FNDA:0,_ZN21ProgramChangeSelectorILh3EE12updateOutputEhh
FNDA:0,_ZN21ProgramChangeSelectorILh3EEC2ER10SelectableILh3EERK13MIDICNChannel
FNDA:0,_ZN21ProgramChangeSelectorILh3EEC1ER10SelectableILh3EERK13MIDICNChannel
FNDA:0,_ZN26ProgramChangeSelector_BaseILh3EE10beginInputEv
FNDA:0,_ZN26ProgramChangeSelector_BaseILh3EE5beginEv
FNDA:0,_ZN26ProgramChangeSelector_BaseILh3EE6updateEv
FNDA:0,_ZN21ProgramChangeSelectorILh3EE11beginOutputEv
FNDA:0,_ZN26ProgramChangeSelector_BaseILh3EE5resetEv
FNDA:0,_ZN26ProgramChangeSelector_BaseILh3EE10updateImplERK20MIDI_message_matcherRK20MIDICNChannelAddress
FNDA:0,_ZN26ProgramChangeSelector_BaseILh3EEC2ERK13MIDICNChannel
FNF:10
FNH:0
DA:8,0
DA:9,0
DA:11,0
DA:12,0
DA:13,0
DA:14,0
DA:16,0
DA:18,0
DA:20,0
DA:22,0
DA:25,0
DA:26,0
DA:27,0
DA:33,0
DA:40,0
DA:42,0
DA:44,0
DA:45,0
DA:46,0
LF:19
LH:0
end_of_record
TN:
SF:/home/pieter/GitHub/Control-Surface/src/MIDI_Interfaces/BLEMIDI.hpp
FN:111,_ZN17BLECharacteristic8getValueB5cxx11Ev
FN:112,_ZN17BLECharacteristic8setValueEPhm
FN:117,_ZN26BLECharacteristicCallbacksD0Ev
FN:117,_ZN26BLECharacteristicCallbacksD2Ev
FN:118,_ZN26BLECharacteristicCallbacks6onReadEP17BLECharacteristic
FN:119,_ZN26BLECharacteristicCallbacks7onWriteEP17BLECharacteristic
FN:126,_ZN18BLEServerCallbacksD0Ev
FN:126,_ZN18BLEServerCallbacksD2Ev
FN:127,_ZN18BLEServerCallbacks9onConnectEP9BLEServer
FN:128,_ZN18BLEServerCallbacks12onDisconnectEP9BLEServer
FN:136,_ZN7BLEMIDI11gmock_beginERKN7testing7MatcherIP18BLEServerCallbacksEERKNS1_IP26BLECharacteristicCallbacksEE
FN:136,_ZN7BLEMIDI5beginEP18BLEServerCallbacksP26BLECharacteristicCallbacks
FN:138,_ZN7BLEMIDI11notifyValueEPhm
FNDA:0,_ZN18BLEServerCallbacksD0Ev
FNDA:10,_ZN7BLEMIDI11gmock_beginERKN7testing7MatcherIP18BLEServerCallbacksEERKNS1_IP26BLECharacteristicCallbacksEE
FNDA:0,_ZN26BLECharacteristicCallbacksD0Ev
FNDA:0,_ZN26BLECharacteristicCallbacks6onReadEP17BLECharacteristic
FNDA:10,_ZN7BLEMIDI5beginEP18BLEServerCallbacksP26BLECharacteristicCallbacks
FNDA:0,_ZN17BLECharacteristic8getValueB5cxx11Ev
FNDA:10,_ZN26BLECharacteristicCallbacksD2Ev
FNDA:0,_ZN7BLEMIDI11notifyValueEPhm
FNDA:0,_ZN26BLECharacteristicCallbacks7onWriteEP17BLECharacteristic
FNDA:0,_ZN18BLEServerCallbacks12onDisconnectEP9BLEServer
FNDA:0,_ZN17BLECharacteristic8setValueEPhm
FNDA:10,_ZN18BLEServerCallbacksD2Ev
FNDA:0,_ZN18BLEServerCallbacks9onConnectEP9BLEServer
FNF:13
FNH:4
DA:111,0
DA:112,0
DA:117,10
DA:118,0
DA:119,0
DA:126,10
DA:127,0
DA:128,0
DA:136,20
DA:138,0
LF:10
LH:3
end_of_record
TN:
SF:/home/pieter/GitHub/Control-Surface/src/MIDI_Interfaces/BluetoothMIDI_Interface.hpp
FN:19,_ZN23BluetoothMIDI_Interface9onConnectEP9BLEServer
FN:23,_ZN23BluetoothMIDI_Interface12onDisconnectEP9BLEServer
FN:32,_ZN23BluetoothMIDI_Interface6onReadEP17BLECharacteristic
FN:36,_ZN23BluetoothMIDI_Interface7onWriteEP17BLECharacteristic
FN:65,_ZN23BluetoothMIDI_Interface11hasSpaceForEm
FN:68,_ZN23BluetoothMIDI_InterfaceC2Ev
FN:70,_ZN23BluetoothMIDI_Interface5beginEv
FN:72,_ZN23BluetoothMIDI_Interface7publishEv
FN:83,_ZN23BluetoothMIDI_Interface4readEv
FN:89,_ZN23BluetoothMIDI_Interface11addToBufferILm3EEEvRAT__Kh
FN:89,_ZN23BluetoothMIDI_Interface11addToBufferILm2EEEvRAT__Kh
FN:93,_ZN23BluetoothMIDI_Interface11addToBufferEPKhm
FN:116,_ZN23BluetoothMIDI_Interface6updateEv
FN:121,_ZN23BluetoothMIDI_Interface8sendImplEhhhhh
FN:127,_ZN23BluetoothMIDI_Interface8sendImplEhhhh
FN:133,_ZN23BluetoothMIDI_Interface8sendImplEPKhmh
FN:139,_ZN23BluetoothMIDI_Interface5parseEPKhm
FN:159,_ZN23BluetoothMIDI_Interface5parseEh
FN:164,_ZN23BluetoothMIDI_Interface10getBLEMIDIEv
FNDA:0,_ZN23BluetoothMIDI_Interface4readEv
FNDA:0,_ZN23BluetoothMIDI_Interface7onWriteEP17BLECharacteristic
FNDA:0,_ZN23BluetoothMIDI_Interface12onDisconnectEP9BLEServer
FNDA:0,_ZN23BluetoothMIDI_Interface6onReadEP17BLECharacteristic
FNDA:0,_ZN23BluetoothMIDI_Interface6updateEv
FNDA:10,_ZN23BluetoothMIDI_InterfaceC2Ev
FNDA:0,_ZN23BluetoothMIDI_Interface11hasSpaceForEm
FNDA:10,_ZN23BluetoothMIDI_Interface5parseEPKhm
FNDA:10,_ZN23BluetoothMIDI_Interface10getBLEMIDIEv
FNDA:61,_ZN23BluetoothMIDI_Interface5parseEh
FNDA:0,_ZN23BluetoothMIDI_Interface11addToBufferILm2EEEvRAT__Kh
FNDA:0,_ZN23BluetoothMIDI_Interface11addToBufferEPKhm
FNDA:0,_ZN23BluetoothMIDI_Interface8sendImplEhhhhh
FNDA:0,_ZN23BluetoothMIDI_Interface8sendImplEhhhh
FNDA:0,_ZN23BluetoothMIDI_Interface8sendImplEPKhmh
FNDA:0,_ZN23BluetoothMIDI_Interface7publishEv
FNDA:0,_ZN23BluetoothMIDI_Interface9onConnectEP9BLEServer
FNDA:0,_ZN23BluetoothMIDI_Interface11addToBufferILm3EEEvRAT__Kh
FNDA:10,_ZN23BluetoothMIDI_Interface5beginEv
FNF:19
FNH:5
DA:19,0
DA:21,0
DA:22,0
DA:23,0
DA:25,0
DA:26,0
DA:29,0
DA:32,0
DA:34,0
DA:35,0
DA:36,0
DA:38,0
DA:40,0
DA:41,0
DA:42,0
DA:43,0
DA:44,0
DA:46,0
DA:47,0
DA:48,0
DA:65,0
DA:68,10
DA:70,10
DA:72,0
DA:73,0
DA:74,0
DA:75,0
DA:77,0
DA:79,0
DA:80,0
DA:83,0
DA:84,0
DA:85,0
DA:89,0
DA:90,0
DA:91,0
DA:93,0
DA:94,0
DA:95,0
DA:97,0
DA:98,0
DA:100,0
DA:104,0
DA:105,0
DA:107,0
DA:108,0
DA:109,0
DA:110,0
DA:111,0
DA:113,0
DA:116,0
DA:117,0
DA:118,0
DA:119,0
DA:121,0
DA:124,0
DA:125,0
DA:126,0
DA:127,0
DA:129,0
DA:130,0
DA:131,0
DA:133,0
DA:137,0
DA:139,10
DA:140,10
DA:141,0
DA:142,10
DA:143,0
DA:144,10
DA:145,1
DA:146,10
DA:147,84
DA:148,74
DA:149,39
DA:150,39
DA:152,35
DA:153,21
DA:154,35
DA:159,61
DA:160,61
DA:161,61
DA:162,61
DA:164,10
LF:84
LH:20
end_of_record
TN:
SF:/home/pieter/GitHub/Control-Surface/src/MIDI_Interfaces/MIDI_Interface.cpp
FN:3,_ZN14MIDI_InterfaceC2ER11MIDI_Parser
FN:7,_ZN14MIDI_InterfaceD2Ev
FN:7,_ZN14MIDI_InterfaceD0Ev
FN:14,_ZN14MIDI_Interface12setAsDefaultEv
FN:16,_ZN14MIDI_Interface10getDefaultEv
FN:20,_ZN14MIDI_Interface6updateEv
FN:33,_ZN14MIDI_Interface17dispatchMIDIEventE11MIDI_read_t
FN:44,_ZN14MIDI_Interface17onRealtimeMessageEh
FN:49,_ZN14MIDI_Interface16onChannelMessageEv
FN:54,_ZN14MIDI_Interface14onSysExMessageEv
FN:61,_ZN14MIDI_Interface4sendEhhhh
FN:65,_ZN14MIDI_Interface4sendEhhh
FN:69,_ZN14MIDI_Interface6sendCNEhhhhh
FN:81,_ZN14MIDI_Interface6sendCNEhhhh
FN:92,_ZN14MIDI_Interface10sendNoteOnE20MIDICNChannelAddressh
FN:98,_ZN14MIDI_Interface11sendNoteOffE20MIDICNChannelAddressh
FN:104,_ZN14MIDI_Interface6sendCCE20MIDICNChannelAddressh
FN:109,_ZN14MIDI_Interface6sendPBE20MIDICNChannelAddresst
FN:114,_ZN14MIDI_Interface6sendPBE13MIDICNChannelt
FN:118,_ZN14MIDI_Interface6sendPCE13MIDICNChannelh
FN:125,_ZN14MIDI_Interface17getChannelMessageEv
FN:129,_ZNK14MIDI_Interface15getSysExMessageEv
FN:133,_ZNK14MIDI_Interface5getCNEv
FNDA:4,_ZNK14MIDI_Interface15getSysExMessageEv
FNDA:0,_ZN14MIDI_Interface6sendPCE13MIDICNChannelh
FNDA:13,_ZN14MIDI_Interface17getChannelMessageEv
FNDA:61,_ZN14MIDI_Interface17dispatchMIDIEventE11MIDI_read_t
FNDA:0,_ZN14MIDI_Interface6sendPBE13MIDICNChannelt
FNDA:0,_ZN14MIDI_Interface6sendCNEhhhh
FNDA:0,_ZN14MIDI_InterfaceD0Ev
FNDA:0,_ZN14MIDI_Interface6updateEv
FNDA:0,_ZNK14MIDI_Interface5getCNEv
FNDA:4,_ZN14MIDI_Interface14onSysExMessageEv
FNDA:0,_ZN14MIDI_Interface6sendCNEhhhhh
FNDA:33,_ZN14MIDI_InterfaceD2Ev
FNDA:16,_ZN14MIDI_Interface11sendNoteOffE20MIDICNChannelAddressh
FNDA:33,_ZN14MIDI_Interface12setAsDefaultEv
FNDA:0,_ZN14MIDI_Interface4sendEhhhh
FNDA:34,_ZN14MIDI_Interface6sendCCE20MIDICNChannelAddressh
FNDA:0,_ZN14MIDI_Interface6sendPBE20MIDICNChannelAddresst
FNDA:2,_ZN14MIDI_Interface17onRealtimeMessageEh
FNDA:0,_ZN14MIDI_Interface4sendEhhh
FNDA:13,_ZN14MIDI_Interface16onChannelMessageEv
FNDA:16,_ZN14MIDI_Interface10sendNoteOnE20MIDICNChannelAddressh
FNDA:99,_ZN14MIDI_Interface10getDefaultEv
FNDA:33,_ZN14MIDI_InterfaceC2ER11MIDI_Parser
FNF:23
FNH:13
DA:3,33
DA:4,33
DA:5,33
DA:7,66
DA:8,33
DA:9,33
DA:10,33
DA:14,33
DA:16,99
DA:20,0
DA:21,0
DA:22,0
DA:23,0
DA:24,0
DA:25,0
DA:26,0
DA:33,61
DA:34,61
DA:35,42
DA:36,13
DA:37,4
DA:38,2
DA:44,2
DA:45,2
DA:46,2
DA:47,2
DA:49,13
DA:50,13
DA:51,13
DA:52,13
DA:54,4
DA:55,4
DA:56,4
DA:57,4
DA:61,0
DA:62,0
DA:63,0
DA:65,0
DA:66,0
DA:67,0
DA:69,0
DA:71,0
DA:72,0
DA:73,0
DA:74,0
DA:75,0
DA:76,0
DA:77,0
DA:78,0
DA:79,0
DA:81,0
DA:82,0
DA:83,0
DA:84,0
DA:85,0
DA:86,0
DA:87,0
DA:88,0
DA:89,0
DA:92,16
DA:94,16
DA:95,16
DA:96,16
DA:97,16
DA:98,16
DA:100,16
DA:101,16
DA:102,16
DA:103,16
DA:104,34
DA:105,34
DA:106,34
DA:107,34
DA:108,34
DA:109,0
DA:110,0
DA:111,0
DA:112,0
DA:113,0
DA:114,0
DA:115,0
DA:116,0
DA:117,0
DA:118,0
DA:119,0
DA:120,0
DA:121,0
DA:125,13
DA:126,13
DA:129,4
DA:130,4
DA:133,0
LF:92
LH:46
end_of_record
TN:
SF:/home/pieter/GitHub/Control-Surface/src/MIDI_Interfaces/MIDI_Interface.hpp
FN:16,_ZN14MIDI_Callbacks16onChannelMessageER14MIDI_Interface
FN:17,_ZN14MIDI_Callbacks14onSysExMessageER14MIDI_Interface
FN:18,_ZN14MIDI_Callbacks17onRealtimeMessageER14MIDI_Interfaceh
FN:22,_ZN14MIDI_CallbacksD0Ev
FN:22,_ZN14MIDI_CallbacksD2Ev
FN:41,_ZN14MIDI_Interface12setCallbacksEP14MIDI_Callbacks
FN:51,_ZN14MIDI_Interface5beginEv
FNDA:0,_ZN14MIDI_Callbacks16onChannelMessageER14MIDI_Interface
FNDA:2,_ZN14MIDI_Callbacks17onRealtimeMessageER14MIDI_Interfaceh
FNDA:9,_ZN14MIDI_Interface12setCallbacksEP14MIDI_Callbacks
FNDA:0,_ZN14MIDI_Callbacks14onSysExMessageER14MIDI_Interface
FNDA:10,_ZN14MIDI_CallbacksD2Ev
FNDA:0,_ZN14MIDI_CallbacksD0Ev
FNDA:0,_ZN14MIDI_Interface5beginEv
FNF:7
FNH:3
DA:16,0
DA:17,0
DA:18,2
DA:19,2
DA:22,10
DA:41,9
DA:51,0
LF:7
LH:4
end_of_record
TN:
SF:/home/pieter/GitHub/Control-Surface/src/MIDI_Outputs/Abstract/MIDIButton.hpp
FN:24,_ZN10MIDIButtonIXadL_ZN15DigitalCCSender6sendOnE20MIDICNChannelAddressEEXadL_ZNS0_7sendOffES1_EEEC2EtRKS1_
FN:24,_ZN10MIDIButtonIXadL_ZN17DigitalNoteSender6sendOnE20MIDICNChannelAddressEEXadL_ZNS0_7sendOffES1_EEEC2EtRKS1_
FN:27,_ZN10MIDIButtonIXadL_ZN17DigitalNoteSender6sendOnE20MIDICNChannelAddressEEXadL_ZNS0_7sendOffES1_EEE5beginEv
FN:27,_ZN10MIDIButtonIXadL_ZN15DigitalCCSender6sendOnE20MIDICNChannelAddressEEXadL_ZNS0_7sendOffES1_EEE5beginEv
FN:28,_ZN10MIDIButtonIXadL_ZN17DigitalNoteSender6sendOnE20MIDICNChannelAddressEEXadL_ZNS0_7sendOffES1_EEE6updateEv
FN:28,_ZN10MIDIButtonIXadL_ZN15DigitalCCSender6sendOnE20MIDICNChannelAddressEEXadL_ZNS0_7sendOffES1_EEE6updateEv
FNDA:1,_ZN10MIDIButtonIXadL_ZN17DigitalNoteSender6sendOnE20MIDICNChannelAddressEEXadL_ZNS0_7sendOffES1_EEEC2EtRKS1_
FNDA:1,_ZN10MIDIButtonIXadL_ZN15DigitalCCSender6sendOnE20MIDICNChannelAddressEEXadL_ZNS0_7sendOffES1_EEE5beginEv
FNDA:1,_ZN10MIDIButtonIXadL_ZN17DigitalNoteSender6sendOnE20MIDICNChannelAddressEEXadL_ZNS0_7sendOffES1_EEE5beginEv
FNDA:1,_ZN10MIDIButtonIXadL_ZN15DigitalCCSender6sendOnE20MIDICNChannelAddressEEXadL_ZNS0_7sendOffES1_EEEC2EtRKS1_
FNDA:4,_ZN10MIDIButtonIXadL_ZN17DigitalNoteSender6sendOnE20MIDICNChannelAddressEEXadL_ZNS0_7sendOffES1_EEE6updateEv
FNDA:4,_ZN10MIDIButtonIXadL_ZN15DigitalCCSender6sendOnE20MIDICNChannelAddressEEXadL_ZNS0_7sendOffES1_EEE6updateEv
FNF:6
FNH:6
DA:24,2
DA:25,2
DA:27,2
DA:28,8
DA:29,8
DA:30,8
DA:31,2
DA:32,6
DA:33,2
DA:35,8
LF:10
LH:10
end_of_record
TN:
SF:/home/pieter/GitHub/Control-Surface/src/MIDI_Outputs/Abstract/MIDIButtonLatching.hpp
FN:24,_ZN18MIDIButtonLatchingIXadL_ZN17DigitalNoteSender6sendOnE20MIDICNChannelAddressEEXadL_ZNS0_7sendOffES1_EEEC2EtRKS1_
FN:28,_ZN18MIDIButtonLatchingIXadL_ZN17DigitalNoteSender6sendOnE20MIDICNChannelAddressEEXadL_ZNS0_7sendOffES1_EEE5beginEv
FN:29,_ZN18MIDIButtonLatchingIXadL_ZN17DigitalNoteSender6sendOnE20MIDICNChannelAddressEEXadL_ZNS0_7sendOffES1_EEE6updateEv
FNDA:1,_ZN18MIDIButtonLatchingIXadL_ZN17DigitalNoteSender6sendOnE20MIDICNChannelAddressEEXadL_ZNS0_7sendOffES1_EEEC2EtRKS1_
FNDA:4,_ZN18MIDIButtonLatchingIXadL_ZN17DigitalNoteSender6sendOnE20MIDICNChannelAddressEEXadL_ZNS0_7sendOffES1_EEE6updateEv
FNDA:1,_ZN18MIDIButtonLatchingIXadL_ZN17DigitalNoteSender6sendOnE20MIDICNChannelAddressEEXadL_ZNS0_7sendOffES1_EEE5beginEv
FNF:3
FNH:3
DA:24,1
DA:25,1
DA:28,1
DA:29,4
DA:30,4
DA:31,4
DA:32,2
DA:33,2
DA:35,4
LF:9
LH:9
end_of_record
TN:
SF:/home/pieter/GitHub/Control-Surface/src/MIDI_Outputs/Abstract/MIDIButtonMatrix.hpp
FN:22,_ZN16MIDIButtonMatrixIXadL_ZN17DigitalNoteSender6sendOnE20MIDICNChannelAddressEEXadL_ZNS0_7sendOffES1_EELh3ELh2EEC2ERK5ArrayItLm3EERKS3_ItLm2EERKS3_IS3_IhLm2EELm3EE13MIDICNChannel
FN:30,_ZN16MIDIButtonMatrixIXadL_ZN17DigitalNoteSender6sendOnE20MIDICNChannelAddressEEXadL_ZNS0_7sendOffES1_EELh3ELh2EE5beginEv
FN:32,_ZN16MIDIButtonMatrixIXadL_ZN17DigitalNoteSender6sendOnE20MIDICNChannelAddressEEXadL_ZNS0_7sendOffES1_EELh3ELh2EE6updateEv
FN:35,_ZN16MIDIButtonMatrixIXadL_ZN17DigitalNoteSender6sendOnE20MIDICNChannelAddressEEXadL_ZNS0_7sendOffES1_EELh3ELh2EE15onButtonChangedEhhb
FNDA:2,_ZN16MIDIButtonMatrixIXadL_ZN17DigitalNoteSender6sendOnE20MIDICNChannelAddressEEXadL_ZNS0_7sendOffES1_EELh3ELh2EE6updateEv
FNDA:1,_ZN16MIDIButtonMatrixIXadL_ZN17DigitalNoteSender6sendOnE20MIDICNChannelAddressEEXadL_ZNS0_7sendOffES1_EELh3ELh2EE5beginEv
FNDA:2,_ZN16MIDIButtonMatrixIXadL_ZN17DigitalNoteSender6sendOnE20MIDICNChannelAddressEEXadL_ZNS0_7sendOffES1_EELh3ELh2EE15onButtonChangedEhhb
FNDA:1,_ZN16MIDIButtonMatrixIXadL_ZN17DigitalNoteSender6sendOnE20MIDICNChannelAddressEEXadL_ZNS0_7sendOffES1_EELh3ELh2EEC2ERK5ArrayItLm3EERKS3_ItLm2EERKS3_IS3_IhLm2EELm3EE13MIDICNChannel
FNF:4
FNH:4
DA:22,1
DA:27,1
DA:30,1
DA:32,2
DA:35,2
DA:36,2
DA:37,2
DA:38,1
DA:40,1
DA:41,2
LF:10
LH:10
end_of_record
TN:
SF:/home/pieter/GitHub/Control-Surface/src/MIDI_Outputs/Abstract/MIDIButtons.hpp
FN:24,_ZN11MIDIButtonsIXadL_ZN15DigitalCCSender6sendOnE20MIDICNChannelAddressEEXadL_ZNS0_7sendOffES1_EELh2EEC2ERK5ArrayI6ButtonLm2EERKS1_RK28RelativeMIDICNChannelAddress
FN:31,_ZN11MIDIButtonsIXadL_ZN15DigitalCCSender6sendOnE20MIDICNChannelAddressEEXadL_ZNS0_7sendOffES1_EELh2EE5beginEv
FN:35,_ZN11MIDIButtonsIXadL_ZN15DigitalCCSender6sendOnE20MIDICNChannelAddressEEXadL_ZNS0_7sendOffES1_EELh2EE6updateEv
FNDA:1,_ZN11MIDIButtonsIXadL_ZN15DigitalCCSender6sendOnE20MIDICNChannelAddressEEXadL_ZNS0_7sendOffES1_EELh2EE5beginEv
FNDA:1,_ZN11MIDIButtonsIXadL_ZN15DigitalCCSender6sendOnE20MIDICNChannelAddressEEXadL_ZNS0_7sendOffES1_EELh2EEC2ERK5ArrayI6ButtonLm2EERKS1_RK28RelativeMIDICNChannelAddress
FNDA:7,_ZN11MIDIButtonsIXadL_ZN15DigitalCCSender6sendOnE20MIDICNChannelAddressEEXadL_ZNS0_7sendOffES1_EELh2EE6updateEv
FNF:3
FNH:3
DA:24,1
DA:28,1
DA:31,1
DA:32,3
DA:33,2
DA:34,1
DA:35,7
DA:36,7
DA:37,21
DA:38,14
DA:39,14
DA:40,2
DA:41,12
DA:42,2
DA:44,14
DA:46,7
LF:16
LH:16
end_of_record
TN:
SF:/home/pieter/GitHub/Control-Surface/src/MIDI_Outputs/Abstract/MIDIRotaryEncoder.hpp
FN:33,_ZN17MIDIRotaryEncoderIXadL_ZN16RelativeCCSender4sendEl20MIDICNChannelAddressEEEC2ERK7EncoderRKS1_hh
FN:41,_ZN17MIDIRotaryEncoderIXadL_ZN16RelativeCCSender4sendEl20MIDICNChannelAddressEEE5beginEv
FN:42,_ZN17MIDIRotaryEncoderIXadL_ZN16RelativeCCSender4sendEl20MIDICNChannelAddressEEE6updateEv
FNDA:5,_ZN17MIDIRotaryEncoderIXadL_ZN16RelativeCCSender4sendEl20MIDICNChannelAddressEEEC2ERK7EncoderRKS1_hh
FNDA:0,_ZN17MIDIRotaryEncoderIXadL_ZN16RelativeCCSender4sendEl20MIDICNChannelAddressEEE5beginEv
FNDA:8,_ZN17MIDIRotaryEncoderIXadL_ZN16RelativeCCSender4sendEl20MIDICNChannelAddressEEE6updateEv
FNF:3
FNH:2
DA:33,5
DA:37,5
DA:41,0
DA:42,8
DA:43,8
DA:44,8
DA:45,8
DA:46,6
DA:47,6
DA:49,8
LF:10
LH:9
end_of_record
TN:
SF:/home/pieter/GitHub/Control-Surface/src/MIDI_Outputs/Bankable/Abstract/MIDIButton.hpp
FN:27,_ZN8Bankable10MIDIButtonIXadL_ZN15DigitalCCSender6sendOnE20MIDICNChannelAddressEEXadL_ZNS1_7sendOffES2_EEEC2ERK16OutputBankConfigtRKS2_
FN:27,_ZN8Bankable10MIDIButtonIXadL_ZN17DigitalNoteSender6sendOnE20MIDICNChannelAddressEEXadL_ZNS1_7sendOffES2_EEEC2ERK16OutputBankConfigtRKS2_
FN:31,_ZN8Bankable10MIDIButtonIXadL_ZN17DigitalNoteSender6sendOnE20MIDICNChannelAddressEEXadL_ZNS1_7sendOffES2_EEE5beginEv
FN:31,_ZN8Bankable10MIDIButtonIXadL_ZN15DigitalCCSender6sendOnE20MIDICNChannelAddressEEXadL_ZNS1_7sendOffES2_EEE5beginEv
FN:32,_ZN8Bankable10MIDIButtonIXadL_ZN17DigitalNoteSender6sendOnE20MIDICNChannelAddressEEXadL_ZNS1_7sendOffES2_EEE6updateEv
FN:32,_ZN8Bankable10MIDIButtonIXadL_ZN15DigitalCCSender6sendOnE20MIDICNChannelAddressEEXadL_ZNS1_7sendOffES2_EEE6updateEv
FNDA:3,_ZN8Bankable10MIDIButtonIXadL_ZN17DigitalNoteSender6sendOnE20MIDICNChannelAddressEEXadL_ZNS1_7sendOffES2_EEEC2ERK16OutputBankConfigtRKS2_
FNDA:12,_ZN8Bankable10MIDIButtonIXadL_ZN15DigitalCCSender6sendOnE20MIDICNChannelAddressEEXadL_ZNS1_7sendOffES2_EEE6updateEv
FNDA:3,_ZN8Bankable10MIDIButtonIXadL_ZN15DigitalCCSender6sendOnE20MIDICNChannelAddressEEXadL_ZNS1_7sendOffES2_EEE5beginEv
FNDA:3,_ZN8Bankable10MIDIButtonIXadL_ZN15DigitalCCSender6sendOnE20MIDICNChannelAddressEEXadL_ZNS1_7sendOffES2_EEEC2ERK16OutputBankConfigtRKS2_
FNDA:3,_ZN8Bankable10MIDIButtonIXadL_ZN17DigitalNoteSender6sendOnE20MIDICNChannelAddressEEXadL_ZNS1_7sendOffES2_EEE5beginEv
FNDA:14,_ZN8Bankable10MIDIButtonIXadL_ZN17DigitalNoteSender6sendOnE20MIDICNChannelAddressEEXadL_ZNS1_7sendOffES2_EEE6updateEv
FNF:6
FNH:6
DA:27,6
DA:29,6
DA:31,6
DA:32,26
DA:33,26
DA:34,26
DA:35,26
DA:36,7
DA:37,7
DA:38,7
DA:39,19
DA:40,7
DA:41,7
DA:42,7
DA:44,26
LF:15
LH:15
end_of_record
TN:
SF:/home/pieter/GitHub/Control-Surface/src/MIDI_Outputs/Bankable/Abstract/MIDIButtonLatching.hpp
FN:27,_ZN8Bankable18MIDIButtonLatchingIXadL_ZN17DigitalNoteSender6sendOnE20MIDICNChannelAddressEEXadL_ZNS1_7sendOffES2_EEEC2ERK16OutputBankConfigtRKS2_
FN:32,_ZN8Bankable18MIDIButtonLatchingIXadL_ZN17DigitalNoteSender6sendOnE20MIDICNChannelAddressEEXadL_ZNS1_7sendOffES2_EEE5beginEv
FN:33,_ZN8Bankable18MIDIButtonLatchingIXadL_ZN17DigitalNoteSender6sendOnE20MIDICNChannelAddressEEXadL_ZNS1_7sendOffES2_EEE6updateEv
FNDA:3,_ZN8Bankable18MIDIButtonLatchingIXadL_ZN17DigitalNoteSender6sendOnE20MIDICNChannelAddressEEXadL_ZNS1_7sendOffES2_EEE5beginEv
FNDA:12,_ZN8Bankable18MIDIButtonLatchingIXadL_ZN17DigitalNoteSender6sendOnE20MIDICNChannelAddressEEXadL_ZNS1_7sendOffES2_EEE6updateEv
FNDA:3,_ZN8Bankable18MIDIButtonLatchingIXadL_ZN17DigitalNoteSender6sendOnE20MIDICNChannelAddressEEXadL_ZNS1_7sendOffES2_EEEC2ERK16OutputBankConfigtRKS2_
FNF:3
FNH:3
DA:27,3
DA:29,3
DA:32,3
DA:33,12
DA:34,12
DA:35,12
DA:36,12
DA:37,12
DA:38,6
DA:39,6
DA:41,12
LF:11
LH:11
end_of_record
TN:
SF:/home/pieter/GitHub/Control-Surface/src/MIDI_Outputs/Bankable/Abstract/MIDIButtonMatrix.hpp
FN:41,_ZN8Bankable16MIDIButtonMatrixIXadL_ZN17DigitalNoteSender6sendOnE20MIDICNChannelAddressEEXadL_ZNS1_7sendOffES2_EELh3ELh2EEC2ERK16OutputBankConfigRK5ArrayItLm3EERKS7_ItLm2EERKS7_IS7_IhLm2EELm3EE13MIDICNChannel
FN:51,_ZN8Bankable16MIDIButtonMatrixIXadL_ZN17DigitalNoteSender6sendOnE20MIDICNChannelAddressEEXadL_ZNS1_7sendOffES2_EELh3ELh2EE5beginEv
FN:53,_ZN8Bankable16MIDIButtonMatrixIXadL_ZN17DigitalNoteSender6sendOnE20MIDICNChannelAddressEEXadL_ZNS1_7sendOffES2_EELh3ELh2EE6updateEv
FN:56,_ZN8Bankable16MIDIButtonMatrixIXadL_ZN17DigitalNoteSender6sendOnE20MIDICNChannelAddressEEXadL_ZNS1_7sendOffES2_EELh3ELh2EE15onButtonChangedEhhb
FNDA:1,_ZN8Bankable16MIDIButtonMatrixIXadL_ZN17DigitalNoteSender6sendOnE20MIDICNChannelAddressEEXadL_ZNS1_7sendOffES2_EELh3ELh2EEC2ERK16OutputBankConfigRK5ArrayItLm3EERKS7_ItLm2EERKS7_IS7_IhLm2EELm3EE13MIDICNChannel
FNDA:4,_ZN8Bankable16MIDIButtonMatrixIXadL_ZN17DigitalNoteSender6sendOnE20MIDICNChannelAddressEEXadL_ZNS1_7sendOffES2_EELh3ELh2EE15onButtonChangedEhhb
FNDA:1,_ZN8Bankable16MIDIButtonMatrixIXadL_ZN17DigitalNoteSender6sendOnE20MIDICNChannelAddressEEXadL_ZNS1_7sendOffES2_EELh3ELh2EE5beginEv
FNDA:4,_ZN8Bankable16MIDIButtonMatrixIXadL_ZN17DigitalNoteSender6sendOnE20MIDICNChannelAddressEEXadL_ZNS1_7sendOffES2_EELh3ELh2EE6updateEv
FNF:4
FNH:4
DA:41,1
DA:48,1
DA:51,1
DA:53,4
DA:56,4
DA:57,4
DA:58,4
DA:59,4
DA:60,2
DA:61,2
DA:62,2
DA:63,2
DA:64,2
DA:66,2
DA:67,2
DA:68,2
DA:69,2
DA:70,2
DA:72,4
LF:19
LH:19
end_of_record
TN:
SF:/home/pieter/GitHub/Control-Surface/src/MIDI_Outputs/Bankable/Abstract/MIDIButtons.hpp
FN:27,_ZN8Bankable11MIDIButtonsIXadL_ZN15DigitalCCSender6sendOnE20MIDICNChannelAddressEEXadL_ZNS1_7sendOffES2_EELh2EEC2ERK16OutputBankConfigRK5ArrayI6ButtonLm2EERKS2_RK28RelativeMIDICNChannelAddress
FN:35,_ZN8Bankable11MIDIButtonsIXadL_ZN15DigitalCCSender6sendOnE20MIDICNChannelAddressEEXadL_ZNS1_7sendOffES2_EELh2EE5beginEv
FN:39,_ZN8Bankable11MIDIButtonsIXadL_ZN15DigitalCCSender6sendOnE20MIDICNChannelAddressEEXadL_ZNS1_7sendOffES2_EELh2EE6updateEv
FNDA:16,_ZN8Bankable11MIDIButtonsIXadL_ZN15DigitalCCSender6sendOnE20MIDICNChannelAddressEEXadL_ZNS1_7sendOffES2_EELh2EE6updateEv
FNDA:2,_ZN8Bankable11MIDIButtonsIXadL_ZN15DigitalCCSender6sendOnE20MIDICNChannelAddressEEXadL_ZNS1_7sendOffES2_EELh2EEC2ERK16OutputBankConfigRK5ArrayI6ButtonLm2EERKS2_RK28RelativeMIDICNChannelAddress
FNDA:2,_ZN8Bankable11MIDIButtonsIXadL_ZN15DigitalCCSender6sendOnE20MIDICNChannelAddressEEXadL_ZNS1_7sendOffES2_EELh2EE5beginEv
FNF:3
FNH:3
DA:27,2
DA:32,2
DA:35,2
DA:36,6
DA:37,4
DA:38,2
DA:39,16
DA:40,16
DA:41,48
DA:42,32
DA:43,32
DA:44,5
DA:45,3
DA:46,5
DA:47,5
DA:48,5
DA:49,27
DA:50,5
DA:51,5
DA:52,5
DA:53,5
DA:54,3
DA:56,32
DA:58,16
LF:24
LH:24
end_of_record
TN:
SF:/home/pieter/GitHub/Control-Surface/src/MIDI_Outputs/Bankable/Abstract/MIDIRotaryEncoder.hpp
FN:38,_ZN8Bankable17MIDIRotaryEncoderIXadL_ZN16RelativeCCSender4sendEl20MIDICNChannelAddressEEEC2ERK16OutputBankConfigRK7EncoderRKS2_hh
FN:46,_ZN8Bankable17MIDIRotaryEncoderIXadL_ZN16RelativeCCSender4sendEl20MIDICNChannelAddressEEE5beginEv
FN:47,_ZN8Bankable17MIDIRotaryEncoderIXadL_ZN16RelativeCCSender4sendEl20MIDICNChannelAddressEEE6updateEv
FNDA:1,_ZN8Bankable17MIDIRotaryEncoderIXadL_ZN16RelativeCCSender4sendEl20MIDICNChannelAddressEEEC2ERK16OutputBankConfigRK7EncoderRKS2_hh
FNDA:0,_ZN8Bankable17MIDIRotaryEncoderIXadL_ZN16RelativeCCSender4sendEl20MIDICNChannelAddressEEE5beginEv
FNDA:2,_ZN8Bankable17MIDIRotaryEncoderIXadL_ZN16RelativeCCSender4sendEl20MIDICNChannelAddressEEE6updateEv
FNF:3
FNH:2
DA:38,1
DA:42,1
DA:46,0
DA:47,2
DA:48,2
DA:49,2
DA:50,2
DA:52,2
DA:53,2
DA:54,2
DA:56,2
LF:11
LH:10
end_of_record
TN:
SF:/home/pieter/GitHub/Control-Surface/src/MIDI_Outputs/Bankable/CCButton.hpp
FN:38,_ZN8Bankable8CCButtonC2ERK16OutputBankConfigtRK20MIDICNChannelAddress
FNDA:3,_ZN8Bankable8CCButtonC2ERK16OutputBankConfigtRK20MIDICNChannelAddress
FNF:1
FNH:1
DA:38,3
DA:40,3
DA:41,3
LF:3
LH:3
end_of_record
TN:
SF:/home/pieter/GitHub/Control-Surface/src/MIDI_Outputs/Bankable/CCButtons.hpp
FN:47,_ZN8Bankable9CCButtonsILh2EEC2ERK16OutputBankConfigRK5ArrayI6ButtonLm2EERK20MIDICNChannelAddressRK28RelativeMIDICNChannelAddress
FNDA:2,_ZN8Bankable9CCButtonsILh2EEC2ERK16OutputBankConfigRK5ArrayI6ButtonLm2EERK20MIDICNChannelAddressRK28RelativeMIDICNChannelAddress
FNF:1
FNH:1
DA:47,2
DA:53,2
LF:2
LH:2
end_of_record
TN:
SF:/home/pieter/GitHub/Control-Surface/src/MIDI_Outputs/Bankable/CCRotaryEncoder.hpp
FN:60,_ZN8Bankable15CCRotaryEncoderC2ERK16OutputBankConfigRK7EncoderRK20MIDICNChannelAddresshh
FNDA:1,_ZN8Bankable15CCRotaryEncoderC2ERK16OutputBankConfigRK7EncoderRK20MIDICNChannelAddresshh
FNF:1
FNH:1
DA:60,1
DA:63,1
DA:64,1
LF:3
LH:3
end_of_record
TN:
SF:/home/pieter/GitHub/Control-Surface/src/MIDI_Outputs/Bankable/NoteButton.hpp
FN:36,_ZN8Bankable10NoteButtonC2ERK16OutputBankConfigtRK20MIDICNChannelAddress
FNDA:3,_ZN8Bankable10NoteButtonC2ERK16OutputBankConfigtRK20MIDICNChannelAddress
FNF:1
FNH:1
DA:36,3
DA:38,3
DA:39,3
LF:3
LH:3
end_of_record
TN:
SF:/home/pieter/GitHub/Control-Surface/src/MIDI_Outputs/Bankable/NoteButtonLatching.hpp
FN:37,_ZN8Bankable18NoteButtonLatchingC2ERK16OutputBankConfigtRK20MIDICNChannelAddress
FNDA:3,_ZN8Bankable18NoteButtonLatchingC2ERK16OutputBankConfigtRK20MIDICNChannelAddress
FNF:1
FNH:1
DA:37,3
DA:39,3
DA:40,3
DA:41,3
LF:4
LH:4
end_of_record
TN:
SF:/home/pieter/GitHub/Control-Surface/src/MIDI_Outputs/Bankable/NoteButtonMatrix.hpp
FN:54,_ZN8Bankable16NoteButtonMatrixILh3ELh2EEC2ERK16OutputBankConfigRK5ArrayItLm3EERKS5_ItLm2EERKS5_IS5_IhLm2EELm3EE13MIDICNChannel
FNDA:1,_ZN8Bankable16NoteButtonMatrixILh3ELh2EEC2ERK16OutputBankConfigRK5ArrayItLm3EERKS5_ItLm2EERKS5_IS5_IhLm2EELm3EE13MIDICNChannel
FNF:1
FNH:1
DA:54,1
DA:61,1
LF:2
LH:2
end_of_record
TN:
SF:/home/pieter/GitHub/Control-Surface/src/MIDI_Outputs/CCButton.hpp
FN:35,_ZN8CCButtonC2EtRK20MIDICNChannelAddress
FNDA:1,_ZN8CCButtonC2EtRK20MIDICNChannelAddress
FNF:1
FNH:1
DA:35,1
DA:36,1
LF:2
LH:2
end_of_record
TN:
SF:/home/pieter/GitHub/Control-Surface/src/MIDI_Outputs/CCButtons.hpp
FN:47,_ZN9CCButtonsILh2EEC2ERK5ArrayI6ButtonLm2EERK20MIDICNChannelAddressRK28RelativeMIDICNChannelAddress
FNDA:1,_ZN9CCButtonsILh2EEC2ERK5ArrayI6ButtonLm2EERK20MIDICNChannelAddressRK28RelativeMIDICNChannelAddress
FNF:1
FNH:1
DA:47,1
DA:52,1
LF:2
LH:2
end_of_record
TN:
SF:/home/pieter/GitHub/Control-Surface/src/MIDI_Outputs/CCRotaryEncoder.hpp
FN:56,_ZN15CCRotaryEncoderC2ERK7EncoderRK20MIDICNChannelAddresshh
FNDA:5,_ZN15CCRotaryEncoderC2ERK7EncoderRK20MIDICNChannelAddresshh
FNF:1
FNH:1
DA:56,5
DA:58,5
LF:2
LH:2
end_of_record
TN:
SF:/home/pieter/GitHub/Control-Surface/src/MIDI_Outputs/NoteButton.hpp
FN:34,_ZN10NoteButtonC2EtRK20MIDICNChannelAddress
FNDA:1,_ZN10NoteButtonC2EtRK20MIDICNChannelAddress
FNF:1
FNH:1
DA:34,1
DA:35,1
LF:2
LH:2
end_of_record
TN:
SF:/home/pieter/GitHub/Control-Surface/src/MIDI_Outputs/NoteButtonLatching.hpp
FN:35,_ZN18NoteButtonLatchingC2EtRK20MIDICNChannelAddress
FNDA:1,_ZN18NoteButtonLatchingC2EtRK20MIDICNChannelAddress
FNF:1
FNH:1
DA:35,1
DA:36,1
LF:2
LH:2
end_of_record
TN:
SF:/home/pieter/GitHub/Control-Surface/src/MIDI_Outputs/NoteButtonMatrix.hpp
FN:52,_ZN16NoteButtonMatrixILh3ELh2EEC2ERK5ArrayItLm3EERKS1_ItLm2EERKS1_IS1_IhLm2EELm3EE13MIDICNChannel
FNDA:1,_ZN16NoteButtonMatrixILh3ELh2EEC2ERK5ArrayItLm3EERKS1_ItLm2EERKS1_IS1_IhLm2EELm3EE13MIDICNChannel
FNF:1
FNH:1
DA:52,1
DA:58,1
LF:2
LH:2
end_of_record
TN:
SF:/home/pieter/GitHub/Control-Surface/src/MIDI_Parsers/MIDI_Parser.cpp
FN:9,_ZN11MIDI_Parser8isStatusEh
FN:13,_ZN11MIDI_Parser6isDataEh
FN:15,_ZN11MIDI_Parser17getChannelMessageEv
FNDA:28,_ZN11MIDI_Parser17getChannelMessageEv
FNDA:94,_ZN11MIDI_Parser6isDataEh
FNDA:112,_ZN11MIDI_Parser8isStatusEh
FNF:3
FNH:3
DA:9,112
DA:10,112
DA:13,94
DA:15,28
LF:4
LH:4
end_of_record
TN:
SF:/home/pieter/GitHub/Control-Surface/src/MIDI_Parsers/MIDI_Parser.hpp
FN:29,_ZNK12MIDI_messageeqERKS_
FN:72,_ZNK11MIDI_Parser14getSysExBufferEv
FN:74,_ZNK11MIDI_Parser14getSysExLengthEv
FN:76,_ZNK11MIDI_Parser5getCNEv
FNDA:13,_ZNK12MIDI_messageeqERKS_
FNDA:20,_ZNK11MIDI_Parser14getSysExBufferEv
FNDA:0,_ZNK11MIDI_Parser5getCNEv
FNDA:10,_ZNK11MIDI_Parser14getSysExLengthEv
FNF:4
FNH:3
DA:29,13
DA:30,13
DA:31,26
DA:72,20
DA:74,10
DA:76,0
LF:6
LH:5
end_of_record
TN:
SF:/home/pieter/GitHub/Control-Surface/src/MIDI_Parsers/SerialMIDI_Parser.cpp
FN:3,_ZN17SerialMIDI_Parser5parseEh
FNDA:112,_ZN17SerialMIDI_Parser5parseEh
FNF:1
FNH:1
DA:3,112
DA:4,112
DA:6,43
DA:8,5
DA:11,38
DA:12,38
DA:13,38
DA:15,38
DA:18,7
DA:19,7
DA:20,7
DA:23,31
DA:25,7
DA:26,7
DA:27,24
DA:36,69
DA:39,69
DA:41,19
DA:42,19
DA:43,19
DA:46,50
DA:48,19
DA:49,19
DA:50,31
DA:52,6
DA:53,6
DA:56,25
DA:58,22
DA:66,75
LF:29
LH:29
end_of_record
TN:
SF:/home/pieter/GitHub/Control-Surface/src/MIDI_Parsers/SerialMIDI_Parser.hpp
FN:10,_ZNK17SerialMIDI_Parser8getSysExEv
FN:17,_ZN17SerialMIDI_Parser12addSysExByteEh
FN:18,_ZN17SerialMIDI_Parser10startSysExEv
FN:19,_ZN17SerialMIDI_Parser8endSysExEv
FNDA:7,_ZN17SerialMIDI_Parser10startSysExEv
FNDA:36,_ZN17SerialMIDI_Parser12addSysExByteEh
FNDA:7,_ZN17SerialMIDI_Parser8endSysExEv
FNDA:13,_ZNK17SerialMIDI_Parser8getSysExEv
FNF:4
FNH:4
DA:10,13
DA:11,13
DA:17,36
DA:18,7
DA:19,7
LF:5
LH:5
end_of_record
TN:
SF:/home/pieter/GitHub/Control-Surface/src/MIDI_Parsers/SysExBuffer.cpp
FN:3,_ZN11SysExBuffer5startEv
FN:9,_ZN11SysExBuffer3endEv
FN:14,_ZN11SysExBuffer3addEh
FN:22,_ZNK11SysExBuffer12hasSpaceLeftEv
FN:29,_ZNK11SysExBuffer11isReceivingEv
FN:31,_ZNK11SysExBuffer9getBufferEv
FN:33,_ZNK11SysExBuffer9getLengthEv
FNDA:12,_ZNK11SysExBuffer11isReceivingEv
FNDA:14,_ZN11SysExBuffer3endEv
FNDA:34,_ZNK11SysExBuffer9getLengthEv
FNDA:14,_ZN11SysExBuffer5startEv
FNDA:75,_ZN11SysExBuffer3addEh
FNDA:34,_ZNK11SysExBuffer9getBufferEv
FNDA:75,_ZNK11SysExBuffer12hasSpaceLeftEv
FNF:7
FNH:7
DA:3,14
DA:4,14
DA:5,14
DA:7,14
DA:9,14
DA:10,14
DA:12,14
DA:14,75
DA:15,75
DA:16,0
DA:17,75
DA:18,75
DA:19,75
DA:22,75
DA:23,75
DA:24,75
DA:26,75
DA:29,12
DA:31,34
DA:33,34
LF:20
LH:19
end_of_record
TN:
SF:/home/pieter/GitHub/Control-Surface/src/MIDI_Parsers/USBMIDI_Parser.cpp
FN:5,_ZN14USBMIDI_Parser5parseEPh
FNDA:23,_ZN14USBMIDI_Parser5parseEPh
FNF:1
FNH:1
DA:5,23
DA:9,23
DA:10,23
DA:12,23
DA:18,3
DA:19,3
DA:20,3
DA:21,3
DA:22,3
DA:26,20
DA:28,8
DA:29,5
DA:31,3
DA:33,0
DA:35,8
DA:36,8
DA:37,8
DA:40,12
DA:42,3
DA:43,0
DA:44,3
DA:46,1
DA:48,2
DA:49,2
DA:50,2
DA:52,0
DA:55,9
DA:57,3
DA:58,1
DA:60,2
DA:62,1
DA:64,2
DA:65,2
DA:66,2
DA:67,2
DA:69,0
DA:72,6
DA:74,5
DA:75,1
DA:77,4
DA:79,2
DA:81,3
DA:82,6
DA:83,3
DA:84,3
DA:85,3
DA:87,0
DA:101,1
DA:102,1
DA:104,0
LF:50
LH:44
end_of_record
TN:
SF:/home/pieter/GitHub/Control-Surface/src/MIDI_Parsers/USBMIDI_Parser.hpp
FN:18,_ZNK14USBMIDI_Parser8getSysExEv
FN:22,_ZNK14USBMIDI_Parser5getCNEv
FN:25,_ZN14USBMIDI_Parser10startSysExEh
FN:26,_ZN14USBMIDI_Parser8endSysExEh
FN:27,_ZN14USBMIDI_Parser12addSysExByteEhh
FN:30,_ZNK14USBMIDI_Parser14receivingSysExEh
FNDA:21,_ZNK14USBMIDI_Parser8getSysExEv
FNDA:39,_ZN14USBMIDI_Parser12addSysExByteEhh
FNDA:7,_ZN14USBMIDI_Parser10startSysExEh
FNDA:12,_ZNK14USBMIDI_Parser14receivingSysExEh
FNDA:7,_ZN14USBMIDI_Parser8endSysExEh
FNDA:0,_ZNK14USBMIDI_Parser5getCNEv
FNF:6
FNH:5
DA:18,21
DA:19,21
DA:22,0
DA:25,7
DA:26,7
DA:27,39
DA:28,39
DA:30,12
DA:31,12
LF:9
LH:8
end_of_record
TN:
SF:/home/pieter/GitHub/Control-Surface/src/MIDI_Senders/DigitalCCSender.hpp
FN:7,_ZN15DigitalCCSender6sendOnE20MIDICNChannelAddress
FN:10,_ZN15DigitalCCSender7sendOffE20MIDICNChannelAddress
FNDA:11,_ZN15DigitalCCSender6sendOnE20MIDICNChannelAddress
FNDA:11,_ZN15DigitalCCSender7sendOffE20MIDICNChannelAddress
FNF:2
FNH:2
DA:7,11
DA:8,11
DA:9,11
DA:10,11
DA:11,11
DA:12,11
LF:6
LH:6
end_of_record
TN:
SF:/home/pieter/GitHub/Control-Surface/src/MIDI_Senders/DigitalNoteSender.hpp
FN:7,_ZN17DigitalNoteSender6sendOnE20MIDICNChannelAddress
FN:10,_ZN17DigitalNoteSender7sendOffE20MIDICNChannelAddress
FNDA:16,_ZN17DigitalNoteSender6sendOnE20MIDICNChannelAddress
FNDA:16,_ZN17DigitalNoteSender7sendOffE20MIDICNChannelAddress
FNF:2
FNH:2
DA:7,16
DA:8,16
DA:9,16
DA:10,16
DA:11,16
DA:12,16
LF:6
LH:6
end_of_record
TN:
SF:/home/pieter/GitHub/Control-Surface/src/MIDI_Senders/RelativeCCSender.hpp
FN:21,_ZN16RelativeCCSender20toTwosComplement7bitEa
FN:25,_ZN16RelativeCCSender18toBinaryOffset7bitEa
FN:28,_ZN16RelativeCCSender21toSignedMagnitude7bitEa
FN:36,_ZN16RelativeCCSender13mapRelativeCCEa
FN:45,_ZN16RelativeCCSender4sendEl20MIDICNChannelAddress
FNDA:12,_ZN16RelativeCCSender20toTwosComplement7bitEa
FNDA:0,_ZN16RelativeCCSender21toSignedMagnitude7bitEa
FNDA:8,_ZN16RelativeCCSender4sendEl20MIDICNChannelAddress
FNDA:0,_ZN16RelativeCCSender18toBinaryOffset7bitEa
FNDA:12,_ZN16RelativeCCSender13mapRelativeCCEa
FNF:5
FNH:3
DA:21,12
DA:25,0
DA:28,0
DA:29,0
DA:30,0
DA:31,0
DA:32,0
DA:36,12
DA:37,12
DA:38,12
DA:39,0
DA:40,0
DA:41,0
DA:45,20
DA:46,20
DA:49,12
DA:50,12
DA:52,12
DA:53,12
DA:55,8
LF:20
LH:11
end_of_record
TN:
SF:/home/pieter/GitHub/Control-Surface/src/Selectors/IncrementDecrementSelector.hpp
FN:9,_ZN31IncrementDecrementSelector_BaseILh3EEC2ERK25IncrementDecrementButtons4Wrap
FN:9,_ZN31IncrementDecrementSelector_BaseILh10EEC2ERK25IncrementDecrementButtons4Wrap
FN:13,_ZN31IncrementDecrementSelector_BaseILh3EE10beginInputEv
FN:13,_ZN31IncrementDecrementSelector_BaseILh10EE10beginInputEv
FN:15,_ZN31IncrementDecrementSelector_BaseILh3EE6updateEv
FN:15,_ZN31IncrementDecrementSelector_BaseILh10EE6updateEv
FN:40,_ZN26IncrementDecrementSelectorILh3EEC1ER10SelectableILh3EERK25IncrementDecrementButtons4Wrap
FN:40,_ZN26IncrementDecrementSelectorILh10EEC1ER10SelectableILh10EERK25IncrementDecrementButtons4Wrap
FN:46,_ZN26IncrementDecrementSelectorILh10EE11beginOutputEv
FN:46,_ZN26IncrementDecrementSelectorILh3EE11beginOutputEv
FN:47,_ZN26IncrementDecrementSelectorILh10EE12updateOutputEhh
FN:47,_ZN26IncrementDecrementSelectorILh3EE12updateOutputEhh
FNDA:4,_ZN31IncrementDecrementSelector_BaseILh3EE10beginInputEv
FNDA:4,_ZN26IncrementDecrementSelectorILh3EEC1ER10SelectableILh3EERK25IncrementDecrementButtons4Wrap
FNDA:14,_ZN26IncrementDecrementSelectorILh3EE12updateOutputEhh
FNDA:4,_ZN31IncrementDecrementSelector_BaseILh3EEC2ERK25IncrementDecrementButtons4Wrap
FNDA:1,_ZN26IncrementDecrementSelectorILh10EE11beginOutputEv
FNDA:3,_ZN26IncrementDecrementSelectorILh10EE12updateOutputEhh
FNDA:1,_ZN31IncrementDecrementSelector_BaseILh10EEC2ERK25IncrementDecrementButtons4Wrap
FNDA:1,_ZN31IncrementDecrementSelector_BaseILh10EE6updateEv
FNDA:1,_ZN31IncrementDecrementSelector_BaseILh10EE10beginInputEv
FNDA:4,_ZN26IncrementDecrementSelectorILh3EE11beginOutputEv
FNDA:1,_ZN26IncrementDecrementSelectorILh10EEC1ER10SelectableILh10EERK25IncrementDecrementButtons4Wrap
FNDA:18,_ZN31IncrementDecrementSelector_BaseILh3EE6updateEv
FNF:12
FNH:12
DA:9,5
DA:11,5
DA:13,5
DA:15,19
DA:17,19
DA:18,5
DA:19,5
DA:20,1
DA:21,8
DA:22,0
DA:24,19
DA:40,5
DA:44,5
DA:46,5
DA:47,17
DA:48,17
LF:16
LH:15
end_of_record
TN:
SF:/home/pieter/GitHub/Control-Surface/src/Selectors/IncrementSelector.hpp
FN:9,_ZN22IncrementSelector_BaseILh3EEC2ERK15IncrementButton4Wrap
FN:16,_ZN22IncrementSelector_BaseILh3EE10beginInputEv
FN:18,_ZN22IncrementSelector_BaseILh3EE6updateEv
FN:33,_ZN17IncrementSelectorILh3EEC1ER10SelectableILh3EERK15IncrementButton4Wrap
FN:41,_ZN17IncrementSelectorILh3EE11beginOutputEv
FN:42,_ZN17IncrementSelectorILh3EE12updateOutputEhh
FNDA:2,_ZN17IncrementSelectorILh3EE11beginOutputEv
FNDA:7,_ZN17IncrementSelectorILh3EE12updateOutputEhh
FNDA:2,_ZN17IncrementSelectorILh3EEC1ER10SelectableILh3EERK15IncrementButton4Wrap
FNDA:12,_ZN22IncrementSelector_BaseILh3EE6updateEv
FNDA:2,_ZN22IncrementSelector_BaseILh3EEC2ERK15IncrementButton4Wrap
FNDA:2,_ZN22IncrementSelector_BaseILh3EE10beginInputEv
FNF:6
FNH:6
DA:9,2
DA:11,2
DA:16,2
DA:18,12
DA:19,12
DA:20,6
DA:21,12
DA:33,2
DA:35,2
DA:41,2
DA:42,7
DA:43,7
LF:12
LH:12
end_of_record
TN:
SF:/home/pieter/GitHub/Control-Surface/src/Selectors/ManyButtonsSelector.hpp
FN:10,_ZN24ManyButtonsSelector_BaseILh4EEC2ERK5ArrayItLm4EE
FN:14,_ZN24ManyButtonsSelector_BaseILh4EE10beginInputEv
FN:19,_ZN24ManyButtonsSelector_BaseILh4EE6updateEv
FN:38,_ZN19ManyButtonsSelectorILh4EEC1ER10SelectableILh4EERK5ArrayItLm4EE
FN:41,_ZN19ManyButtonsSelectorILh4EE11beginOutputEv
FN:42,_ZN19ManyButtonsSelectorILh4EE12updateOutputEhh
FNDA:1,_ZN19ManyButtonsSelectorILh4EE11beginOutputEv
FNDA:2,_ZN19ManyButtonsSelectorILh4EE12updateOutputEhh
FNDA:1,_ZN24ManyButtonsSelector_BaseILh4EE6updateEv
FNDA:1,_ZN19ManyButtonsSelectorILh4EEC1ER10SelectableILh4EERK5ArrayItLm4EE
FNDA:1,_ZN24ManyButtonsSelector_BaseILh4EE10beginInputEv
FNDA:1,_ZN24ManyButtonsSelector_BaseILh4EEC2ERK5ArrayItLm4EE
FNF:6
FNH:6
DA:10,1
DA:11,1
DA:14,1
DA:15,5
DA:16,4
DA:17,1
DA:19,1
DA:20,4
DA:22,4
DA:23,1
DA:24,1
DA:25,1
DA:27,1
DA:38,1
DA:39,1
DA:41,1
DA:42,2
DA:43,2
LF:18
LH:18
end_of_record
TN:
SF:/home/pieter/GitHub/Control-Surface/src/Selectors/Selectable.hpp
FN:11,_ZN10SelectableILh10EEC2Eh
FN:11,_ZN10SelectableILh3EEC2Eh
FN:11,_ZN10SelectableILh4EEC2Eh
FN:11,_ZN10SelectableILh2EEC2Eh
FN:14,_ZN10SelectableILh2EE15validateSettingEh
FN:14,_ZN10SelectableILh3EE15validateSettingEh
FN:14,_ZN10SelectableILh4EE15validateSettingEh
FN:14,_ZN10SelectableILh10EE15validateSettingEh
FN:27,_ZN10SelectableILh4EE19getInitialSelectionEv
FN:27,_ZN10SelectableILh3EE19getInitialSelectionEv
FN:27,_ZN10SelectableILh10EE19getInitialSelectionEv
FNDA:3,_ZN10SelectableILh2EEC2Eh
FNDA:3,_ZN10SelectableILh10EE19getInitialSelectionEv
FNDA:9,_ZN10SelectableILh10EE15validateSettingEh
FNDA:1,_ZN10SelectableILh4EEC2Eh
FNDA:6,_ZN10SelectableILh3EE19getInitialSelectionEv
FNDA:7,_ZN10SelectableILh3EEC2Eh
FNDA:2,_ZN10SelectableILh4EE15validateSettingEh
FNDA:5,_ZN10SelectableILh10EEC2Eh
FNDA:1,_ZN10SelectableILh4EE19getInitialSelectionEv
FNDA:0,_ZN10SelectableILh3EE15validateSettingEh
FNDA:0,_ZN10SelectableILh2EE15validateSettingEh
FNF:11
FNH:9
DA:11,16
DA:12,16
DA:14,42
DA:17,42
DA:18,1
DA:25,41
DA:27,10
LF:7
LH:7
end_of_record
TN:
SF:/home/pieter/GitHub/Control-Surface/src/Selectors/Selector.hpp
FN:23,_ZN8SelectorILh3EEC2ER10SelectableILh3EE
FN:23,_ZN8SelectorILh4EEC2ER10SelectableILh4EE
FN:23,_ZN8SelectorILh10EEC2ER10SelectableILh10EE
FN:29,_ZN8SelectorILh3EE5beginEv
FN:29,_ZN8SelectorILh4EE5beginEv
FN:29,_ZN8SelectorILh10EE5beginEv
FN:35,_ZN8SelectorILh3EE5resetEv
FN:35,_ZN8SelectorILh10EE5resetEv
FN:35,_ZN8SelectorILh4EE5resetEv
FN:37,_ZNK8SelectorILh4EE3getEv
FN:37,_ZNK8SelectorILh10EE3getEv
FN:37,_ZNK8SelectorILh3EE3getEv
FN:39,_ZN8SelectorILh4EE3setEh
FN:39,_ZN8SelectorILh3EE3setEh
FN:39,_ZN8SelectorILh10EE3setEh
FN:46,_ZN8SelectorILh10EE9incrementE4Wrap
FN:46,_ZN8SelectorILh3EE9incrementE4Wrap
FN:58,_ZN8SelectorILh10EE9decrementE4Wrap
FN:58,_ZN8SelectorILh3EE9decrementE4Wrap
FNDA:2,_ZN8SelectorILh10EE5resetEv
FNDA:1,_ZN8SelectorILh4EE5resetEv
FNDA:0,_ZN8SelectorILh3EE9decrementE4Wrap
FNDA:3,_ZN8SelectorILh10EE3setEh
FNDA:11,_ZN8SelectorILh3EE9incrementE4Wrap
FNDA:0,_ZN8SelectorILh10EE9decrementE4Wrap
FNDA:1,_ZN8SelectorILh10EE5beginEv
FNDA:37,_ZNK8SelectorILh3EE3getEv
FNDA:1,_ZN8SelectorILh4EE5beginEv
FNDA:1,_ZN8SelectorILh10EEC2ER10SelectableILh10EE
FNDA:21,_ZN8SelectorILh3EE3setEh
FNDA:6,_ZN8SelectorILh3EE5resetEv
FNDA:3,_ZNK8SelectorILh10EE3getEv
FNDA:0,_ZN8SelectorILh10EE9incrementE4Wrap
FNDA:2,_ZN8SelectorILh4EE3setEh
FNDA:1,_ZN8SelectorILh4EEC2ER10SelectableILh4EE
FNDA:6,_ZN8SelectorILh3EEC2ER10SelectableILh3EE
FNDA:3,_ZNK8SelectorILh4EE3getEv
FNDA:6,_ZN8SelectorILh3EE5beginEv
FNF:19
FNH:16
DA:23,8
DA:29,8
DA:30,8
DA:31,8
DA:32,8
DA:33,8
DA:35,9
DA:37,43
DA:39,26
DA:40,26
DA:41,26
DA:42,26
DA:43,26
DA:44,26
DA:46,11
DA:47,11
DA:48,11
DA:49,11
DA:50,4
DA:51,2
DA:53,2
DA:55,9
DA:58,5
DA:59,5
DA:60,5
DA:61,2
DA:62,1
DA:64,1
DA:66,4
DA:67,4
LF:30
LH:30
end_of_record
