TN:
SF:/home/pieter/GitHub/Control-Surface/ArduinoMock/Arduino.cpp
FN:4,_Z3seiv
FN:5,_Z3cliv
FN:7,_Z5yieldv
FN:9,_Z7pinModehh
FN:13,_Z12digitalWritehh
FN:17,_Z11digitalReadh
FN:21,_Z10analogReadh
FN:25,_Z11analogWritehi
FN:29,_Z6millisv
FN:31,_Z6microsv
FNDA:0,_Z3cliv
FNDA:57,_Z12digitalWritehh
FNDA:189,_Z6millisv
FNDA:0,_Z5yieldv
FNDA:0,_Z11analogWritehi
FNDA:0,_Z3seiv
FNDA:118,_Z7pinModehh
FNDA:0,_Z6microsv
FNDA:14,_Z10analogReadh
FNDA:215,_Z11digitalReadh
FNF:10
FNH:5
DA:4,0
DA:5,0
DA:7,0
DA:9,118
DA:10,118
DA:11,118
DA:13,57
DA:14,57
DA:15,57
DA:17,215
DA:18,215
DA:21,14
DA:22,14
DA:25,0
DA:26,0
DA:27,0
DA:29,189
DA:31,0
LF:18
LH:11
end_of_record
TN:
SF:/home/pieter/GitHub/Control-Surface/ArduinoMock/ArduinoMock.cpp
FN:5,_ZN11ArduinoMock11getInstanceEv
FN:10,_ZN11ArduinoMock5beginEv
FN:15,_ZN11ArduinoMock3endEv
FN:22,_ZN11ArduinoMock9getSerialEv
FNDA:1,_ZN11ArduinoMock3endEv
FNDA:10,_ZN11ArduinoMock9getSerialEv
FNDA:1179,_ZN11ArduinoMock11getInstanceEv
FNDA:1,_ZN11ArduinoMock5beginEv
FNF:4
FNH:4
DA:5,1179
DA:6,1179
DA:7,0
DA:8,1179
DA:10,1
DA:11,1
DA:12,0
DA:13,1
DA:14,1
DA:15,1
DA:16,1
DA:17,0
DA:18,1
DA:19,1
DA:20,1
DA:22,10
DA:23,10
LF:17
LH:14
end_of_record
TN:
SF:/home/pieter/GitHub/Control-Surface/ArduinoMock/ArduinoMock.hpp
FN:7,_ZN11ArduinoMockC2Ev
FN:17,_ZN11ArduinoMock7pinModeEhh
FN:17,_ZN11ArduinoMock13gmock_pinModeERKN7testing7MatcherIhEES4_
FN:18,_ZN11ArduinoMock12digitalWriteEhh
FN:18,_ZN11ArduinoMock18gmock_digitalWriteERKN7testing7MatcherIhEES4_
FN:19,_ZN11ArduinoMock17gmock_digitalReadERKN7testing7MatcherIhEE
FN:19,_ZN11ArduinoMock11digitalReadEh
FN:20,_ZN11ArduinoMock10analogReadEh
FN:20,_ZN11ArduinoMock16gmock_analogReadERKN7testing7MatcherIhEE
FN:21,_ZN11ArduinoMock11analogWriteEhi
FN:23,_ZN11ArduinoMock6millisEv
FN:23,_ZN11ArduinoMock12gmock_millisEv
FN:24,_ZN11ArduinoMock6microsEv
FN:26,_ZN11ArduinoMockD2Ev
FN:26,_ZN11ArduinoMockD0Ev
FNDA:14,_ZN11ArduinoMock10analogReadEh
FNDA:215,_ZN11ArduinoMock11digitalReadEh
FNDA:0,_ZN11ArduinoMock11analogWriteEhi
FNDA:0,_ZN11ArduinoMock6microsEv
FNDA:145,_ZN11ArduinoMock12gmock_millisEv
FNDA:1,_ZN11ArduinoMockD0Ev
FNDA:57,_ZN11ArduinoMock18gmock_digitalWriteERKN7testing7MatcherIhEES4_
FNDA:7,_ZN11ArduinoMock16gmock_analogReadERKN7testing7MatcherIhEE
FNDA:118,_ZN11ArduinoMock7pinModeEhh
FNDA:1,_ZN11ArduinoMockC2Ev
FNDA:1,_ZN11ArduinoMockD2Ev
FNDA:57,_ZN11ArduinoMock12digitalWriteEhh
FNDA:189,_ZN11ArduinoMock6millisEv
FNDA:118,_ZN11ArduinoMock13gmock_pinModeERKN7testing7MatcherIhEES4_
FNDA:191,_ZN11ArduinoMock17gmock_digitalReadERKN7testing7MatcherIhEE
FNF:15
FNH:13
DA:7,1
DA:17,236
DA:18,114
DA:19,406
DA:20,21
DA:21,0
DA:23,334
DA:24,0
DA:26,2
LF:9
LH:7
end_of_record
TN:
SF:/home/pieter/GitHub/Control-Surface/ArduinoMock/Encoder.h
FN:8,_ZNK11EncoderMock10gmock_readEv
FN:8,_ZNK11EncoderMock4readEv
FN:14,_ZN7EncoderC2ERK11EncoderMock
FN:16,_ZNK7Encoder4readEv
FNDA:10,_ZNK11EncoderMock4readEv
FNDA:6,_ZN7EncoderC2ERK11EncoderMock
FNDA:10,_ZNK7Encoder4readEv
FNDA:7,_ZNK11EncoderMock10gmock_readEv
FNF:4
FNH:4
DA:8,17
DA:14,6
DA:16,10
LF:3
LH:3
end_of_record
TN:
SF:/home/pieter/GitHub/Control-Surface/ArduinoMock/HardwareSerial.h
FN:38,_ZN12SerialHelper5beginEm
FN:39,_ZN12SerialHelper3endEv
FN:41,_ZN12SerialHelper9availableEv
FN:42,_ZN12SerialHelper4readEv
FN:43,_ZN12SerialHelper4peekEv
FN:45,_ZN12SerialHelper11gmock_writeERKN7testing7MatcherIhEE
FN:45,_ZN12SerialHelper5writeEh
FN:46,_ZN12SerialHelper11gmock_writeERKN7testing7MatcherIPKhEERKNS1_ImEE
FN:46,_ZN12SerialHelper5writeEPKhm
FN:48,_ZN12SerialHelperD2Ev
FN:48,_ZN12SerialHelperD0Ev
FNDA:0,_ZN12SerialHelper4peekEv
FNDA:0,_ZN12SerialHelper9availableEv
FNDA:0,_ZN12SerialHelperD0Ev
FNDA:4,_ZN12SerialHelper5writeEPKhm
FNDA:0,_ZN12SerialHelper4readEv
FNDA:1,_ZN12SerialHelper5writeEh
FNDA:0,_ZN12SerialHelper5beginEm
FNDA:1,_ZN12SerialHelperD2Ev
FNDA:4,_ZN12SerialHelper11gmock_writeERKN7testing7MatcherIPKhEERKNS1_ImEE
FNDA:0,_ZN12SerialHelper3endEv
FNDA:1,_ZN12SerialHelper11gmock_writeERKN7testing7MatcherIhEE
FNF:11
FNH:5
DA:38,0
DA:39,0
DA:41,0
DA:42,0
DA:43,0
DA:45,2
DA:46,8
DA:48,1
LF:8
LH:3
end_of_record
TN:
SF:/home/pieter/GitHub/Control-Surface/ArduinoMock/HardwareSerial0.cpp
FN:4,_ZN14HardwareSerial5beginEm
FN:7,_ZN14HardwareSerial3endEv
FN:9,_ZN14HardwareSerial9availableEv
FN:10,_ZN14HardwareSerial4readEv
FN:11,_ZN14HardwareSerial4peekEv
FN:13,_ZN14HardwareSerial5writeEh
FN:16,_ZN14HardwareSerial5writeEPKhm
FNDA:0,_ZN14HardwareSerial5beginEm
FNDA:0,_ZN14HardwareSerial9availableEv
FNDA:1,_ZN14HardwareSerial5writeEh
FNDA:0,_ZN14HardwareSerial4peekEv
FNDA:0,_ZN14HardwareSerial3endEv
FNDA:4,_ZN14HardwareSerial5writeEPKhm
FNDA:0,_ZN14HardwareSerial4readEv
FNF:7
FNH:2
DA:4,0
DA:5,0
DA:6,0
DA:7,0
DA:9,0
DA:10,0
DA:11,0
DA:13,1
DA:14,1
DA:16,4
DA:17,4
LF:11
LH:4
end_of_record
TN:
SF:/home/pieter/GitHub/Control-Surface/ArduinoMock/Print.cpp
FN:34,_ZN5Print5writeEPKhm
FN:44,_ZN5Print5printEPKc
FN:49,_ZN5Print5printEc
FN:54,_ZN5Print5printEhi
FN:59,_ZN5Print5printEii
FN:64,_ZN5Print5printEji
FN:69,_ZN5Print5printEli
FN:85,_ZN5Print5printEmi
FN:91,_ZN5Print5printEdi
FN:96,_ZN5Print5printERK9Printable
FN:101,_ZN5Print7printlnEv
FN:106,_ZN5Print7printlnEPKc
FN:113,_ZN5Print7printlnEc
FN:120,_ZN5Print7printlnEhi
FN:127,_ZN5Print7printlnEii
FN:134,_ZN5Print7printlnEji
FN:141,_ZN5Print7printlnEli
FN:148,_ZN5Print7printlnEmi
FN:155,_ZN5Print7printlnEdi
FN:162,_ZN5Print7printlnERK9Printable
FN:171,_ZN5Print11printNumberEmh
FN:191,_ZN5Print10printFloatEdh
FNDA:0,_ZN5Print10printFloatEdh
FNDA:0,_ZN5Print7printlnEmi
FNDA:0,_ZN5Print7printlnEli
FNDA:0,_ZN5Print7printlnEc
FNDA:0,_ZN5Print5writeEPKhm
FNDA:0,_ZN5Print5printEii
FNDA:0,_ZN5Print5printEji
FNDA:0,_ZN5Print7printlnEhi
FNDA:0,_ZN5Print5printEhi
FNDA:2,_ZN5Print5printEPKc
FNDA:0,_ZN5Print11printNumberEmh
FNDA:0,_ZN5Print7printlnERK9Printable
FNDA:0,_ZN5Print5printEmi
FNDA:0,_ZN5Print5printEc
FNDA:1,_ZN5Print7printlnEPKc
FNDA:0,_ZN5Print5printEdi
FNDA:0,_ZN5Print7printlnEii
FNDA:0,_ZN5Print5printEli
FNDA:0,_ZN5Print5printERK9Printable
FNDA:1,_ZN5Print7printlnEv
FNDA:0,_ZN5Print7printlnEji
FNDA:0,_ZN5Print7printlnEdi
FNF:22
FNH:3
DA:34,0
DA:36,0
DA:37,0
DA:38,0
DA:39,0
DA:41,0
DA:44,2
DA:46,2
DA:49,0
DA:51,0
DA:54,0
DA:56,0
DA:59,0
DA:61,0
DA:64,0
DA:66,0
DA:69,0
DA:71,0
DA:72,0
DA:73,0
DA:74,0
DA:75,0
DA:76,0
DA:77,0
DA:79,0
DA:81,0
DA:85,0
DA:87,0
DA:88,0
DA:91,0
DA:93,0
DA:96,0
DA:98,0
DA:101,1
DA:103,1
DA:106,1
DA:108,1
DA:109,1
DA:110,1
DA:113,0
DA:115,0
DA:116,0
DA:117,0
DA:120,0
DA:122,0
DA:123,0
DA:124,0
DA:127,0
DA:129,0
DA:130,0
DA:131,0
DA:134,0
DA:136,0
DA:137,0
DA:138,0
DA:141,0
DA:143,0
DA:144,0
DA:145,0
DA:148,0
DA:150,0
DA:151,0
DA:152,0
DA:155,0
DA:157,0
DA:158,0
DA:159,0
DA:162,0
DA:164,0
DA:165,0
DA:166,0
DA:171,0
DA:174,0
DA:176,0
DA:179,0
DA:181,0
DA:182,0
DA:183,0
DA:185,0
DA:186,0
DA:188,0
DA:191,0
DA:193,0
DA:195,0
DA:196,0
DA:197,0
DA:198,0
DA:201,0
DA:203,0
DA:204,0
DA:208,0
DA:209,0
DA:210,0
DA:212,0
DA:215,0
DA:216,0
DA:217,0
DA:220,0
DA:221,0
DA:225,0
DA:227,0
DA:228,0
DA:229,0
DA:230,0
DA:233,0
LF:105
LH:8
end_of_record
TN:
SF:/home/pieter/GitHub/Control-Surface/ArduinoMock/Print.h
FN:48,_ZN5PrintC2Ev
FN:54,_ZN5Print5writeEPKc
FN:66,_ZN5Print17availableForWriteEv
FN:89,_ZN5Print5flushEv
FNDA:3,_ZN5Print5writeEPKc
FNDA:0,_ZN5Print5flushEv
FNDA:0,_ZN5Print17availableForWriteEv
FNDA:1,_ZN5PrintC2Ev
FNF:4
FNH:2
DA:48,1
DA:54,3
DA:55,3
DA:56,0
DA:57,3
DA:66,0
DA:89,0
DA:90,0
LF:8
LH:4
end_of_record
TN:
SF:/home/pieter/GitHub/Control-Surface/build/googletest/googletest-src/googlemock/include/gmock/gmock-actions.h
FN:79,_ZN7testing8internal25BuiltInDefaultValueGetterI11MIDI_read_tLb1EE3GetEv
FN:103,_ZN7testing8internal19BuiltInDefaultValueI11MIDI_read_tE6ExistsEv
FN:107,_ZN7testing8internal19BuiltInDefaultValueI11MIDI_read_tE3GetEv
FN:142,_ZN7testing8internal19BuiltInDefaultValueINSt7__cxx1112basic_stringIcSt11char_traitsIcESaIcEEEE6ExistsEv
FN:142,_ZN7testing8internal19BuiltInDefaultValueINSt7__cxx1112basic_stringIcSt11char_traitsIcESaIcEEEE3GetEv
FN:159,_ZN7testing8internal19BuiltInDefaultValueIsE3GetEv
FN:159,_ZN7testing8internal19BuiltInDefaultValueIsE6ExistsEv
FN:161,_ZN7testing8internal19BuiltInDefaultValueIiE3GetEv
FN:161,_ZN7testing8internal19BuiltInDefaultValueIiE6ExistsEv
FN:162,_ZN7testing8internal19BuiltInDefaultValueImE6ExistsEv
FN:162,_ZN7testing8internal19BuiltInDefaultValueImE3GetEv
FN:163,_ZN7testing8internal19BuiltInDefaultValueIlE6ExistsEv
FN:163,_ZN7testing8internal19BuiltInDefaultValueIlE3GetEv
FN:212,_ZN7testing12DefaultValueI11MIDI_read_tE5IsSetEv
FN:212,_ZN7testing12DefaultValueIsE5IsSetEv
FN:212,_ZN7testing12DefaultValueINSt7__cxx1112basic_stringIcSt11char_traitsIcESaIcEEEE5IsSetEv
FN:212,_ZN7testing12DefaultValueIiE5IsSetEv
FN:212,_ZN7testing12DefaultValueImE5IsSetEv
FN:212,_ZN7testing12DefaultValueIlE5IsSetEv
FN:216,_ZN7testing12DefaultValueIiE6ExistsEv
FN:216,_ZN7testing12DefaultValueImE6ExistsEv
FN:216,_ZN7testing12DefaultValueIlE6ExistsEv
FN:216,_ZN7testing12DefaultValueI11MIDI_read_tE6ExistsEv
FN:216,_ZN7testing12DefaultValueIsE6ExistsEv
FN:216,_ZN7testing12DefaultValueINSt7__cxx1112basic_stringIcSt11char_traitsIcESaIcEEEE6ExistsEv
FN:223,_ZN7testing12DefaultValueIiE3GetEv
FN:223,_ZN7testing12DefaultValueINSt7__cxx1112basic_stringIcSt11char_traitsIcESaIcEEEE3GetEv
FN:223,_ZN7testing12DefaultValueI11MIDI_read_tE3GetEv
FN:223,_ZN7testing12DefaultValueIsE3GetEv
FN:223,_ZN7testing12DefaultValueIlE3GetEv
FN:223,_ZN7testing12DefaultValueImE3GetEv
FN:298,_ZN7testing12DefaultValueIvE6ExistsEv
FN:299,_ZN7testing12DefaultValueIvE3GetEv
FN:317,_ZN7testing15ActionInterfaceIFihEEC2Ev
FN:317,_ZN7testing15ActionInterfaceIFmvEEC2Ev
FN:317,_ZN7testing15ActionInterfaceIFlvEEC2Ev
FN:318,_ZN7testing15ActionInterfaceIFlvEED0Ev
FN:318,_ZN7testing15ActionInterfaceIFmvEED0Ev
FN:318,_ZN7testing15ActionInterfaceIFihEED2Ev
FN:318,_ZN7testing15ActionInterfaceIFmvEED2Ev
FN:318,_ZN7testing15ActionInterfaceIFihEED0Ev
FN:318,_ZN7testing15ActionInterfaceIFlvEED2Ev
FN:346,_ZN7testing6ActionIFmvEE13ActionAdapterclIJEEEmDpOT_
FN:346,_ZN7testing6ActionIFihEE13ActionAdapterclIJhEEEiDpOT_
FN:346,_ZN7testing6ActionIFlvEE13ActionAdapterclIJEEElDpOT_
FN:358,_ZN7testing6ActionIFvvEEC2Ev
FN:358,_ZN7testing6ActionIFihEEC2Ev
FN:358,_ZN7testing6ActionIFmvEEC2Ev
FN:358,_ZN7testing6ActionIFvhhhhhEEC2Ev
FN:358,_ZN7testing6ActionIFvhhEEC2Ev
FN:358,_ZN7testing6ActionIFlvEEC2Ev
FN:358,_ZN7testing6ActionIFmhEEC2Ev
FN:358,_ZN7testing6ActionIFvhEEC2Ev
FN:358,_ZN7testing6ActionIFvP18BLEServerCallbacksP26BLECharacteristicCallbacksEEC2Ev
FN:358,_ZN7testing6ActionIFmPKhmEEC2Ev
FN:358,_ZN7testing6ActionIFitEEC2Ev
FN:369,_ZN7testing6ActionIFlvEEC2EPNS_15ActionInterfaceIS1_EE
FN:369,_ZN7testing6ActionIFmvEEC2EPNS_15ActionInterfaceIS1_EE
FN:369,_ZN7testing6ActionIFihEEC2EPNS_15ActionInterfaceIS1_EE
FN:379,_ZNK7testing6ActionIFvP26BLECharacteristicCallbacksEE11IsDoDefaultEv
FN:379,_ZNK7testing6ActionIFvPhmEE11IsDoDefaultEv
FN:379,_ZNK7testing6ActionIFvPKhmhEE11IsDoDefaultEv
FN:379,_ZNK7testing6ActionIFvP18BLEServerCallbacksEE11IsDoDefaultEv
FN:379,_ZNK7testing6ActionIFmhEE11IsDoDefaultEv
FN:379,_ZNK7testing6ActionIFNSt7__cxx1112basic_stringIcSt11char_traitsIcESaIcEEEvEE11IsDoDefaultEv
FN:379,_ZNK7testing6ActionIFvhhhhhEE11IsDoDefaultEv
FN:379,_ZNK7testing6ActionIFvhiEE11IsDoDefaultEv
FN:379,_ZNK7testing6ActionIFvhhEE11IsDoDefaultEv
FN:379,_ZNK7testing6ActionIFihEE11IsDoDefaultEv
FN:379,_ZNK7testing6ActionIF11MIDI_read_tvEE11IsDoDefaultEv
FN:379,_ZNK7testing6ActionIFlvEE11IsDoDefaultEv
FN:379,_ZNK7testing6ActionIFvhEE11IsDoDefaultEv
FN:379,_ZNK7testing6ActionIFmPKhmEE11IsDoDefaultEv
FN:379,_ZNK7testing6ActionIFvmEE11IsDoDefaultEv
FN:379,_ZNK7testing6ActionIFvP18BLEServerCallbacksP26BLECharacteristicCallbacksEE11IsDoDefaultEv
FN:379,_ZNK7testing6ActionIFvhhhhEE11IsDoDefaultEv
FN:379,_ZNK7testing6ActionIFivEE11IsDoDefaultEv
FN:379,_ZNK7testing6ActionIFstEE11IsDoDefaultEv
FN:379,_ZNK7testing6ActionIFvvEE11IsDoDefaultEv
FN:379,_ZNK7testing6ActionIFitEE11IsDoDefaultEv
FN:379,_ZNK7testing6ActionIFvthEE11IsDoDefaultEv
FN:379,_ZNK7testing6ActionIFmvEE11IsDoDefaultEv
FN:379,_ZNK7testing6ActionIFvtsEE11IsDoDefaultEv
FN:387,_ZNK7testing6ActionIFlvEE7PerformESt5tupleIJEE
FN:387,_ZNK7testing6ActionIFitEE7PerformESt5tupleIJtEE
FN:387,_ZNK7testing6ActionIFvthEE7PerformESt5tupleIJthEE
FN:387,_ZNK7testing6ActionIFvhhhhhEE7PerformESt5tupleIJhhhhhEE
FN:387,_ZNK7testing6ActionIFstEE7PerformESt5tupleIJtEE
FN:387,_ZNK7testing6ActionIFihEE7PerformESt5tupleIJhEE
FN:387,_ZNK7testing6ActionIFvP18BLEServerCallbacksEE7PerformESt5tupleIJS2_EE
FN:387,_ZNK7testing6ActionIF11MIDI_read_tvEE7PerformESt5tupleIJEE
FN:387,_ZNK7testing6ActionIFNSt7__cxx1112basic_stringIcSt11char_traitsIcESaIcEEEvEE7PerformESt5tupleIJEE
FN:387,_ZNK7testing6ActionIFvvEE7PerformESt5tupleIJEE
FN:387,_ZNK7testing6ActionIFmvEE7PerformESt5tupleIJEE
FN:387,_ZNK7testing6ActionIFvmEE7PerformESt5tupleIJmEE
FN:387,_ZNK7testing6ActionIFvPhmEE7PerformESt5tupleIJS1_mEE
FN:387,_ZNK7testing6ActionIFvP18BLEServerCallbacksP26BLECharacteristicCallbacksEE7PerformESt5tupleIJS2_S4_EE
FN:387,_ZNK7testing6ActionIFvhhhhEE7PerformESt5tupleIJhhhhEE
FN:387,_ZNK7testing6ActionIFvhEE7PerformESt5tupleIJhEE
FN:387,_ZNK7testing6ActionIFivEE7PerformESt5tupleIJEE
FN:387,_ZNK7testing6ActionIFvhhEE7PerformESt5tupleIJhhEE
FN:387,_ZNK7testing6ActionIFvP26BLECharacteristicCallbacksEE7PerformESt5tupleIJS2_EE
FN:387,_ZNK7testing6ActionIFmhEE7PerformESt5tupleIJhEE
FN:387,_ZNK7testing6ActionIFmPKhmEE7PerformESt5tupleIJS2_mEE
FN:387,_ZNK7testing6ActionIFvtsEE7PerformESt5tupleIJtsEE
FN:387,_ZNK7testing6ActionIFvhiEE7PerformESt5tupleIJhiEE
FN:387,_ZNK7testing6ActionIFvPKhmhEE7PerformESt5tupleIJS2_mhEE
FN:519,_ZN7testing8internal12ReturnActionIhEC2Eh
FN:519,_ZN7testing8internal12ReturnActionIjEC2Ej
FN:519,_ZN7testing8internal12ReturnActionIiEC2Ei
FN:524,_ZNK7testing8internal12ReturnActionIhEcvNS_6ActionIT_EEIFihEEEv
FN:524,_ZNK7testing8internal12ReturnActionIjEcvNS_6ActionIT_EEIFmvEEEv
FN:524,_ZNK7testing8internal12ReturnActionIiEcvNS_6ActionIT_EEIFlvEEEv
FN:524,_ZNK7testing8internal12ReturnActionIiEcvNS_6ActionIT_EEIFmvEEEv
FN:557,_ZN7testing8internal12ReturnActionIhE4ImplIhFihEEC2ERKSt10shared_ptrIhE
FN:557,_ZN7testing8internal12ReturnActionIiE4ImplIiFlvEEC2ERKSt10shared_ptrIiE
FN:557,_ZN7testing8internal12ReturnActionIjE4ImplIjFmvEEC2ERKSt10shared_ptrIjE
FN:557,_ZN7testing8internal12ReturnActionIiE4ImplIiFmvEEC2ERKSt10shared_ptrIiE
FN:561,_ZN7testing8internal12ReturnActionIiE4ImplIiFmvEE7PerformERKSt5tupleIJEE
FN:561,_ZN7testing8internal12ReturnActionIhE4ImplIhFihEE7PerformERKSt5tupleIJhEE
FN:561,_ZN7testing8internal12ReturnActionIjE4ImplIjFmvEE7PerformERKSt5tupleIJEE
FN:561,_ZN7testing8internal12ReturnActionIiE4ImplIiFlvEE7PerformERKSt5tupleIJEE
FN:724,_ZNK7testing8internal15DoDefaultActioncvNS_6ActionIT_EEIFvP18BLEServerCallbacksP26BLECharacteristicCallbacksEEEv
FN:724,_ZNK7testing8internal15DoDefaultActioncvNS_6ActionIT_EEIFihEEEv
FN:724,_ZNK7testing8internal15DoDefaultActioncvNS_6ActionIT_EEIFvhhhhhEEEv
FN:724,_ZNK7testing8internal15DoDefaultActioncvNS_6ActionIT_EEIFvvEEEv
FN:724,_ZNK7testing8internal15DoDefaultActioncvNS_6ActionIT_EEIFvhEEEv
FN:724,_ZNK7testing8internal15DoDefaultActioncvNS_6ActionIT_EEIFmhEEEv
FN:724,_ZNK7testing8internal15DoDefaultActioncvNS_6ActionIT_EEIFvhhEEEv
FN:724,_ZNK7testing8internal15DoDefaultActioncvNS_6ActionIT_EEIFmvEEEv
FN:724,_ZNK7testing8internal15DoDefaultActioncvNS_6ActionIT_EEIFlvEEEv
FN:724,_ZNK7testing8internal15DoDefaultActioncvNS_6ActionIT_EEIFmPKhmEEEv
FN:724,_ZNK7testing8internal15DoDefaultActioncvNS_6ActionIT_EEIFitEEEv
FN:1036,_ZN7testing6ReturnIhEENS_8internal12ReturnActionIT_EES3_
FN:1036,_ZN7testing6ReturnIjEENS_8internal12ReturnActionIT_EES3_
FN:1036,_ZN7testing6ReturnIiEENS_8internal12ReturnActionIT_EES3_
FN:1074,_ZN7testing9DoDefaultEv
FNDA:0,_ZNK7testing6ActionIFivEE11IsDoDefaultEv
FNDA:21,_ZN7testing12DefaultValueIiE5IsSetEv
FNDA:0,_ZN7testing8internal19BuiltInDefaultValueI11MIDI_read_tE3GetEv
FNDA:212,_ZN7testing6ActionIFihEEC2EPNS_15ActionInterfaceIS1_EE
FNDA:0,_ZN7testing12DefaultValueI11MIDI_read_tE6ExistsEv
FNDA:146,_ZNK7testing8internal12ReturnActionIiEcvNS_6ActionIT_EEIFmvEEEv
FNDA:0,_ZNK7testing6ActionIFivEE7PerformESt5tupleIJEE
FNDA:10,_ZN7testing15ActionInterfaceIFlvEEC2Ev
FNDA:0,_ZNK7testing6ActionIFvhhhhEE11IsDoDefaultEv
FNDA:0,_ZNK7testing6ActionIFvhEE7PerformESt5tupleIJhEE
FNDA:0,_ZNK7testing6ActionIFvhhhhEE7PerformESt5tupleIJhhhhEE
FNDA:7,_ZN7testing6ActionIFlvEEC2Ev
FNDA:156,_ZN7testing8internal12ReturnActionIiEC2Ei
FNDA:1,_ZN7testing8internal12ReturnActionIjEC2Ej
FNDA:0,_ZN7testing15ActionInterfaceIFihEED0Ev
FNDA:1,_ZN7testing8internal12ReturnActionIjE4ImplIjFmvEE7PerformERKSt5tupleIJEE
FNDA:0,_ZNK7testing6ActionIFstEE11IsDoDefaultEv
FNDA:175,_ZNK7testing8internal15DoDefaultActioncvNS_6ActionIT_EEIFvhhEEEv
FNDA:0,_ZNK7testing6ActionIFvhhEE7PerformESt5tupleIJhhEE
FNDA:1,_ZNK7testing8internal15DoDefaultActioncvNS_6ActionIT_EEIFmhEEEv
FNDA:0,_ZN7testing12DefaultValueIsE3GetEv
FNDA:0,_ZNK7testing6ActionIFvmEE11IsDoDefaultEv
FNDA:0,_ZNK7testing6ActionIFvP18BLEServerCallbacksP26BLECharacteristicCallbacksEE7PerformESt5tupleIJS2_S4_EE
FNDA:0,_ZNK7testing6ActionIFvmEE7PerformESt5tupleIJmEE
FNDA:0,_ZNK7testing6ActionIFvPhmEE7PerformESt5tupleIJS1_mEE
FNDA:0,_ZNK7testing6ActionIFmvEE7PerformESt5tupleIJEE
FNDA:10,_ZNK7testing8internal12ReturnActionIiEcvNS_6ActionIT_EEIFlvEEEv
FNDA:147,_ZN7testing15ActionInterfaceIFmvEEC2Ev
FNDA:212,_ZN7testing8internal12ReturnActionIhE4ImplIhFihEE7PerformERKSt5tupleIJhEE
FNDA:0,_ZN7testing8internal19BuiltInDefaultValueI11MIDI_read_tE6ExistsEv
FNDA:26,_ZNK7testing8internal15DoDefaultActioncvNS_6ActionIT_EEIFvhEEEv
FNDA:10,_ZNK7testing6ActionIFvP18BLEServerCallbacksP26BLECharacteristicCallbacksEE11IsDoDefaultEv
FNDA:1,_ZN7testing6ReturnIjEENS_8internal12ReturnActionIT_EES3_
FNDA:188,_ZN7testing8internal12ReturnActionIiE4ImplIiFmvEE7PerformERKSt5tupleIJEE
FNDA:0,_ZNK7testing6ActionIFvthEE11IsDoDefaultEv
FNDA:4,_ZN7testing6ActionIFmPKhmEEC2Ev
FNDA:4,_ZNK7testing8internal15DoDefaultActioncvNS_6ActionIT_EEIFmPKhmEEEv
FNDA:0,_ZN7testing12DefaultValueINSt7__cxx1112basic_stringIcSt11char_traitsIcESaIcEEEE6ExistsEv
FNDA:282,_ZN7testing12DefaultValueIvE6ExistsEv
FNDA:10,_ZN7testing6ActionIFvP18BLEServerCallbacksP26BLECharacteristicCallbacksEEC2Ev
FNDA:10,_ZN7testing15ActionInterfaceIFlvEED2Ev
FNDA:5,_ZN7testing12DefaultValueImE3GetEv
FNDA:0,_ZNK7testing6ActionIFvPKhmhEE7PerformESt5tupleIJS2_mhEE
FNDA:0,_ZN7testing8internal19BuiltInDefaultValueIlE3GetEv
FNDA:10,_ZN7testing6ActionIFlvEE13ActionAdapterclIJEEElDpOT_
FNDA:10,_ZN7testing8internal12ReturnActionIiE4ImplIiFlvEE7PerformERKSt5tupleIJEE
FNDA:4,_ZN7testing6ActionIFitEEC2Ev
FNDA:0,_ZN7testing12DefaultValueIlE5IsSetEv
FNDA:5,_ZN7testing12DefaultValueImE5IsSetEv
FNDA:156,_ZN7testing6ReturnIiEENS_8internal12ReturnActionIT_EES3_
FNDA:0,_ZNK7testing6ActionIFvtsEE11IsDoDefaultEv
FNDA:378,_ZNK7testing6ActionIFmvEE11IsDoDefaultEv
FNDA:4,_ZNK7testing8internal15DoDefaultActioncvNS_6ActionIT_EEIFitEEEv
FNDA:0,_ZN7testing12DefaultValueIlE3GetEv
FNDA:7,_ZNK7testing8internal15DoDefaultActioncvNS_6ActionIT_EEIFlvEEEv
FNDA:0,_ZNK7testing6ActionIFvtsEE7PerformESt5tupleIJtsEE
FNDA:145,_ZNK7testing8internal15DoDefaultActioncvNS_6ActionIT_EEIFmvEEEv
FNDA:5,_ZN7testing8internal19BuiltInDefaultValueImE3GetEv
FNDA:4,_ZNK7testing6ActionIFitEE11IsDoDefaultEv
FNDA:5,_ZNK7testing6ActionIFvvEE11IsDoDefaultEv
FNDA:0,_ZNK7testing6ActionIFmPKhmEE7PerformESt5tupleIJS2_mEE
FNDA:0,_ZNK7testing6ActionIFmhEE7PerformESt5tupleIJhEE
FNDA:0,_ZNK7testing6ActionIFvP26BLECharacteristicCallbacksEE7PerformESt5tupleIJS2_EE
FNDA:0,_ZN7testing8internal25BuiltInDefaultValueGetterI11MIDI_read_tLb1EE3GetEv
FNDA:1,_ZN7testing6ActionIFmhEEC2Ev
FNDA:0,_ZNK7testing6ActionIFvhiEE7PerformESt5tupleIJhiEE
FNDA:146,_ZN7testing8internal12ReturnActionIiE4ImplIiFmvEEC2ERKSt10shared_ptrIiE
FNDA:0,_ZN7testing12DefaultValueIsE6ExistsEv
FNDA:26,_ZN7testing6ActionIFvhEEC2Ev
FNDA:1,_ZN7testing8internal12ReturnActionIjE4ImplIjFmvEEC2ERKSt10shared_ptrIjE
FNDA:0,_ZNK7testing6ActionIFstEE7PerformESt5tupleIJtEE
FNDA:0,_ZN7testing12DefaultValueI11MIDI_read_tE3GetEv
FNDA:0,_ZN7testing8internal19BuiltInDefaultValueIsE3GetEv
FNDA:0,_ZN7testing12DefaultValueINSt7__cxx1112basic_stringIcSt11char_traitsIcESaIcEEEE3GetEv
FNDA:64,_ZN7testing6ActionIFvhhhhhEEC2Ev
FNDA:5,_ZN7testing12DefaultValueImE6ExistsEv
FNDA:145,_ZN7testing6ActionIFmvEEC2Ev
FNDA:21,_ZN7testing12DefaultValueIiE3GetEv
FNDA:0,_ZN7testing8internal19BuiltInDefaultValueINSt7__cxx1112basic_stringIcSt11char_traitsIcESaIcEEEE6ExistsEv
FNDA:0,_ZN7testing15ActionInterfaceIFlvEED0Ev
FNDA:0,_ZNK7testing6ActionIFvPKhmhEE11IsDoDefaultEv
FNDA:0,_ZNK7testing6ActionIFvhhhhhEE7PerformESt5tupleIJhhhhhEE
FNDA:10,_ZN7testing6ActionIFlvEEC2EPNS_15ActionInterfaceIS1_EE
FNDA:0,_ZN7testing15ActionInterfaceIFmvEED0Ev
FNDA:1,_ZNK7testing6ActionIFmhEE11IsDoDefaultEv
FNDA:0,_ZNK7testing6ActionIFNSt7__cxx1112basic_stringIcSt11char_traitsIcESaIcEEEvEE11IsDoDefaultEv
FNDA:147,_ZN7testing6ActionIFmvEEC2EPNS_15ActionInterfaceIS1_EE
FNDA:0,_ZNK7testing6ActionIFvP18BLEServerCallbacksEE11IsDoDefaultEv
FNDA:21,_ZN7testing12DefaultValueIiE6ExistsEv
FNDA:5,_ZN7testing6ActionIFvvEEC2Ev
FNDA:0,_ZNK7testing6ActionIFvP26BLECharacteristicCallbacksEE11IsDoDefaultEv
FNDA:21,_ZN7testing8internal19BuiltInDefaultValueIiE3GetEv
FNDA:212,_ZN7testing8internal12ReturnActionIhE4ImplIhFihEEC2ERKSt10shared_ptrIhE
FNDA:10,_ZNK7testing6ActionIFlvEE7PerformESt5tupleIJEE
FNDA:0,_ZN7testing12DefaultValueIsE5IsSetEv
FNDA:0,_ZNK7testing6ActionIFvthEE7PerformESt5tupleIJthEE
FNDA:0,_ZNK7testing6ActionIFitEE7PerformESt5tupleIJtEE
FNDA:0,_ZN7testing12DefaultValueI11MIDI_read_tE5IsSetEv
FNDA:0,_ZNK7testing6ActionIFvPhmEE11IsDoDefaultEv
FNDA:1,_ZNK7testing8internal12ReturnActionIjEcvNS_6ActionIT_EEIFmvEEEv
FNDA:198,_ZN7testing6ActionIFihEEC2Ev
FNDA:10,_ZNK7testing8internal15DoDefaultActioncvNS_6ActionIT_EEIFvP18BLEServerCallbacksP26BLECharacteristicCallbacksEEEv
FNDA:212,_ZNK7testing8internal12ReturnActionIhEcvNS_6ActionIT_EEIFihEEEv
FNDA:5,_ZNK7testing8internal15DoDefaultActioncvNS_6ActionIT_EEIFvvEEEv
FNDA:212,_ZN7testing8internal12ReturnActionIhEC2Eh
FNDA:10,_ZN7testing8internal12ReturnActionIiE4ImplIiFlvEEC2ERKSt10shared_ptrIiE
FNDA:64,_ZNK7testing8internal15DoDefaultActioncvNS_6ActionIT_EEIFvhhhhhEEEv
FNDA:4,_ZNK7testing6ActionIFmPKhmEE11IsDoDefaultEv
FNDA:0,_ZN7testing8internal19BuiltInDefaultValueIlE6ExistsEv
FNDA:5,_ZN7testing8internal19BuiltInDefaultValueImE6ExistsEv
FNDA:0,_ZNK7testing6ActionIFvvEE7PerformESt5tupleIJEE
FNDA:175,_ZN7testing6ActionIFvhhEEC2Ev
FNDA:212,_ZN7testing15ActionInterfaceIFihEEC2Ev
FNDA:0,_ZN7testing8internal19BuiltInDefaultValueIsE6ExistsEv
FNDA:66,_ZNK7testing6ActionIFvhhhhhEE11IsDoDefaultEv
FNDA:21,_ZN7testing8internal19BuiltInDefaultValueIiE6ExistsEv
FNDA:0,_ZNK7testing6ActionIFvP18BLEServerCallbacksEE7PerformESt5tupleIJS2_EE
FNDA:282,_ZN7testing12DefaultValueIvE3GetEv
FNDA:198,_ZNK7testing8internal15DoDefaultActioncvNS_6ActionIT_EEIFihEEEv
FNDA:212,_ZN7testing15ActionInterfaceIFihEED2Ev
FNDA:0,_ZNK7testing6ActionIFihEE7PerformESt5tupleIJhEE
FNDA:0,_ZN7testing12DefaultValueINSt7__cxx1112basic_stringIcSt11char_traitsIcESaIcEEEE5IsSetEv
FNDA:0,_ZN7testing12DefaultValueIlE6ExistsEv
FNDA:26,_ZNK7testing6ActionIFvhEE11IsDoDefaultEv
FNDA:20,_ZNK7testing6ActionIFlvEE11IsDoDefaultEv
FNDA:0,_ZNK7testing6ActionIF11MIDI_read_tvEE11IsDoDefaultEv
FNDA:639,_ZN7testing9DoDefaultEv
FNDA:441,_ZNK7testing6ActionIFihEE11IsDoDefaultEv
FNDA:147,_ZN7testing15ActionInterfaceIFmvEED2Ev
FNDA:175,_ZNK7testing6ActionIFvhhEE11IsDoDefaultEv
FNDA:0,_ZN7testing8internal19BuiltInDefaultValueINSt7__cxx1112basic_stringIcSt11char_traitsIcESaIcEEEE3GetEv
FNDA:212,_ZN7testing6ReturnIhEENS_8internal12ReturnActionIT_EES3_
FNDA:0,_ZNK7testing6ActionIFNSt7__cxx1112basic_stringIcSt11char_traitsIcESaIcEEEvEE7PerformESt5tupleIJEE
FNDA:0,_ZNK7testing6ActionIF11MIDI_read_tvEE7PerformESt5tupleIJEE
FNDA:212,_ZN7testing6ActionIFihEE13ActionAdapterclIJhEEEiDpOT_
FNDA:0,_ZNK7testing6ActionIFvhiEE11IsDoDefaultEv
FNDA:189,_ZN7testing6ActionIFmvEE13ActionAdapterclIJEEEmDpOT_
FNF:137
FNH:77
DA:79,0
DA:103,0
DA:104,0
DA:107,0
DA:109,0
DA:142,0
DA:159,0
DA:161,42
DA:162,10
DA:163,0
DA:212,26
DA:216,26
DA:217,26
DA:223,26
DA:224,26
DA:225,26
DA:298,282
DA:299,282
DA:317,369
DA:318,369
DA:346,411
DA:347,411
DA:348,411
DA:358,639
DA:369,369
DA:370,369
DA:379,1130
DA:387,411
DA:388,411
DA:389,0
DA:391,411
DA:519,369
DA:524,369
DA:539,369
DA:557,369
DA:558,369
DA:559,369
DA:561,411
DA:724,639
DA:1036,369
DA:1037,369
DA:1074,639
DA:1075,639
LF:43
LH:34
end_of_record
TN:
SF:/home/pieter/GitHub/Control-Surface/build/googletest/googletest-src/googlemock/include/gmock/gmock-cardinalities.h
FN:107,_ZNK7testing11Cardinality22IsSaturatedByCallCountEi
FNDA:1438,_ZNK7testing11Cardinality22IsSaturatedByCallCountEi
FNF:1
FNH:1
DA:107,1438
DA:108,1438
LF:2
LH:2
end_of_record
TN:
SF:/home/pieter/GitHub/Control-Surface/build/googletest/googletest-src/googlemock/include/gmock/gmock-matchers.h
FN:90,_ZN7testing25StringMatchResultListenerC2Ev
FN:93,_ZNK7testing25StringMatchResultListener3strB5cxx11Ev
FN:121,_ZN7testing8internal15MatcherCastImplIRKhcE4CastERKc
FN:121,_ZN7testing8internal15MatcherCastImplIRKSt5tupleIJPKhmEENS0_18ElementsAreMatcherIS2_IJccEEEEE4CastERKSA_
FN:121,_ZN7testing8internal15MatcherCastImplIRKSt5tupleIJPKhmEENS0_18ElementsAreMatcherIS2_IJiiiEEEEE4CastERKSA_
FN:121,_ZN7testing8internal15MatcherCastImplIRKSt5tupleIJPKhmEENS0_18ElementsAreMatcherIS2_IJccccEEEEE4CastERKSA_
FN:121,_ZN7testing8internal15MatcherCastImplIRKhiE4CastERKi
FN:145,_ZN7testing8internal15MatcherCastImplIRKSt5tupleIJPKhmEENS0_18ElementsAreMatcherIS2_IJccEEEEE8CastImplILb0EEENS_7MatcherIS7_EERKSA_NS0_15BooleanConstantILb1EEENSH_IXT_EEE
FN:145,_ZN7testing8internal15MatcherCastImplIRKSt5tupleIJPKhmEENS0_18ElementsAreMatcherIS2_IJccccEEEEE8CastImplILb0EEENS_7MatcherIS7_EERKSA_NS0_15BooleanConstantILb1EEENSH_IXT_EEE
FN:145,_ZN7testing8internal15MatcherCastImplIRKhcE8CastImplILb1EEENS_7MatcherIS3_EERKcNS0_15BooleanConstantILb1EEENSA_IXT_EEE
FN:145,_ZN7testing8internal15MatcherCastImplIRKSt5tupleIJPKhmEENS0_18ElementsAreMatcherIS2_IJiiiEEEEE8CastImplILb0EEENS_7MatcherIS7_EERKSA_NS0_15BooleanConstantILb1EEENSH_IXT_EEE
FN:145,_ZN7testing8internal15MatcherCastImplIRKhiE8CastImplILb1EEENS_7MatcherIS3_EERKiNS0_15BooleanConstantILb1EEENSA_IXT_EEE
FN:238,_ZN7testing8internal15MatcherCastImplIRKhNS_7MatcherIS3_EEE4CastERKS5_
FN:248,_ZN7testing11MatcherCastIRKhcEENS_7MatcherIT_EERKT0_
FN:248,_ZN7testing11MatcherCastIRKhNS_7MatcherIS2_EEEENS3_IT_EERKT0_
FN:248,_ZN7testing11MatcherCastIRKhiEENS_7MatcherIT_EERKT0_
FN:262,_ZN7testing19SafeMatcherCastImplIRKSt5tupleIJPKhmEEE4CastINS_8internal18ElementsAreMatcherIS1_IJiiiEEEEEENS_7MatcherIS6_EERKT_
FN:262,_ZN7testing19SafeMatcherCastImplIRKSt5tupleIJPKhmEEE4CastINS_8internal18ElementsAreMatcherIS1_IJccEEEEEENS_7MatcherIS6_EERKT_
FN:262,_ZN7testing19SafeMatcherCastImplIRKSt5tupleIJPKhmEEE4CastINS_8internal18ElementsAreMatcherIS1_IJccccEEEEEENS_7MatcherIS6_EERKT_
FN:300,_ZN7testing15SafeMatcherCastIRKSt5tupleIJPKhmEENS_8internal18ElementsAreMatcherIS1_IJiiiEEEEEENS_7MatcherIT_EERKT0_
FN:300,_ZN7testing15SafeMatcherCastIRKSt5tupleIJPKhmEENS_8internal18ElementsAreMatcherIS1_IJccccEEEEEENS_7MatcherIT_EERKT0_
FN:300,_ZN7testing15SafeMatcherCastIRKSt5tupleIJPKhmEENS_8internal18ElementsAreMatcherIS1_IJccEEEEEENS_7MatcherIT_EERKT0_
FN:313,_ZN7testing8internal15PrintIfNotEmptyERKNSt7__cxx1112basic_stringIcSt11char_traitsIcESaIcEEEPSo
FN:367,_ZN7testing8internal11TuplePrefixILm1EE7MatchesISt5tupleIJNS_7MatcherIhEES6_EES4_IJhhEEEEbRKT_RKT0_
FN:367,_ZN7testing8internal11TuplePrefixILm1EE7MatchesISt5tupleIJNS_7MatcherIhEES6_S6_S6_EES4_IJhhhhEEEEbRKT_RKT0_
FN:367,_ZN7testing8internal11TuplePrefixILm3EE7MatchesISt5tupleIJNS_7MatcherIhEES6_S6_S6_EES4_IJhhhhEEEEbRKT_RKT0_
FN:367,_ZN7testing8internal11TuplePrefixILm2EE7MatchesISt5tupleIJNS_7MatcherItEENS5_IsEEEES4_IJtsEEEEbRKT_RKT0_
FN:367,_ZN7testing8internal11TuplePrefixILm2EE7MatchesISt5tupleIJNS_7MatcherIhEES6_S6_S6_S6_EES4_IJhhhhhEEEEbRKT_RKT0_
FN:367,_ZN7testing8internal11TuplePrefixILm5EE7MatchesISt5tupleIJNS_7MatcherIhEES6_S6_S6_S6_EES4_IJhhhhhEEEEbRKT_RKT0_
FN:367,_ZN7testing8internal11TuplePrefixILm2EE7MatchesISt5tupleIJNS_7MatcherIPKhEENS5_ImEENS5_IhEEEES4_IJS7_mhEEEEbRKT_RKT0_
FN:367,_ZN7testing8internal11TuplePrefixILm2EE7MatchesISt5tupleIJNS_7MatcherItEENS5_IhEEEES4_IJthEEEEbRKT_RKT0_
FN:367,_ZN7testing8internal11TuplePrefixILm1EE7MatchesISt5tupleIJNS_7MatcherImEEEES4_IJmEEEEbRKT_RKT0_
FN:367,_ZN7testing8internal11TuplePrefixILm3EE7MatchesISt5tupleIJNS_7MatcherIPKhEENS5_ImEENS5_IhEEEES4_IJS7_mhEEEEbRKT_RKT0_
FN:367,_ZN7testing8internal11TuplePrefixILm1EE7MatchesISt5tupleIJNS_7MatcherIPhEENS5_ImEEEES4_IJS6_mEEEEbRKT_RKT0_
FN:367,_ZN7testing8internal11TuplePrefixILm4EE7MatchesISt5tupleIJNS_7MatcherIhEES6_S6_S6_EES4_IJhhhhEEEEbRKT_RKT0_
FN:367,_ZN7testing8internal11TuplePrefixILm3EE7MatchesISt5tupleIJNS_7MatcherIhEES6_S6_S6_S6_EES4_IJhhhhhEEEEbRKT_RKT0_
FN:367,_ZN7testing8internal11TuplePrefixILm1EE7MatchesISt5tupleIJNS_7MatcherIP18BLEServerCallbacksEENS5_IP26BLECharacteristicCallbacksEEEES4_IJS7_SA_EEEEbRKT_RKT0_
FN:367,_ZN7testing8internal11TuplePrefixILm1EE7MatchesISt5tupleIJNS_7MatcherItEENS5_IhEEEES4_IJthEEEEbRKT_RKT0_
FN:367,_ZN7testing8internal11TuplePrefixILm1EE7MatchesISt5tupleIJNS_7MatcherIP18BLEServerCallbacksEEEES4_IJS7_EEEEbRKT_RKT0_
FN:367,_ZN7testing8internal11TuplePrefixILm1EE7MatchesISt5tupleIJNS_7MatcherIhEES6_S6_S6_S6_EES4_IJhhhhhEEEEbRKT_RKT0_
FN:367,_ZN7testing8internal11TuplePrefixILm2EE7MatchesISt5tupleIJNS_7MatcherIP18BLEServerCallbacksEENS5_IP26BLECharacteristicCallbacksEEEES4_IJS7_SA_EEEEbRKT_RKT0_
FN:367,_ZN7testing8internal11TuplePrefixILm2EE7MatchesISt5tupleIJNS_7MatcherIPKhEENS5_ImEEEES4_IJS7_mEEEEbRKT_RKT0_
FN:367,_ZN7testing8internal11TuplePrefixILm1EE7MatchesISt5tupleIJNS_7MatcherIPKhEENS5_ImEENS5_IhEEEES4_IJS7_mhEEEEbRKT_RKT0_
FN:367,_ZN7testing8internal11TuplePrefixILm1EE7MatchesISt5tupleIJNS_7MatcherIhEENS5_IiEEEES4_IJhiEEEEbRKT_RKT0_
FN:367,_ZN7testing8internal11TuplePrefixILm1EE7MatchesISt5tupleIJNS_7MatcherItEEEES4_IJtEEEEbRKT_RKT0_
FN:367,_ZN7testing8internal11TuplePrefixILm2EE7MatchesISt5tupleIJNS_7MatcherIPhEENS5_ImEEEES4_IJS6_mEEEEbRKT_RKT0_
FN:367,_ZN7testing8internal11TuplePrefixILm2EE7MatchesISt5tupleIJNS_7MatcherIhEES6_S6_S6_EES4_IJhhhhEEEEbRKT_RKT0_
FN:367,_ZN7testing8internal11TuplePrefixILm4EE7MatchesISt5tupleIJNS_7MatcherIhEES6_S6_S6_S6_EES4_IJhhhhhEEEEbRKT_RKT0_
FN:367,_ZN7testing8internal11TuplePrefixILm2EE7MatchesISt5tupleIJNS_7MatcherIhEENS5_IiEEEES4_IJhiEEEEbRKT_RKT0_
FN:367,_ZN7testing8internal11TuplePrefixILm1EE7MatchesISt5tupleIJNS_7MatcherIPKhEENS5_ImEEEES4_IJS7_mEEEEbRKT_RKT0_
FN:367,_ZN7testing8internal11TuplePrefixILm1EE7MatchesISt5tupleIJNS_7MatcherIhEEEES4_IJhEEEEbRKT_RKT0_
FN:367,_ZN7testing8internal11TuplePrefixILm2EE7MatchesISt5tupleIJNS_7MatcherIhEES6_EES4_IJhhEEEEbRKT_RKT0_
FN:367,_ZN7testing8internal11TuplePrefixILm1EE7MatchesISt5tupleIJNS_7MatcherIP26BLECharacteristicCallbacksEEEES4_IJS7_EEEEbRKT_RKT0_
FN:367,_ZN7testing8internal11TuplePrefixILm1EE7MatchesISt5tupleIJNS_7MatcherItEENS5_IsEEEES4_IJtsEEEEbRKT_RKT0_
FN:378,_ZN7testing8internal11TuplePrefixILm1EE22ExplainMatchFailuresToISt5tupleIJNS_7MatcherIPKhEENS5_ImEEEES4_IJS7_mEEEEvRKT_RKT0_PSo
FN:378,_ZN7testing8internal11TuplePrefixILm2EE22ExplainMatchFailuresToISt5tupleIJNS_7MatcherIhEES6_S6_S6_EES4_IJhhhhEEEEvRKT_RKT0_PSo
FN:378,_ZN7testing8internal11TuplePrefixILm1EE22ExplainMatchFailuresToISt5tupleIJNS_7MatcherItEENS5_IhEEEES4_IJthEEEEvRKT_RKT0_PSo
FN:378,_ZN7testing8internal11TuplePrefixILm1EE22ExplainMatchFailuresToISt5tupleIJNS_7MatcherIP18BLEServerCallbacksEENS5_IP26BLECharacteristicCallbacksEEEES4_IJS7_SA_EEEEvRKT_RKT0_PSo
FN:378,_ZN7testing8internal11TuplePrefixILm2EE22ExplainMatchFailuresToISt5tupleIJNS_7MatcherIhEES6_EES4_IJhhEEEEvRKT_RKT0_PSo
FN:378,_ZN7testing8internal11TuplePrefixILm1EE22ExplainMatchFailuresToISt5tupleIJNS_7MatcherIhEES6_EES4_IJhhEEEEvRKT_RKT0_PSo
FN:378,_ZN7testing8internal11TuplePrefixILm2EE22ExplainMatchFailuresToISt5tupleIJNS_7MatcherIhEES6_S6_S6_S6_EES4_IJhhhhhEEEEvRKT_RKT0_PSo
FN:378,_ZN7testing8internal11TuplePrefixILm1EE22ExplainMatchFailuresToISt5tupleIJNS_7MatcherIPhEENS5_ImEEEES4_IJS6_mEEEEvRKT_RKT0_PSo
FN:378,_ZN7testing8internal11TuplePrefixILm2EE22ExplainMatchFailuresToISt5tupleIJNS_7MatcherItEENS5_IsEEEES4_IJtsEEEEvRKT_RKT0_PSo
FN:378,_ZN7testing8internal11TuplePrefixILm1EE22ExplainMatchFailuresToISt5tupleIJNS_7MatcherIhEEEES4_IJhEEEEvRKT_RKT0_PSo
FN:378,_ZN7testing8internal11TuplePrefixILm1EE22ExplainMatchFailuresToISt5tupleIJNS_7MatcherIhEES6_S6_S6_S6_EES4_IJhhhhhEEEEvRKT_RKT0_PSo
FN:378,_ZN7testing8internal11TuplePrefixILm2EE22ExplainMatchFailuresToISt5tupleIJNS_7MatcherIPKhEENS5_ImEEEES4_IJS7_mEEEEvRKT_RKT0_PSo
FN:378,_ZN7testing8internal11TuplePrefixILm1EE22ExplainMatchFailuresToISt5tupleIJNS_7MatcherItEENS5_IsEEEES4_IJtsEEEEvRKT_RKT0_PSo
FN:378,_ZN7testing8internal11TuplePrefixILm1EE22ExplainMatchFailuresToISt5tupleIJNS_7MatcherItEEEES4_IJtEEEEvRKT_RKT0_PSo
FN:378,_ZN7testing8internal11TuplePrefixILm2EE22ExplainMatchFailuresToISt5tupleIJNS_7MatcherIP18BLEServerCallbacksEENS5_IP26BLECharacteristicCallbacksEEEES4_IJS7_SA_EEEEvRKT_RKT0_PSo
FN:378,_ZN7testing8internal11TuplePrefixILm2EE22ExplainMatchFailuresToISt5tupleIJNS_7MatcherIhEENS5_IiEEEES4_IJhiEEEEvRKT_RKT0_PSo
FN:378,_ZN7testing8internal11TuplePrefixILm2EE22ExplainMatchFailuresToISt5tupleIJNS_7MatcherIPhEENS5_ImEEEES4_IJS6_mEEEEvRKT_RKT0_PSo
FN:378,_ZN7testing8internal11TuplePrefixILm1EE22ExplainMatchFailuresToISt5tupleIJNS_7MatcherIP26BLECharacteristicCallbacksEEEES4_IJS7_EEEEvRKT_RKT0_PSo
FN:378,_ZN7testing8internal11TuplePrefixILm1EE22ExplainMatchFailuresToISt5tupleIJNS_7MatcherIhEENS5_IiEEEES4_IJhiEEEEvRKT_RKT0_PSo
FN:378,_ZN7testing8internal11TuplePrefixILm2EE22ExplainMatchFailuresToISt5tupleIJNS_7MatcherIPKhEENS5_ImEENS5_IhEEEES4_IJS7_mhEEEEvRKT_RKT0_PSo
FN:378,_ZN7testing8internal11TuplePrefixILm4EE22ExplainMatchFailuresToISt5tupleIJNS_7MatcherIhEES6_S6_S6_EES4_IJhhhhEEEEvRKT_RKT0_PSo
FN:378,_ZN7testing8internal11TuplePrefixILm1EE22ExplainMatchFailuresToISt5tupleIJNS_7MatcherImEEEES4_IJmEEEEvRKT_RKT0_PSo
FN:378,_ZN7testing8internal11TuplePrefixILm3EE22ExplainMatchFailuresToISt5tupleIJNS_7MatcherIhEES6_S6_S6_S6_EES4_IJhhhhhEEEEvRKT_RKT0_PSo
FN:378,_ZN7testing8internal11TuplePrefixILm2EE22ExplainMatchFailuresToISt5tupleIJNS_7MatcherItEENS5_IhEEEES4_IJthEEEEvRKT_RKT0_PSo
FN:378,_ZN7testing8internal11TuplePrefixILm3EE22ExplainMatchFailuresToISt5tupleIJNS_7MatcherIhEES6_S6_S6_EES4_IJhhhhEEEEvRKT_RKT0_PSo
FN:378,_ZN7testing8internal11TuplePrefixILm1EE22ExplainMatchFailuresToISt5tupleIJNS_7MatcherIPKhEENS5_ImEENS5_IhEEEES4_IJS7_mhEEEEvRKT_RKT0_PSo
FN:378,_ZN7testing8internal11TuplePrefixILm1EE22ExplainMatchFailuresToISt5tupleIJNS_7MatcherIhEES6_S6_S6_EES4_IJhhhhEEEEvRKT_RKT0_PSo
FN:378,_ZN7testing8internal11TuplePrefixILm1EE22ExplainMatchFailuresToISt5tupleIJNS_7MatcherIP18BLEServerCallbacksEEEES4_IJS7_EEEEvRKT_RKT0_PSo
FN:378,_ZN7testing8internal11TuplePrefixILm5EE22ExplainMatchFailuresToISt5tupleIJNS_7MatcherIhEES6_S6_S6_S6_EES4_IJhhhhhEEEEvRKT_RKT0_PSo
FN:378,_ZN7testing8internal11TuplePrefixILm3EE22ExplainMatchFailuresToISt5tupleIJNS_7MatcherIPKhEENS5_ImEENS5_IhEEEES4_IJS7_mhEEEEvRKT_RKT0_PSo
FN:378,_ZN7testing8internal11TuplePrefixILm4EE22ExplainMatchFailuresToISt5tupleIJNS_7MatcherIhEES6_S6_S6_S6_EES4_IJhhhhhEEEEvRKT_RKT0_PSo
FN:412,_ZN7testing8internal11TuplePrefixILm0EE7MatchesISt5tupleIJNS_7MatcherItEENS5_IsEEEES4_IJtsEEEEbRKT_RKT0_
FN:412,_ZN7testing8internal11TuplePrefixILm0EE7MatchesISt5tupleIJNS_7MatcherItEEEES4_IJtEEEEbRKT_RKT0_
FN:412,_ZN7testing8internal11TuplePrefixILm0EE7MatchesISt5tupleIJNS_7MatcherIP18BLEServerCallbacksEENS5_IP26BLECharacteristicCallbacksEEEES4_IJS7_SA_EEEEbRKT_RKT0_
FN:412,_ZN7testing8internal11TuplePrefixILm0EE7MatchesISt5tupleIJNS_7MatcherIhEES6_S6_S6_S6_EES4_IJhhhhhEEEEbRKT_RKT0_
FN:412,_ZN7testing8internal11TuplePrefixILm0EE7MatchesISt5tupleIJEES5_EEbRKT_RKT0_
FN:412,_ZN7testing8internal11TuplePrefixILm0EE7MatchesISt5tupleIJNS_7MatcherImEEEES4_IJmEEEEbRKT_RKT0_
FN:412,_ZN7testing8internal11TuplePrefixILm0EE7MatchesISt5tupleIJNS_7MatcherIP26BLECharacteristicCallbacksEEEES4_IJS7_EEEEbRKT_RKT0_
FN:412,_ZN7testing8internal11TuplePrefixILm0EE7MatchesISt5tupleIJNS_7MatcherIhEENS5_IiEEEES4_IJhiEEEEbRKT_RKT0_
FN:412,_ZN7testing8internal11TuplePrefixILm0EE7MatchesISt5tupleIJNS_7MatcherIhEES6_S6_S6_EES4_IJhhhhEEEEbRKT_RKT0_
FN:412,_ZN7testing8internal11TuplePrefixILm0EE7MatchesISt5tupleIJNS_7MatcherItEENS5_IhEEEES4_IJthEEEEbRKT_RKT0_
FN:412,_ZN7testing8internal11TuplePrefixILm0EE7MatchesISt5tupleIJNS_7MatcherIP18BLEServerCallbacksEEEES4_IJS7_EEEEbRKT_RKT0_
FN:412,_ZN7testing8internal11TuplePrefixILm0EE7MatchesISt5tupleIJNS_7MatcherIhEEEES4_IJhEEEEbRKT_RKT0_
FN:412,_ZN7testing8internal11TuplePrefixILm0EE7MatchesISt5tupleIJNS_7MatcherIhEES6_EES4_IJhhEEEEbRKT_RKT0_
FN:412,_ZN7testing8internal11TuplePrefixILm0EE7MatchesISt5tupleIJNS_7MatcherIPhEENS5_ImEEEES4_IJS6_mEEEEbRKT_RKT0_
FN:412,_ZN7testing8internal11TuplePrefixILm0EE7MatchesISt5tupleIJNS_7MatcherIPKhEENS5_ImEENS5_IhEEEES4_IJS7_mhEEEEbRKT_RKT0_
FN:412,_ZN7testing8internal11TuplePrefixILm0EE7MatchesISt5tupleIJNS_7MatcherIPKhEENS5_ImEEEES4_IJS7_mEEEEbRKT_RKT0_
FN:418,_ZN7testing8internal11TuplePrefixILm0EE22ExplainMatchFailuresToISt5tupleIJEES5_EEvRKT_RKT0_PSo
FN:418,_ZN7testing8internal11TuplePrefixILm0EE22ExplainMatchFailuresToISt5tupleIJNS_7MatcherIhEEEES4_IJhEEEEvRKT_RKT0_PSo
FN:418,_ZN7testing8internal11TuplePrefixILm0EE22ExplainMatchFailuresToISt5tupleIJNS_7MatcherIP18BLEServerCallbacksEENS5_IP26BLECharacteristicCallbacksEEEES4_IJS7_SA_EEEEvRKT_RKT0_PSo
FN:418,_ZN7testing8internal11TuplePrefixILm0EE22ExplainMatchFailuresToISt5tupleIJNS_7MatcherIPKhEENS5_ImEENS5_IhEEEES4_IJS7_mhEEEEvRKT_RKT0_PSo
FN:418,_ZN7testing8internal11TuplePrefixILm0EE22ExplainMatchFailuresToISt5tupleIJNS_7MatcherIhEES6_S6_S6_S6_EES4_IJhhhhhEEEEvRKT_RKT0_PSo
FN:418,_ZN7testing8internal11TuplePrefixILm0EE22ExplainMatchFailuresToISt5tupleIJNS_7MatcherIhEENS5_IiEEEES4_IJhiEEEEvRKT_RKT0_PSo
FN:418,_ZN7testing8internal11TuplePrefixILm0EE22ExplainMatchFailuresToISt5tupleIJNS_7MatcherIP18BLEServerCallbacksEEEES4_IJS7_EEEEvRKT_RKT0_PSo
FN:418,_ZN7testing8internal11TuplePrefixILm0EE22ExplainMatchFailuresToISt5tupleIJNS_7MatcherIPhEENS5_ImEEEES4_IJS6_mEEEEvRKT_RKT0_PSo
FN:418,_ZN7testing8internal11TuplePrefixILm0EE22ExplainMatchFailuresToISt5tupleIJNS_7MatcherIPKhEENS5_ImEEEES4_IJS7_mEEEEvRKT_RKT0_PSo
FN:418,_ZN7testing8internal11TuplePrefixILm0EE22ExplainMatchFailuresToISt5tupleIJNS_7MatcherIP26BLECharacteristicCallbacksEEEES4_IJS7_EEEEvRKT_RKT0_PSo
FN:418,_ZN7testing8internal11TuplePrefixILm0EE22ExplainMatchFailuresToISt5tupleIJNS_7MatcherItEEEES4_IJtEEEEvRKT_RKT0_PSo
FN:418,_ZN7testing8internal11TuplePrefixILm0EE22ExplainMatchFailuresToISt5tupleIJNS_7MatcherItEENS5_IsEEEES4_IJtsEEEEvRKT_RKT0_PSo
FN:418,_ZN7testing8internal11TuplePrefixILm0EE22ExplainMatchFailuresToISt5tupleIJNS_7MatcherIhEES6_S6_S6_EES4_IJhhhhEEEEvRKT_RKT0_PSo
FN:418,_ZN7testing8internal11TuplePrefixILm0EE22ExplainMatchFailuresToISt5tupleIJNS_7MatcherImEEEES4_IJmEEEEvRKT_RKT0_PSo
FN:418,_ZN7testing8internal11TuplePrefixILm0EE22ExplainMatchFailuresToISt5tupleIJNS_7MatcherItEENS5_IhEEEES4_IJthEEEEvRKT_RKT0_PSo
FN:418,_ZN7testing8internal11TuplePrefixILm0EE22ExplainMatchFailuresToISt5tupleIJNS_7MatcherIhEES6_EES4_IJhhEEEEvRKT_RKT0_PSo
FN:429,_ZN7testing8internal12TupleMatchesISt5tupleIJNS_7MatcherItEENS3_IsEEEES2_IJtsEEEEbRKT_RKT0_
FN:429,_ZN7testing8internal12TupleMatchesISt5tupleIJNS_7MatcherIhEES4_S4_S4_EES2_IJhhhhEEEEbRKT_RKT0_
FN:429,_ZN7testing8internal12TupleMatchesISt5tupleIJNS_7MatcherIhEENS3_IiEEEES2_IJhiEEEEbRKT_RKT0_
FN:429,_ZN7testing8internal12TupleMatchesISt5tupleIJEES3_EEbRKT_RKT0_
FN:429,_ZN7testing8internal12TupleMatchesISt5tupleIJNS_7MatcherItEEEES2_IJtEEEEbRKT_RKT0_
FN:429,_ZN7testing8internal12TupleMatchesISt5tupleIJNS_7MatcherIP26BLECharacteristicCallbacksEEEES2_IJS5_EEEEbRKT_RKT0_
FN:429,_ZN7testing8internal12TupleMatchesISt5tupleIJNS_7MatcherIPKhEENS3_ImEEEES2_IJS5_mEEEEbRKT_RKT0_
FN:429,_ZN7testing8internal12TupleMatchesISt5tupleIJNS_7MatcherIPKhEENS3_ImEENS3_IhEEEES2_IJS5_mhEEEEbRKT_RKT0_
FN:429,_ZN7testing8internal12TupleMatchesISt5tupleIJNS_7MatcherIhEES4_EES2_IJhhEEEEbRKT_RKT0_
FN:429,_ZN7testing8internal12TupleMatchesISt5tupleIJNS_7MatcherIPhEENS3_ImEEEES2_IJS4_mEEEEbRKT_RKT0_
FN:429,_ZN7testing8internal12TupleMatchesISt5tupleIJNS_7MatcherImEEEES2_IJmEEEEbRKT_RKT0_
FN:429,_ZN7testing8internal12TupleMatchesISt5tupleIJNS_7MatcherIP18BLEServerCallbacksEEEES2_IJS5_EEEEbRKT_RKT0_
FN:429,_ZN7testing8internal12TupleMatchesISt5tupleIJNS_7MatcherIhEEEES2_IJhEEEEbRKT_RKT0_
FN:429,_ZN7testing8internal12TupleMatchesISt5tupleIJNS_7MatcherIhEES4_S4_S4_S4_EES2_IJhhhhhEEEEbRKT_RKT0_
FN:429,_ZN7testing8internal12TupleMatchesISt5tupleIJNS_7MatcherIP18BLEServerCallbacksEENS3_IP26BLECharacteristicCallbacksEEEES2_IJS5_S8_EEEEbRKT_RKT0_
FN:429,_ZN7testing8internal12TupleMatchesISt5tupleIJNS_7MatcherItEENS3_IhEEEES2_IJthEEEEbRKT_RKT0_
FN:443,_ZN7testing8internal26ExplainMatchFailureTupleToISt5tupleIJNS_7MatcherIPhEENS3_ImEEEES2_IJS4_mEEEEvRKT_RKT0_PSo
FN:443,_ZN7testing8internal26ExplainMatchFailureTupleToISt5tupleIJNS_7MatcherIP18BLEServerCallbacksEEEES2_IJS5_EEEEvRKT_RKT0_PSo
FN:443,_ZN7testing8internal26ExplainMatchFailureTupleToISt5tupleIJNS_7MatcherImEEEES2_IJmEEEEvRKT_RKT0_PSo
FN:443,_ZN7testing8internal26ExplainMatchFailureTupleToISt5tupleIJNS_7MatcherIhEES4_S4_S4_S4_EES2_IJhhhhhEEEEvRKT_RKT0_PSo
FN:443,_ZN7testing8internal26ExplainMatchFailureTupleToISt5tupleIJNS_7MatcherIhEEEES2_IJhEEEEvRKT_RKT0_PSo
FN:443,_ZN7testing8internal26ExplainMatchFailureTupleToISt5tupleIJNS_7MatcherIP26BLECharacteristicCallbacksEEEES2_IJS5_EEEEvRKT_RKT0_PSo
FN:443,_ZN7testing8internal26ExplainMatchFailureTupleToISt5tupleIJNS_7MatcherItEEEES2_IJtEEEEvRKT_RKT0_PSo
FN:443,_ZN7testing8internal26ExplainMatchFailureTupleToISt5tupleIJNS_7MatcherIhEENS3_IiEEEES2_IJhiEEEEvRKT_RKT0_PSo
FN:443,_ZN7testing8internal26ExplainMatchFailureTupleToISt5tupleIJNS_7MatcherIP18BLEServerCallbacksEENS3_IP26BLECharacteristicCallbacksEEEES2_IJS5_S8_EEEEvRKT_RKT0_PSo
FN:443,_ZN7testing8internal26ExplainMatchFailureTupleToISt5tupleIJEES3_EEvRKT_RKT0_PSo
FN:443,_ZN7testing8internal26ExplainMatchFailureTupleToISt5tupleIJNS_7MatcherIhEES4_EES2_IJhhEEEEvRKT_RKT0_PSo
FN:443,_ZN7testing8internal26ExplainMatchFailureTupleToISt5tupleIJNS_7MatcherItEENS3_IsEEEES2_IJtsEEEEvRKT_RKT0_PSo
FN:443,_ZN7testing8internal26ExplainMatchFailureTupleToISt5tupleIJNS_7MatcherIhEES4_S4_S4_EES2_IJhhhhEEEEvRKT_RKT0_PSo
FN:443,_ZN7testing8internal26ExplainMatchFailureTupleToISt5tupleIJNS_7MatcherIPKhEENS3_ImEENS3_IhEEEES2_IJS5_mhEEEEvRKT_RKT0_PSo
FN:443,_ZN7testing8internal26ExplainMatchFailureTupleToISt5tupleIJNS_7MatcherItEENS3_IhEEEES2_IJthEEEEvRKT_RKT0_PSo
FN:443,_ZN7testing8internal26ExplainMatchFailureTupleToISt5tupleIJNS_7MatcherIPKhEENS3_ImEEEES2_IJS5_mEEEEvRKT_RKT0_PSo
FN:462,_ZN7testing8internal26TransformTupleValuesHelperISt5tupleIJccEENS0_22CastAndAppendTransformIRKhEESt20back_insert_iteratorISt6vectorINS_7MatcherIS6_EESaISB_EEEE3RunES7_RKS3_SE_
FN:462,_ZN7testing8internal26TransformTupleValuesHelperISt5tupleIJiiiEENS0_22CastAndAppendTransformIRKhEESt20back_insert_iteratorISt6vectorINS_7MatcherIS6_EESaISB_EEEE3RunES7_RKS3_SE_
FN:462,_ZN7testing8internal26TransformTupleValuesHelperISt5tupleIJccccEENS0_22CastAndAppendTransformIRKhEESt20back_insert_iteratorISt6vectorINS_7MatcherIS6_EESaISB_EEEE3RunES7_RKS3_SE_
FN:469,_ZNK7testing8internal26TransformTupleValuesHelperISt5tupleIJiiiEENS0_22CastAndAppendTransformIRKhEESt20back_insert_iteratorISt6vectorINS_7MatcherIS6_EESaISB_EEEE16IterateOverTupleIS3_Lm2EEclES7_RKS3_SE_
FN:469,_ZNK7testing8internal26TransformTupleValuesHelperISt5tupleIJiiiEENS0_22CastAndAppendTransformIRKhEESt20back_insert_iteratorISt6vectorINS_7MatcherIS6_EESaISB_EEEE16IterateOverTupleIS3_Lm3EEclES7_RKS3_SE_
FN:469,_ZNK7testing8internal26TransformTupleValuesHelperISt5tupleIJccEENS0_22CastAndAppendTransformIRKhEESt20back_insert_iteratorISt6vectorINS_7MatcherIS6_EESaISB_EEEE16IterateOverTupleIS3_Lm2EEclES7_RKS3_SE_
FN:469,_ZNK7testing8internal26TransformTupleValuesHelperISt5tupleIJccccEENS0_22CastAndAppendTransformIRKhEESt20back_insert_iteratorISt6vectorINS_7MatcherIS6_EESaISB_EEEE16IterateOverTupleIS3_Lm1EEclES7_RKS3_SE_
FN:469,_ZNK7testing8internal26TransformTupleValuesHelperISt5tupleIJccEENS0_22CastAndAppendTransformIRKhEESt20back_insert_iteratorISt6vectorINS_7MatcherIS6_EESaISB_EEEE16IterateOverTupleIS3_Lm1EEclES7_RKS3_SE_
FN:469,_ZNK7testing8internal26TransformTupleValuesHelperISt5tupleIJccccEENS0_22CastAndAppendTransformIRKhEESt20back_insert_iteratorISt6vectorINS_7MatcherIS6_EESaISB_EEEE16IterateOverTupleIS3_Lm4EEclES7_RKS3_SE_
FN:469,_ZNK7testing8internal26TransformTupleValuesHelperISt5tupleIJiiiEENS0_22CastAndAppendTransformIRKhEESt20back_insert_iteratorISt6vectorINS_7MatcherIS6_EESaISB_EEEE16IterateOverTupleIS3_Lm1EEclES7_RKS3_SE_
FN:469,_ZNK7testing8internal26TransformTupleValuesHelperISt5tupleIJccccEENS0_22CastAndAppendTransformIRKhEESt20back_insert_iteratorISt6vectorINS_7MatcherIS6_EESaISB_EEEE16IterateOverTupleIS3_Lm2EEclES7_RKS3_SE_
FN:469,_ZNK7testing8internal26TransformTupleValuesHelperISt5tupleIJccccEENS0_22CastAndAppendTransformIRKhEESt20back_insert_iteratorISt6vectorINS_7MatcherIS6_EESaISB_EEEE16IterateOverTupleIS3_Lm3EEclES7_RKS3_SE_
FN:476,_ZNK7testing8internal26TransformTupleValuesHelperISt5tupleIJiiiEENS0_22CastAndAppendTransformIRKhEESt20back_insert_iteratorISt6vectorINS_7MatcherIS6_EESaISB_EEEE16IterateOverTupleIS3_Lm0EEclES7_RKS3_SE_
FN:476,_ZNK7testing8internal26TransformTupleValuesHelperISt5tupleIJccEENS0_22CastAndAppendTransformIRKhEESt20back_insert_iteratorISt6vectorINS_7MatcherIS6_EESaISB_EEEE16IterateOverTupleIS3_Lm0EEclES7_RKS3_SE_
FN:476,_ZNK7testing8internal26TransformTupleValuesHelperISt5tupleIJccccEENS0_22CastAndAppendTransformIRKhEESt20back_insert_iteratorISt6vectorINS_7MatcherIS6_EESaISB_EEEE16IterateOverTupleIS3_Lm0EEclES7_RKS3_SE_
FN:486,_ZN7testing8internal20TransformTupleValuesISt5tupleIJccccEENS0_22CastAndAppendTransformIRKhEESt20back_insert_iteratorISt6vectorINS_7MatcherIS6_EESaISB_EEEEET1_T0_RKT_SF_
FN:486,_ZN7testing8internal20TransformTupleValuesISt5tupleIJccEENS0_22CastAndAppendTransformIRKhEESt20back_insert_iteratorISt6vectorINS_7MatcherIS6_EESaISB_EEEEET1_T0_RKT_SF_
FN:486,_ZN7testing8internal20TransformTupleValuesISt5tupleIJiiiEENS0_22CastAndAppendTransformIRKhEESt20back_insert_iteratorISt6vectorINS_7MatcherIS6_EESaISB_EEEEET1_T0_RKT_SF_
FN:494,_ZNK7testing8internal14AnyMatcherImplIRKSt5tupleIJPKhmEEE15MatchAndExplainES7_PNS_19MatchResultListenerE
FN:494,_ZNK7testing8internal14AnyMatcherImplImE15MatchAndExplainERKmPNS_19MatchResultListenerE
FN:494,_ZNK7testing8internal14AnyMatcherImplIRKSt5tupleIJEEE15MatchAndExplainES5_PNS_19MatchResultListenerE
FN:494,_ZNK7testing8internal14AnyMatcherImplIRKSt5tupleIJhhhhhEEE15MatchAndExplainES5_PNS_19MatchResultListenerE
FN:494,_ZNK7testing8internal14AnyMatcherImplIRKSt5tupleIJhEEE15MatchAndExplainES5_PNS_19MatchResultListenerE
FN:494,_ZNK7testing8internal14AnyMatcherImplIRKSt5tupleIJhhEEE15MatchAndExplainES5_PNS_19MatchResultListenerE
FN:494,_ZNK7testing8internal14AnyMatcherImplIRKSt5tupleIJtEEE15MatchAndExplainES5_PNS_19MatchResultListenerE
FN:494,_ZNK7testing8internal14AnyMatcherImplIPKhE15MatchAndExplainERKS3_PNS_19MatchResultListenerE
FN:494,_ZNK7testing8internal14AnyMatcherImplIRKSt5tupleIJP18BLEServerCallbacksP26BLECharacteristicCallbacksEEE15MatchAndExplainES9_PNS_19MatchResultListenerE
FN:498,_ZNK7testing8internal14AnyMatcherImplIRKSt5tupleIJEEE10DescribeToEPSo
FN:498,_ZNK7testing8internal14AnyMatcherImplIRKSt5tupleIJtEEE10DescribeToEPSo
FN:498,_ZNK7testing8internal14AnyMatcherImplImE10DescribeToEPSo
FN:498,_ZNK7testing8internal14AnyMatcherImplIRKSt5tupleIJP18BLEServerCallbacksP26BLECharacteristicCallbacksEEE10DescribeToEPSo
FN:498,_ZNK7testing8internal14AnyMatcherImplIRKSt5tupleIJhEEE10DescribeToEPSo
FN:498,_ZNK7testing8internal14AnyMatcherImplIRKSt5tupleIJPKhmEEE10DescribeToEPSo
FN:498,_ZNK7testing8internal14AnyMatcherImplIRKSt5tupleIJhhEEE10DescribeToEPSo
FN:498,_ZNK7testing8internal14AnyMatcherImplIRKSt5tupleIJhhhhhEEE10DescribeToEPSo
FN:498,_ZNK7testing8internal14AnyMatcherImplIPKhE10DescribeToEPSo
FN:499,_ZNK7testing8internal14AnyMatcherImplIRKSt5tupleIJhhhhhEEE18DescribeNegationToEPSo
FN:499,_ZNK7testing8internal14AnyMatcherImplIRKSt5tupleIJtEEE18DescribeNegationToEPSo
FN:499,_ZNK7testing8internal14AnyMatcherImplIRKSt5tupleIJhEEE18DescribeNegationToEPSo
FN:499,_ZNK7testing8internal14AnyMatcherImplImE18DescribeNegationToEPSo
FN:499,_ZNK7testing8internal14AnyMatcherImplIRKSt5tupleIJP18BLEServerCallbacksP26BLECharacteristicCallbacksEEE18DescribeNegationToEPSo
FN:499,_ZNK7testing8internal14AnyMatcherImplIPKhE18DescribeNegationToEPSo
FN:499,_ZNK7testing8internal14AnyMatcherImplIRKSt5tupleIJPKhmEEE18DescribeNegationToEPSo
FN:499,_ZNK7testing8internal14AnyMatcherImplIRKSt5tupleIJEEE18DescribeNegationToEPSo
FN:499,_ZNK7testing8internal14AnyMatcherImplIRKSt5tupleIJhhEEE18DescribeNegationToEPSo
FN:514,_ZNK7testing8internal15AnythingMatchercvNS_7MatcherIT_EEImEEv
FN:514,_ZNK7testing8internal15AnythingMatchercvNS_7MatcherIT_EEIPKhEEv
FN:2706,_ZN7testing8internal22ElementsAreMatcherImplIRKSt5tupleIJPKhmEEEC2IN9__gnu_cxx17__normal_iteratorIPNS_7MatcherIRS3_EESt6vectorISE_SaISE_EEEEEET_SK_
FN:2713,_ZNK7testing8internal22ElementsAreMatcherImplIRKSt5tupleIJPKhmEEE10DescribeToEPSo
FN:2732,_ZNK7testing8internal22ElementsAreMatcherImplIRKSt5tupleIJPKhmEEE18DescribeNegationToEPSo
FN:2748,_ZNK7testing8internal22ElementsAreMatcherImplIRKSt5tupleIJPKhmEEE15MatchAndExplainES7_PNS_19MatchResultListenerE
FN:2829,_ZN7testing8internal22ElementsAreMatcherImplIRKSt5tupleIJPKhmEEE8ElementsEm
FN:2833,_ZNK7testing8internal22ElementsAreMatcherImplIRKSt5tupleIJPKhmEEE5countEv
FN:3044,_ZNK7testing8internal22CastAndAppendTransformIRKhEclIiEENS_7MatcherIS3_EERKT_
FN:3044,_ZNK7testing8internal22CastAndAppendTransformIRKhEclIcEENS_7MatcherIS3_EERKT_
FN:3081,_ZN7testing8internal18ElementsAreMatcherISt5tupleIJccccEEEC2ERKS3_
FN:3081,_ZN7testing8internal18ElementsAreMatcherISt5tupleIJccEEEC2ERKS3_
FN:3081,_ZN7testing8internal18ElementsAreMatcherISt5tupleIJiiiEEEC2ERKS3_
FN:3084,_ZNK7testing8internal18ElementsAreMatcherISt5tupleIJccEEEcvNS_7MatcherIT_EEIRKS2_IJPKhmEEEEv
FN:3084,_ZNK7testing8internal18ElementsAreMatcherISt5tupleIJiiiEEEcvNS_7MatcherIT_EEIRKS2_IJPKhmEEEEv
FN:3084,_ZNK7testing8internal18ElementsAreMatcherISt5tupleIJccccEEEcvNS_7MatcherIT_EEIRKS2_IJPKhmEEEEv
FN:3425,_ZN7testing8internal15ArgsMatcherImplIRKSt5tupleIJPKhmEEJLm0ELm1EEEC2INS0_18ElementsAreMatcherIS2_IJccccEEEEEERKT_
FN:3425,_ZN7testing8internal15ArgsMatcherImplIRKSt5tupleIJPKhmEEJLm0ELm1EEEC2INS0_18ElementsAreMatcherIS2_IJiiiEEEEEERKT_
FN:3425,_ZN7testing8internal15ArgsMatcherImplIRKSt5tupleIJPKhmEEJLm0ELm1EEEC2INS0_18ElementsAreMatcherIS2_IJccEEEEEERKT_
FN:3428,_ZNK7testing8internal15ArgsMatcherImplIRKSt5tupleIJPKhmEEJLm0ELm1EEE15MatchAndExplainES7_PNS_19MatchResultListenerE
FN:3446,_ZNK7testing8internal15ArgsMatcherImplIRKSt5tupleIJPKhmEEJLm0ELm1EEE10DescribeToEPSo
FN:3452,_ZNK7testing8internal15ArgsMatcherImplIRKSt5tupleIJPKhmEEJLm0ELm1EEE18DescribeNegationToEPSo
FN:3460,_ZN7testing8internal15ArgsMatcherImplIRKSt5tupleIJPKhmEEJLm0ELm1EEE12PrintIndicesEPSo
FN:3476,_ZN7testing8internal11ArgsMatcherINS0_18ElementsAreMatcherISt5tupleIJccEEEEJLm0ELm1EEEC2ES5_
FN:3476,_ZN7testing8internal11ArgsMatcherINS0_18ElementsAreMatcherISt5tupleIJiiiEEEEJLm0ELm1EEEC2ES5_
FN:3476,_ZN7testing8internal11ArgsMatcherINS0_18ElementsAreMatcherISt5tupleIJccccEEEEJLm0ELm1EEEC2ES5_
FN:3480,_ZNK7testing8internal11ArgsMatcherINS0_18ElementsAreMatcherISt5tupleIJccEEEEJLm0ELm1EEEcvNS_7MatcherIT_EEIRKS3_IJPKhmEEEEv
FN:3480,_ZNK7testing8internal11ArgsMatcherINS0_18ElementsAreMatcherISt5tupleIJiiiEEEEJLm0ELm1EEEcvNS_7MatcherIT_EEIRKS3_IJPKhmEEEEv
FN:3480,_ZNK7testing8internal11ArgsMatcherINS0_18ElementsAreMatcherISt5tupleIJccccEEEEJLm0ELm1EEEcvNS_7MatcherIT_EEIRKS3_IJPKhmEEEEv
FN:3596,_ZN7testing1AIRKSt5tupleIJhhhhhEEEENS_7MatcherIT_EEv
FN:3596,_ZN7testing1AIRKSt5tupleIJtEEEENS_7MatcherIT_EEv
FN:3596,_ZN7testing1AImEENS_7MatcherIT_EEv
FN:3596,_ZN7testing1AIPKhEENS_7MatcherIT_EEv
FN:3596,_ZN7testing1AIRKSt5tupleIJP18BLEServerCallbacksP26BLECharacteristicCallbacksEEEENS_7MatcherIT_EEv
FN:3596,_ZN7testing1AIRKSt5tupleIJhEEEENS_7MatcherIT_EEv
FN:3596,_ZN7testing1AIRKSt5tupleIJPKhmEEEENS_7MatcherIT_EEv
FN:3596,_ZN7testing1AIRKSt5tupleIJEEEENS_7MatcherIT_EEv
FN:3596,_ZN7testing1AIRKSt5tupleIJhhEEEENS_7MatcherIT_EEv
FN:4387,_ZN7testing11ElementsAreIJccEEENS_8internal18ElementsAreMatcherISt5tupleIJDpNSt5decayIRKT_E4typeEEEEEDpS7_
FN:4387,_ZN7testing11ElementsAreIJiiiEEENS_8internal18ElementsAreMatcherISt5tupleIJDpNSt5decayIRKT_E4typeEEEEEDpS7_
FN:4387,_ZN7testing11ElementsAreIJccccEEENS_8internal18ElementsAreMatcherISt5tupleIJDpNSt5decayIRKT_E4typeEEEEEDpS7_
FN:4503,_ZN7testing4ArgsIJLm0ELm1EENS_8internal18ElementsAreMatcherISt5tupleIJccEEEEEENS1_11ArgsMatcherINSt5decayIT0_E4typeEJXspT_EEEEOS8_
FN:4503,_ZN7testing4ArgsIJLm0ELm1EENS_8internal18ElementsAreMatcherISt5tupleIJiiiEEEEEENS1_11ArgsMatcherINSt5decayIT0_E4typeEJXspT_EEEEOS8_
FN:4503,_ZN7testing4ArgsIJLm0ELm1EENS_8internal18ElementsAreMatcherISt5tupleIJccccEEEEEENS1_11ArgsMatcherINSt5decayIT0_E4typeEJXspT_EEEEOS8_
FNDA:0,_ZN7testing8internal12TupleMatchesISt5tupleIJNS_7MatcherIP18BLEServerCallbacksEEEES2_IJS5_EEEEbRKT_RKT0_
FNDA:13,_ZN7testing8internal15MatcherCastImplIRKhNS_7MatcherIS3_EEE4CastERKS5_
FNDA:0,_ZN7testing8internal11TuplePrefixILm0EE22ExplainMatchFailuresToISt5tupleIJNS_7MatcherImEEEES4_IJmEEEEvRKT_RKT0_PSo
FNDA:0,_ZN7testing8internal12TupleMatchesISt5tupleIJNS_7MatcherImEEEES2_IJmEEEEbRKT_RKT0_
FNDA:5,_ZNK7testing8internal15ArgsMatcherImplIRKSt5tupleIJPKhmEEJLm0ELm1EEE15MatchAndExplainES7_PNS_19MatchResultListenerE
FNDA:0,_ZNK7testing8internal14AnyMatcherImplIRKSt5tupleIJhhhhhEEE10DescribeToEPSo
FNDA:0,_ZN7testing8internal11TuplePrefixILm0EE22ExplainMatchFailuresToISt5tupleIJNS_7MatcherIhEES6_S6_S6_EES4_IJhhhhEEEEvRKT_RKT0_PSo
FNDA:0,_ZN7testing8internal11TuplePrefixILm1EE22ExplainMatchFailuresToISt5tupleIJNS_7MatcherIPKhEENS5_ImEENS5_IhEEEES4_IJS7_mhEEEEvRKT_RKT0_PSo
FNDA:0,_ZNK7testing8internal14AnyMatcherImplIRKSt5tupleIJPKhmEEE18DescribeNegationToEPSo
FNDA:0,_ZN7testing4ArgsIJLm0ELm1EENS_8internal18ElementsAreMatcherISt5tupleIJccccEEEEEENS1_11ArgsMatcherINSt5decayIT0_E4typeEJXspT_EEEEOS8_
FNDA:0,_ZN7testing8internal11TuplePrefixILm2EE7MatchesISt5tupleIJNS_7MatcherIhEENS5_IiEEEES4_IJhiEEEEbRKT_RKT0_
FNDA:78,_ZN7testing8internal11TuplePrefixILm4EE7MatchesISt5tupleIJNS_7MatcherIhEES6_S6_S6_S6_EES4_IJhhhhhEEEEbRKT_RKT0_
FNDA:0,_ZN7testing8internal11TuplePrefixILm3EE22ExplainMatchFailuresToISt5tupleIJNS_7MatcherIhEES6_S6_S6_EES4_IJhhhhEEEEvRKT_RKT0_PSo
FNDA:1,_ZN7testing8internal18ElementsAreMatcherISt5tupleIJiiiEEEC2ERKS3_
FNDA:0,_ZN7testing8internal11TuplePrefixILm2EE7MatchesISt5tupleIJNS_7MatcherIhEES6_S6_S6_EES4_IJhhhhEEEEbRKT_RKT0_
FNDA:0,_ZN7testing25StringMatchResultListenerC2Ev
FNDA:1,_ZN7testing8internal15ArgsMatcherImplIRKSt5tupleIJPKhmEEJLm0ELm1EEEC2INS0_18ElementsAreMatcherIS2_IJccEEEEEERKT_
FNDA:1,_ZN7testing8internal20TransformTupleValuesISt5tupleIJiiiEENS0_22CastAndAppendTransformIRKhEESt20back_insert_iteratorISt6vectorINS_7MatcherIS6_EESaISB_EEEEET1_T0_RKT_SF_
FNDA:2,_ZN7testing8internal26TransformTupleValuesHelperISt5tupleIJccccEENS0_22CastAndAppendTransformIRKhEESt20back_insert_iteratorISt6vectorINS_7MatcherIS6_EESaISB_EEEE3RunES7_RKS3_SE_
FNDA:0,_ZN7testing8internal11TuplePrefixILm0EE7MatchesISt5tupleIJNS_7MatcherIPhEENS5_ImEEEES4_IJS6_mEEEEbRKT_RKT0_
FNDA:1,_ZNK7testing8internal11ArgsMatcherINS0_18ElementsAreMatcherISt5tupleIJiiiEEEEJLm0ELm1EEEcvNS_7MatcherIT_EEIRKS3_IJPKhmEEEEv
FNDA:0,_ZN7testing8internal11TuplePrefixILm2EE22ExplainMatchFailuresToISt5tupleIJNS_7MatcherItEENS5_IhEEEES4_IJthEEEEvRKT_RKT0_PSo
FNDA:0,_ZN7testing8internal11TuplePrefixILm0EE22ExplainMatchFailuresToISt5tupleIJNS_7MatcherItEENS5_IsEEEES4_IJtsEEEEvRKT_RKT0_PSo
FNDA:4,_ZNK7testing8internal14AnyMatcherImplIRKSt5tupleIJtEEE15MatchAndExplainES5_PNS_19MatchResultListenerE
FNDA:2,_ZNK7testing8internal18ElementsAreMatcherISt5tupleIJccccEEEcvNS_7MatcherIT_EEIRKS2_IJPKhmEEEEv
FNDA:4,_ZN7testing1AIPKhEENS_7MatcherIT_EEv
FNDA:3,_ZNK7testing8internal22CastAndAppendTransformIRKhEclIiEENS_7MatcherIS3_EERKT_
FNDA:175,_ZNK7testing8internal14AnyMatcherImplIRKSt5tupleIJhhEEE15MatchAndExplainES5_PNS_19MatchResultListenerE
FNDA:0,_ZN7testing8internal11TuplePrefixILm4EE22ExplainMatchFailuresToISt5tupleIJNS_7MatcherIhEES6_S6_S6_S6_EES4_IJhhhhhEEEEvRKT_RKT0_PSo
FNDA:0,_ZN7testing8internal11TuplePrefixILm1EE7MatchesISt5tupleIJNS_7MatcherItEENS5_IsEEEES4_IJtsEEEEbRKT_RKT0_
FNDA:4,_ZN7testing8internal22ElementsAreMatcherImplIRKSt5tupleIJPKhmEEEC2IN9__gnu_cxx17__normal_iteratorIPNS_7MatcherIRS3_EESt6vectorISE_SaISE_EEEEEET_SK_
FNDA:5,_ZN7testing8internal11TuplePrefixILm0EE7MatchesISt5tupleIJNS_7MatcherIPKhEENS5_ImEEEES4_IJS7_mEEEEbRKT_RKT0_
FNDA:3,_ZN7testing11MatcherCastIRKhiEENS_7MatcherIT_EERKT0_
FNDA:10,_ZNK7testing8internal14AnyMatcherImplIRKSt5tupleIJP18BLEServerCallbacksP26BLECharacteristicCallbacksEEE15MatchAndExplainES9_PNS_19MatchResultListenerE
FNDA:13,_ZN7testing11MatcherCastIRKhNS_7MatcherIS2_EEEENS3_IT_EERKT0_
FNDA:0,_ZN7testing8internal11TuplePrefixILm0EE22ExplainMatchFailuresToISt5tupleIJNS_7MatcherIhEES6_EES4_IJhhEEEEvRKT_RKT0_PSo
FNDA:0,_ZNK7testing8internal14AnyMatcherImplIRKSt5tupleIJhhEEE18DescribeNegationToEPSo
FNDA:157,_ZN7testing1AIRKSt5tupleIJEEEENS_7MatcherIT_EEv
FNDA:0,_ZN7testing1AIRKSt5tupleIJhhEEEENS_7MatcherIT_EEv
FNDA:0,_ZN7testing8internal11TuplePrefixILm3EE22ExplainMatchFailuresToISt5tupleIJNS_7MatcherIPKhEENS5_ImEENS5_IhEEEES4_IJS7_mhEEEEvRKT_RKT0_PSo
FNDA:0,_ZNK7testing8internal22ElementsAreMatcherImplIRKSt5tupleIJPKhmEEE18DescribeNegationToEPSo
FNDA:0,_ZN7testing8internal11TuplePrefixILm0EE22ExplainMatchFailuresToISt5tupleIJNS_7MatcherItEENS5_IhEEEES4_IJthEEEEvRKT_RKT0_PSo
FNDA:2,_ZNK7testing8internal26TransformTupleValuesHelperISt5tupleIJccccEENS0_22CastAndAppendTransformIRKhEESt20back_insert_iteratorISt6vectorINS_7MatcherIS6_EESaISB_EEEE16IterateOverTupleIS3_Lm3EEclES7_RKS3_SE_
FNDA:0,_ZN7testing8internal12TupleMatchesISt5tupleIJNS_7MatcherItEENS3_IhEEEES2_IJthEEEEbRKT_RKT0_
FNDA:0,_ZN7testing8internal15PrintIfNotEmptyERKNSt7__cxx1112basic_stringIcSt11char_traitsIcESaIcEEEPSo
FNDA:0,_ZN7testing8internal11TuplePrefixILm5EE22ExplainMatchFailuresToISt5tupleIJNS_7MatcherIhEES6_S6_S6_S6_EES4_IJhhhhhEEEEvRKT_RKT0_PSo
FNDA:0,_ZN7testing8internal26ExplainMatchFailureTupleToISt5tupleIJNS_7MatcherIPKhEENS3_ImEEEES2_IJS5_mEEEEvRKT_RKT0_PSo
FNDA:0,_ZN7testing8internal26ExplainMatchFailureTupleToISt5tupleIJNS_7MatcherItEENS3_IhEEEES2_IJthEEEEvRKT_RKT0_PSo
FNDA:5,_ZNK7testing8internal14AnyMatcherImplIPKhE15MatchAndExplainERKS3_PNS_19MatchResultListenerE
FNDA:0,_ZN7testing8internal11TuplePrefixILm1EE7MatchesISt5tupleIJNS_7MatcherIP26BLECharacteristicCallbacksEEEES4_IJS7_EEEEbRKT_RKT0_
FNDA:414,_ZN7testing8internal11TuplePrefixILm2EE7MatchesISt5tupleIJNS_7MatcherIhEES6_EES4_IJhhEEEEbRKT_RKT0_
FNDA:4,_ZN7testing1AIRKSt5tupleIJPKhmEEEENS_7MatcherIT_EEv
FNDA:0,_ZN7testing8internal11TuplePrefixILm1EE22ExplainMatchFailuresToISt5tupleIJNS_7MatcherIP18BLEServerCallbacksEEEES4_IJS7_EEEEvRKT_RKT0_PSo
FNDA:0,_ZN7testing8internal11TuplePrefixILm0EE7MatchesISt5tupleIJNS_7MatcherIPKhEENS5_ImEENS5_IhEEEES4_IJS7_mhEEEEbRKT_RKT0_
FNDA:0,_ZN7testing8internal15ArgsMatcherImplIRKSt5tupleIJPKhmEEJLm0ELm1EEE12PrintIndicesEPSo
FNDA:10,_ZN7testing8internal12TupleMatchesISt5tupleIJNS_7MatcherIP18BLEServerCallbacksEENS3_IP26BLECharacteristicCallbacksEEEES2_IJS5_S8_EEEEbRKT_RKT0_
FNDA:2,_ZNK7testing8internal11ArgsMatcherINS0_18ElementsAreMatcherISt5tupleIJccccEEEEJLm0ELm1EEEcvNS_7MatcherIT_EEIRKS3_IJPKhmEEEEv
FNDA:0,_ZN7testing8internal11TuplePrefixILm1EE22ExplainMatchFailuresToISt5tupleIJNS_7MatcherIhEES6_S6_S6_EES4_IJhhhhEEEEvRKT_RKT0_PSo
FNDA:3,_ZN7testing8internal15MatcherCastImplIRKhiE4CastERKi
FNDA:322,_ZN7testing8internal11TuplePrefixILm1EE7MatchesISt5tupleIJNS_7MatcherIhEEEES4_IJhEEEEbRKT_RKT0_
FNDA:0,_ZN7testing8internal26ExplainMatchFailureTupleToISt5tupleIJNS_7MatcherIPKhEENS3_ImEENS3_IhEEEES2_IJS5_mhEEEEvRKT_RKT0_PSo
FNDA:2,_ZN7testing11ElementsAreIJccccEEENS_8internal18ElementsAreMatcherISt5tupleIJDpNSt5decayIRKT_E4typeEEEEEDpS7_
FNDA:78,_ZN7testing8internal12TupleMatchesISt5tupleIJNS_7MatcherIhEES4_S4_S4_S4_EES2_IJhhhhhEEEEbRKT_RKT0_
FNDA:0,_ZNK7testing8internal14AnyMatcherImplIRKSt5tupleIJEEE18DescribeNegationToEPSo
FNDA:10,_ZNK7testing8internal22CastAndAppendTransformIRKhEclIcEENS_7MatcherIS3_EERKT_
FNDA:322,_ZN7testing8internal12TupleMatchesISt5tupleIJNS_7MatcherIhEEEES2_IJhEEEEbRKT_RKT0_
FNDA:0,_ZNK7testing8internal14AnyMatcherImplIPKhE10DescribeToEPSo
FNDA:10,_ZN7testing1AIRKSt5tupleIJP18BLEServerCallbacksP26BLECharacteristicCallbacksEEEENS_7MatcherIT_EEv
FNDA:0,_ZN7testing8internal26ExplainMatchFailureTupleToISt5tupleIJNS_7MatcherIhEES4_S4_S4_EES2_IJhhhhEEEEvRKT_RKT0_PSo
FNDA:5,_ZN7testing8internal11TuplePrefixILm1EE7MatchesISt5tupleIJNS_7MatcherIPKhEENS5_ImEEEES4_IJS7_mEEEEbRKT_RKT0_
FNDA:0,_ZN7testing1AIRKSt5tupleIJhEEEENS_7MatcherIT_EEv
FNDA:0,_ZN7testing8internal26ExplainMatchFailureTupleToISt5tupleIJEES3_EEvRKT_RKT0_PSo
FNDA:0,_ZN7testing8internal12TupleMatchesISt5tupleIJNS_7MatcherIPhEENS3_ImEEEES2_IJS4_mEEEEbRKT_RKT0_
FNDA:2,_ZNK7testing8internal26TransformTupleValuesHelperISt5tupleIJccccEENS0_22CastAndAppendTransformIRKhEESt20back_insert_iteratorISt6vectorINS_7MatcherIS6_EESaISB_EEEE16IterateOverTupleIS3_Lm0EEclES7_RKS3_SE_
FNDA:2,_ZNK7testing8internal26TransformTupleValuesHelperISt5tupleIJccccEENS0_22CastAndAppendTransformIRKhEESt20back_insert_iteratorISt6vectorINS_7MatcherIS6_EESaISB_EEEE16IterateOverTupleIS3_Lm2EEclES7_RKS3_SE_
FNDA:0,_ZN7testing8internal11TuplePrefixILm1EE22ExplainMatchFailuresToISt5tupleIJNS_7MatcherIhEENS5_IiEEEES4_IJhiEEEEvRKT_RKT0_PSo
FNDA:1,_ZNK7testing8internal26TransformTupleValuesHelperISt5tupleIJiiiEENS0_22CastAndAppendTransformIRKhEESt20back_insert_iteratorISt6vectorINS_7MatcherIS6_EESaISB_EEEE16IterateOverTupleIS3_Lm1EEclES7_RKS3_SE_
FNDA:2,_ZN7testing8internal15MatcherCastImplIRKSt5tupleIJPKhmEENS0_18ElementsAreMatcherIS2_IJccccEEEEE4CastERKSA_
FNDA:0,_ZN7testing8internal11TuplePrefixILm1EE7MatchesISt5tupleIJNS_7MatcherIPKhEENS5_ImEENS5_IhEEEES4_IJS7_mhEEEEbRKT_RKT0_
FNDA:5,_ZN7testing8internal11TuplePrefixILm2EE7MatchesISt5tupleIJNS_7MatcherIPKhEENS5_ImEEEES4_IJS7_mEEEEbRKT_RKT0_
FNDA:2,_ZNK7testing8internal26TransformTupleValuesHelperISt5tupleIJccccEENS0_22CastAndAppendTransformIRKhEESt20back_insert_iteratorISt6vectorINS_7MatcherIS6_EESaISB_EEEE16IterateOverTupleIS3_Lm4EEclES7_RKS3_SE_
FNDA:322,_ZN7testing8internal11TuplePrefixILm0EE7MatchesISt5tupleIJNS_7MatcherIhEEEES4_IJhEEEEbRKT_RKT0_
FNDA:10,_ZN7testing8internal11TuplePrefixILm2EE7MatchesISt5tupleIJNS_7MatcherIP18BLEServerCallbacksEENS5_IP26BLECharacteristicCallbacksEEEES4_IJS7_SA_EEEEbRKT_RKT0_
FNDA:0,_ZN7testing8internal11TuplePrefixILm1EE22ExplainMatchFailuresToISt5tupleIJNS_7MatcherIP26BLECharacteristicCallbacksEEEES4_IJS7_EEEEvRKT_RKT0_PSo
FNDA:66,_ZNK7testing8internal14AnyMatcherImplIRKSt5tupleIJhhhhhEEE15MatchAndExplainES5_PNS_19MatchResultListenerE
FNDA:0,_ZNK7testing8internal14AnyMatcherImplIRKSt5tupleIJP18BLEServerCallbacksP26BLECharacteristicCallbacksEEE18DescribeNegationToEPSo
FNDA:1,_ZN7testing8internal15MatcherCastImplIRKSt5tupleIJPKhmEENS0_18ElementsAreMatcherIS2_IJiiiEEEEE4CastERKSA_
FNDA:78,_ZN7testing8internal11TuplePrefixILm1EE7MatchesISt5tupleIJNS_7MatcherIhEES6_S6_S6_S6_EES4_IJhhhhhEEEEbRKT_RKT0_
FNDA:1,_ZNK7testing8internal11ArgsMatcherINS0_18ElementsAreMatcherISt5tupleIJccEEEEJLm0ELm1EEEcvNS_7MatcherIT_EEIRKS3_IJPKhmEEEEv
FNDA:0,_ZN7testing8internal11TuplePrefixILm2EE22ExplainMatchFailuresToISt5tupleIJNS_7MatcherIPhEENS5_ImEEEES4_IJS6_mEEEEvRKT_RKT0_PSo
FNDA:0,_ZN7testing4ArgsIJLm0ELm1EENS_8internal18ElementsAreMatcherISt5tupleIJiiiEEEEEENS1_11ArgsMatcherINSt5decayIT0_E4typeEJXspT_EEEEOS8_
FNDA:1,_ZN7testing8internal20TransformTupleValuesISt5tupleIJccEENS0_22CastAndAppendTransformIRKhEESt20back_insert_iteratorISt6vectorINS_7MatcherIS6_EESaISB_EEEEET1_T0_RKT_SF_
FNDA:0,_ZN7testing8internal11TuplePrefixILm0EE22ExplainMatchFailuresToISt5tupleIJNS_7MatcherIP26BLECharacteristicCallbacksEEEES4_IJS7_EEEEvRKT_RKT0_PSo
FNDA:1,_ZNK7testing8internal26TransformTupleValuesHelperISt5tupleIJccEENS0_22CastAndAppendTransformIRKhEESt20back_insert_iteratorISt6vectorINS_7MatcherIS6_EESaISB_EEEE16IterateOverTupleIS3_Lm1EEclES7_RKS3_SE_
FNDA:0,_ZN7testing8internal11TuplePrefixILm0EE7MatchesISt5tupleIJNS_7MatcherIP18BLEServerCallbacksEEEES4_IJS7_EEEEbRKT_RKT0_
FNDA:4,_ZN7testing1AImEENS_7MatcherIT_EEv
FNDA:0,_ZN7testing8internal11TuplePrefixILm1EE7MatchesISt5tupleIJNS_7MatcherIP18BLEServerCallbacksEEEES4_IJS7_EEEEbRKT_RKT0_
FNDA:0,_ZN7testing8internal11TuplePrefixILm1EE7MatchesISt5tupleIJNS_7MatcherItEENS5_IhEEEES4_IJthEEEEbRKT_RKT0_
FNDA:0,_ZN7testing1AIRKSt5tupleIJtEEEENS_7MatcherIT_EEv
FNDA:0,_ZN7testing8internal11TuplePrefixILm0EE22ExplainMatchFailuresToISt5tupleIJNS_7MatcherItEEEES4_IJtEEEEvRKT_RKT0_PSo
FNDA:0,_ZN7testing8internal26ExplainMatchFailureTupleToISt5tupleIJNS_7MatcherItEENS3_IsEEEES2_IJtsEEEEvRKT_RKT0_PSo
FNDA:1,_ZN7testing11ElementsAreIJiiiEEENS_8internal18ElementsAreMatcherISt5tupleIJDpNSt5decayIRKT_E4typeEEEEEDpS7_
FNDA:0,_ZN7testing8internal11TuplePrefixILm3EE22ExplainMatchFailuresToISt5tupleIJNS_7MatcherIhEES6_S6_S6_S6_EES4_IJhhhhhEEEEvRKT_RKT0_PSo
FNDA:4,_ZNK7testing8internal15AnythingMatchercvNS_7MatcherIT_EEIPKhEEv
FNDA:0,_ZNK7testing8internal14AnyMatcherImplIPKhE18DescribeNegationToEPSo
FNDA:3,_ZN7testing8internal15MatcherCastImplIRKhiE8CastImplILb1EEENS_7MatcherIS3_EERKiNS0_15BooleanConstantILb1EEENSA_IXT_EEE
FNDA:414,_ZN7testing8internal11TuplePrefixILm0EE7MatchesISt5tupleIJNS_7MatcherIhEES6_EES4_IJhhEEEEbRKT_RKT0_
FNDA:0,_ZN7testing8internal26ExplainMatchFailureTupleToISt5tupleIJNS_7MatcherIhEES4_EES2_IJhhEEEEvRKT_RKT0_PSo
FNDA:0,_ZN7testing8internal11TuplePrefixILm2EE7MatchesISt5tupleIJNS_7MatcherIPhEENS5_ImEEEES4_IJS6_mEEEEbRKT_RKT0_
FNDA:0,_ZN7testing8internal11TuplePrefixILm1EE22ExplainMatchFailuresToISt5tupleIJNS_7MatcherImEEEES4_IJmEEEEvRKT_RKT0_PSo
FNDA:0,_ZN7testing8internal11TuplePrefixILm4EE22ExplainMatchFailuresToISt5tupleIJNS_7MatcherIhEES6_S6_S6_EES4_IJhhhhEEEEvRKT_RKT0_PSo
FNDA:0,_ZN7testing8internal11TuplePrefixILm2EE22ExplainMatchFailuresToISt5tupleIJNS_7MatcherIPKhEENS5_ImEENS5_IhEEEES4_IJS7_mhEEEEvRKT_RKT0_PSo
FNDA:0,_ZNK7testing8internal14AnyMatcherImplIRKSt5tupleIJhhEEE10DescribeToEPSo
FNDA:0,_ZN7testing8internal11TuplePrefixILm1EE7MatchesISt5tupleIJNS_7MatcherIhEENS5_IiEEEES4_IJhiEEEEbRKT_RKT0_
FNDA:4,_ZN7testing8internal11TuplePrefixILm1EE7MatchesISt5tupleIJNS_7MatcherItEEEES4_IJtEEEEbRKT_RKT0_
FNDA:256,_ZNK7testing8internal14AnyMatcherImplIRKSt5tupleIJhEEE15MatchAndExplainES5_PNS_19MatchResultListenerE
FNDA:1,_ZN7testing8internal26TransformTupleValuesHelperISt5tupleIJiiiEENS0_22CastAndAppendTransformIRKhEESt20back_insert_iteratorISt6vectorINS_7MatcherIS6_EESaISB_EEEE3RunES7_RKS3_SE_
FNDA:0,_ZNK7testing8internal14AnyMatcherImplIRKSt5tupleIJP18BLEServerCallbacksP26BLECharacteristicCallbacksEEE10DescribeToEPSo
FNDA:2,_ZN7testing8internal18ElementsAreMatcherISt5tupleIJccccEEEC2ERKS3_
FNDA:1,_ZNK7testing8internal26TransformTupleValuesHelperISt5tupleIJiiiEENS0_22CastAndAppendTransformIRKhEESt20back_insert_iteratorISt6vectorINS_7MatcherIS6_EESaISB_EEEE16IterateOverTupleIS3_Lm0EEclES7_RKS3_SE_
FNDA:4,_ZN7testing8internal12TupleMatchesISt5tupleIJNS_7MatcherItEEEES2_IJtEEEEbRKT_RKT0_
FNDA:0,_ZN7testing8internal11TuplePrefixILm1EE22ExplainMatchFailuresToISt5tupleIJNS_7MatcherIhEEEES4_IJhEEEEvRKT_RKT0_PSo
FNDA:0,_ZN7testing8internal11TuplePrefixILm0EE22ExplainMatchFailuresToISt5tupleIJNS_7MatcherIP18BLEServerCallbacksEEEES4_IJS7_EEEEvRKT_RKT0_PSo
FNDA:0,_ZN7testing8internal11TuplePrefixILm0EE22ExplainMatchFailuresToISt5tupleIJNS_7MatcherIhEENS5_IiEEEES4_IJhiEEEEvRKT_RKT0_PSo
FNDA:204,_ZN7testing8internal12TupleMatchesISt5tupleIJEES3_EEbRKT_RKT0_
FNDA:1,_ZN7testing8internal15ArgsMatcherImplIRKSt5tupleIJPKhmEEJLm0ELm1EEEC2INS0_18ElementsAreMatcherIS2_IJiiiEEEEEERKT_
FNDA:0,_ZN7testing8internal11TuplePrefixILm3EE7MatchesISt5tupleIJNS_7MatcherIPKhEENS5_ImEENS5_IhEEEES4_IJS7_mhEEEEbRKT_RKT0_
FNDA:2,_ZN7testing15SafeMatcherCastIRKSt5tupleIJPKhmEENS_8internal18ElementsAreMatcherIS1_IJccccEEEEEENS_7MatcherIT_EERKT0_
FNDA:0,_ZN7testing8internal11TuplePrefixILm1EE7MatchesISt5tupleIJNS_7MatcherImEEEES4_IJmEEEEbRKT_RKT0_
FNDA:1,_ZN7testing8internal15MatcherCastImplIRKSt5tupleIJPKhmEENS0_18ElementsAreMatcherIS2_IJiiiEEEEE8CastImplILb0EEENS_7MatcherIS7_EERKSA_NS0_15BooleanConstantILb1EEENSH_IXT_EEE
FNDA:1,_ZNK7testing8internal18ElementsAreMatcherISt5tupleIJiiiEEEcvNS_7MatcherIT_EEIRKS2_IJPKhmEEEEv
FNDA:0,_ZN7testing8internal11TuplePrefixILm2EE7MatchesISt5tupleIJNS_7MatcherItEENS5_IhEEEES4_IJthEEEEbRKT_RKT0_
FNDA:0,_ZN7testing8internal12TupleMatchesISt5tupleIJNS_7MatcherIhEENS3_IiEEEES2_IJhiEEEEbRKT_RKT0_
FNDA:0,_ZN7testing8internal11TuplePrefixILm2EE7MatchesISt5tupleIJNS_7MatcherIPKhEENS5_ImEENS5_IhEEEES4_IJS7_mhEEEEbRKT_RKT0_
FNDA:78,_ZN7testing8internal11TuplePrefixILm5EE7MatchesISt5tupleIJNS_7MatcherIhEES6_S6_S6_S6_EES4_IJhhhhhEEEEbRKT_RKT0_
FNDA:0,_ZN7testing8internal26ExplainMatchFailureTupleToISt5tupleIJNS_7MatcherIP26BLECharacteristicCallbacksEEEES2_IJS5_EEEEvRKT_RKT0_PSo
FNDA:0,_ZN7testing8internal11TuplePrefixILm0EE22ExplainMatchFailuresToISt5tupleIJNS_7MatcherIhEES6_S6_S6_S6_EES4_IJhhhhhEEEEvRKT_RKT0_PSo
FNDA:1,_ZNK7testing8internal26TransformTupleValuesHelperISt5tupleIJiiiEENS0_22CastAndAppendTransformIRKhEESt20back_insert_iteratorISt6vectorINS_7MatcherIS6_EESaISB_EEEE16IterateOverTupleIS3_Lm3EEclES7_RKS3_SE_
FNDA:0,_ZN7testing8internal11TuplePrefixILm2EE22ExplainMatchFailuresToISt5tupleIJNS_7MatcherItEENS5_IsEEEES4_IJtsEEEEvRKT_RKT0_PSo
FNDA:0,_ZN7testing8internal26ExplainMatchFailureTupleToISt5tupleIJNS_7MatcherIhEEEES2_IJhEEEEvRKT_RKT0_PSo
FNDA:0,_ZN7testing8internal11TuplePrefixILm0EE22ExplainMatchFailuresToISt5tupleIJNS_7MatcherIPKhEENS5_ImEENS5_IhEEEES4_IJS7_mhEEEEvRKT_RKT0_PSo
FNDA:0,_ZN7testing8internal11TuplePrefixILm2EE22ExplainMatchFailuresToISt5tupleIJNS_7MatcherIhEENS5_IiEEEES4_IJhiEEEEvRKT_RKT0_PSo
FNDA:10,_ZN7testing8internal11TuplePrefixILm1EE7MatchesISt5tupleIJNS_7MatcherIP18BLEServerCallbacksEENS5_IP26BLECharacteristicCallbacksEEEES4_IJS7_SA_EEEEbRKT_RKT0_
FNDA:414,_ZN7testing8internal12TupleMatchesISt5tupleIJNS_7MatcherIhEES4_EES2_IJhhEEEEbRKT_RKT0_
FNDA:0,_ZN7testing8internal11TuplePrefixILm0EE7MatchesISt5tupleIJNS_7MatcherItEENS5_IhEEEES4_IJthEEEEbRKT_RKT0_
FNDA:78,_ZN7testing8internal11TuplePrefixILm3EE7MatchesISt5tupleIJNS_7MatcherIhEES6_S6_S6_S6_EES4_IJhhhhhEEEEbRKT_RKT0_
FNDA:0,_ZN7testing8internal11TuplePrefixILm2EE22ExplainMatchFailuresToISt5tupleIJNS_7MatcherIP18BLEServerCallbacksEENS5_IP26BLECharacteristicCallbacksEEEES4_IJS7_SA_EEEEvRKT_RKT0_PSo
FNDA:0,_ZN7testing8internal11TuplePrefixILm1EE22ExplainMatchFailuresToISt5tupleIJNS_7MatcherItEEEES4_IJtEEEEvRKT_RKT0_PSo
FNDA:0,_ZN7testing8internal11TuplePrefixILm2EE22ExplainMatchFailuresToISt5tupleIJNS_7MatcherIPKhEENS5_ImEEEES4_IJS7_mEEEEvRKT_RKT0_PSo
FNDA:0,_ZN7testing8internal22ElementsAreMatcherImplIRKSt5tupleIJPKhmEEE8ElementsEm
FNDA:0,_ZN7testing8internal26ExplainMatchFailureTupleToISt5tupleIJNS_7MatcherIP18BLEServerCallbacksEENS3_IP26BLECharacteristicCallbacksEEEES2_IJS5_S8_EEEEvRKT_RKT0_PSo
FNDA:0,_ZN7testing8internal11TuplePrefixILm1EE22ExplainMatchFailuresToISt5tupleIJNS_7MatcherItEENS5_IsEEEES4_IJtsEEEEvRKT_RKT0_PSo
FNDA:1,_ZN7testing8internal26TransformTupleValuesHelperISt5tupleIJccEENS0_22CastAndAppendTransformIRKhEESt20back_insert_iteratorISt6vectorINS_7MatcherIS6_EESaISB_EEEE3RunES7_RKS3_SE_
FNDA:1,_ZNK7testing8internal26TransformTupleValuesHelperISt5tupleIJccEENS0_22CastAndAppendTransformIRKhEESt20back_insert_iteratorISt6vectorINS_7MatcherIS6_EESaISB_EEEE16IterateOverTupleIS3_Lm0EEclES7_RKS3_SE_
FNDA:0,_ZN7testing8internal11TuplePrefixILm4EE7MatchesISt5tupleIJNS_7MatcherIhEES6_S6_S6_EES4_IJhhhhEEEEbRKT_RKT0_
FNDA:0,_ZN7testing8internal11TuplePrefixILm0EE7MatchesISt5tupleIJNS_7MatcherIhEES6_S6_S6_EES4_IJhhhhEEEEbRKT_RKT0_
FNDA:0,_ZN7testing8internal12TupleMatchesISt5tupleIJNS_7MatcherIPKhEENS3_ImEENS3_IhEEEES2_IJS5_mhEEEEbRKT_RKT0_
FNDA:0,_ZN7testing8internal11TuplePrefixILm0EE22ExplainMatchFailuresToISt5tupleIJNS_7MatcherIPKhEENS5_ImEEEES4_IJS7_mEEEEvRKT_RKT0_PSo
FNDA:2,_ZNK7testing8internal26TransformTupleValuesHelperISt5tupleIJccccEENS0_22CastAndAppendTransformIRKhEESt20back_insert_iteratorISt6vectorINS_7MatcherIS6_EESaISB_EEEE16IterateOverTupleIS3_Lm1EEclES7_RKS3_SE_
FNDA:0,_ZNK7testing8internal14AnyMatcherImplIRKSt5tupleIJPKhmEEE10DescribeToEPSo
FNDA:1,_ZN7testing15SafeMatcherCastIRKSt5tupleIJPKhmEENS_8internal18ElementsAreMatcherIS1_IJccEEEEEENS_7MatcherIT_EERKT0_
FNDA:0,_ZNK7testing8internal14AnyMatcherImplIRKSt5tupleIJhEEE10DescribeToEPSo
FNDA:1,_ZNK7testing8internal26TransformTupleValuesHelperISt5tupleIJccEENS0_22CastAndAppendTransformIRKhEESt20back_insert_iteratorISt6vectorINS_7MatcherIS6_EESaISB_EEEE16IterateOverTupleIS3_Lm2EEclES7_RKS3_SE_
FNDA:0,_ZN7testing8internal26ExplainMatchFailureTupleToISt5tupleIJNS_7MatcherIhEENS3_IiEEEES2_IJhiEEEEvRKT_RKT0_PSo
FNDA:0,_ZN7testing8internal11TuplePrefixILm1EE7MatchesISt5tupleIJNS_7MatcherIPhEENS5_ImEEEES4_IJS6_mEEEEbRKT_RKT0_
FNDA:1,_ZN7testing8internal18ElementsAreMatcherISt5tupleIJccEEEC2ERKS3_
FNDA:0,_ZN7testing8internal26ExplainMatchFailureTupleToISt5tupleIJNS_7MatcherItEEEES2_IJtEEEEvRKT_RKT0_PSo
FNDA:5,_ZN7testing8internal12TupleMatchesISt5tupleIJNS_7MatcherIPKhEENS3_ImEEEES2_IJS5_mEEEEbRKT_RKT0_
FNDA:204,_ZNK7testing8internal14AnyMatcherImplIRKSt5tupleIJEEE15MatchAndExplainES5_PNS_19MatchResultListenerE
FNDA:0,_ZN7testing8internal11TuplePrefixILm1EE22ExplainMatchFailuresToISt5tupleIJNS_7MatcherIhEES6_S6_S6_S6_EES4_IJhhhhhEEEEvRKT_RKT0_PSo
FNDA:0,_ZN7testing8internal11TuplePrefixILm0EE22ExplainMatchFailuresToISt5tupleIJNS_7MatcherIPhEENS5_ImEEEES4_IJS6_mEEEEvRKT_RKT0_PSo
FNDA:0,_ZN7testing8internal12TupleMatchesISt5tupleIJNS_7MatcherIP26BLECharacteristicCallbacksEEEES2_IJS5_EEEEbRKT_RKT0_
FNDA:0,_ZN7testing8internal11TuplePrefixILm0EE7MatchesISt5tupleIJNS_7MatcherIhEENS5_IiEEEES4_IJhiEEEEbRKT_RKT0_
FNDA:0,_ZN7testing8internal11TuplePrefixILm0EE7MatchesISt5tupleIJNS_7MatcherIP26BLECharacteristicCallbacksEEEES4_IJS7_EEEEbRKT_RKT0_
FNDA:0,_ZN7testing8internal11TuplePrefixILm1EE22ExplainMatchFailuresToISt5tupleIJNS_7MatcherItEENS5_IhEEEES4_IJthEEEEvRKT_RKT0_PSo
FNDA:0,_ZN7testing8internal12TupleMatchesISt5tupleIJNS_7MatcherIhEES4_S4_S4_EES2_IJhhhhEEEEbRKT_RKT0_
FNDA:0,_ZN7testing8internal11TuplePrefixILm0EE22ExplainMatchFailuresToISt5tupleIJNS_7MatcherIhEEEES4_IJhEEEEvRKT_RKT0_PSo
FNDA:1,_ZNK7testing8internal26TransformTupleValuesHelperISt5tupleIJiiiEENS0_22CastAndAppendTransformIRKhEESt20back_insert_iteratorISt6vectorINS_7MatcherIS6_EESaISB_EEEE16IterateOverTupleIS3_Lm2EEclES7_RKS3_SE_
FNDA:0,_ZN7testing8internal11TuplePrefixILm1EE7MatchesISt5tupleIJNS_7MatcherIhEES6_S6_S6_EES4_IJhhhhEEEEbRKT_RKT0_
FNDA:0,_ZNK7testing8internal14AnyMatcherImplIRKSt5tupleIJPKhmEEE15MatchAndExplainES7_PNS_19MatchResultListenerE
FNDA:1,_ZN7testing8internal15MatcherCastImplIRKSt5tupleIJPKhmEENS0_18ElementsAreMatcherIS2_IJccEEEEE4CastERKSA_
FNDA:0,_ZN7testing8internal12TupleMatchesISt5tupleIJNS_7MatcherItEENS3_IsEEEES2_IJtsEEEEbRKT_RKT0_
FNDA:0,_ZN7testing8internal11TuplePrefixILm2EE22ExplainMatchFailuresToISt5tupleIJNS_7MatcherIhEES6_S6_S6_EES4_IJhhhhEEEEvRKT_RKT0_PSo
FNDA:10,_ZN7testing8internal15MatcherCastImplIRKhcE4CastERKc
FNDA:5,_ZNK7testing8internal22ElementsAreMatcherImplIRKSt5tupleIJPKhmEEE15MatchAndExplainES7_PNS_19MatchResultListenerE
FNDA:0,_ZN7testing4ArgsIJLm0ELm1EENS_8internal18ElementsAreMatcherISt5tupleIJccEEEEEENS1_11ArgsMatcherINSt5decayIT0_E4typeEJXspT_EEEEOS8_
FNDA:4,_ZNK7testing8internal15AnythingMatchercvNS_7MatcherIT_EEImEEv
FNDA:0,_ZNK7testing8internal14AnyMatcherImplIRKSt5tupleIJhhhhhEEE18DescribeNegationToEPSo
FNDA:1,_ZN7testing8internal11ArgsMatcherINS0_18ElementsAreMatcherISt5tupleIJccEEEEJLm0ELm1EEEC2ES5_
FNDA:1,_ZN7testing19SafeMatcherCastImplIRKSt5tupleIJPKhmEEE4CastINS_8internal18ElementsAreMatcherIS1_IJiiiEEEEEENS_7MatcherIS6_EERKT_
FNDA:0,_ZN7testing1AIRKSt5tupleIJhhhhhEEEENS_7MatcherIT_EEv
FNDA:414,_ZN7testing8internal11TuplePrefixILm1EE7MatchesISt5tupleIJNS_7MatcherIhEES6_EES4_IJhhEEEEbRKT_RKT0_
FNDA:0,_ZNK7testing8internal15ArgsMatcherImplIRKSt5tupleIJPKhmEEJLm0ELm1EEE10DescribeToEPSo
FNDA:4,_ZN7testing8internal11TuplePrefixILm0EE7MatchesISt5tupleIJNS_7MatcherItEEEES4_IJtEEEEbRKT_RKT0_
FNDA:1,_ZN7testing11ElementsAreIJccEEENS_8internal18ElementsAreMatcherISt5tupleIJDpNSt5decayIRKT_E4typeEEEEEDpS7_
FNDA:2,_ZN7testing8internal15ArgsMatcherImplIRKSt5tupleIJPKhmEEJLm0ELm1EEEC2INS0_18ElementsAreMatcherIS2_IJccccEEEEEERKT_
FNDA:0,_ZN7testing8internal11TuplePrefixILm0EE22ExplainMatchFailuresToISt5tupleIJEES5_EEvRKT_RKT0_PSo
FNDA:0,_ZN7testing8internal11TuplePrefixILm1EE22ExplainMatchFailuresToISt5tupleIJNS_7MatcherIPKhEENS5_ImEEEES4_IJS7_mEEEEvRKT_RKT0_PSo
FNDA:0,_ZN7testing8internal11TuplePrefixILm0EE7MatchesISt5tupleIJNS_7MatcherItEENS5_IsEEEES4_IJtsEEEEbRKT_RKT0_
FNDA:0,_ZNK7testing8internal15ArgsMatcherImplIRKSt5tupleIJPKhmEEJLm0ELm1EEE18DescribeNegationToEPSo
FNDA:24,_ZNK7testing8internal22ElementsAreMatcherImplIRKSt5tupleIJPKhmEEE5countEv
FNDA:0,_ZN7testing8internal11TuplePrefixILm0EE7MatchesISt5tupleIJNS_7MatcherImEEEES4_IJmEEEEbRKT_RKT0_
FNDA:1,_ZNK7testing8internal18ElementsAreMatcherISt5tupleIJccEEEcvNS_7MatcherIT_EEIRKS2_IJPKhmEEEEv
FNDA:0,_ZN7testing8internal11TuplePrefixILm2EE22ExplainMatchFailuresToISt5tupleIJNS_7MatcherIhEES6_S6_S6_S6_EES4_IJhhhhhEEEEvRKT_RKT0_PSo
FNDA:0,_ZN7testing8internal11TuplePrefixILm1EE22ExplainMatchFailuresToISt5tupleIJNS_7MatcherIPhEENS5_ImEEEES4_IJS6_mEEEEvRKT_RKT0_PSo
FNDA:0,_ZNK7testing8internal22ElementsAreMatcherImplIRKSt5tupleIJPKhmEEE10DescribeToEPSo
FNDA:0,_ZNK7testing8internal14AnyMatcherImplImE18DescribeNegationToEPSo
FNDA:0,_ZNK7testing8internal14AnyMatcherImplIRKSt5tupleIJhEEE18DescribeNegationToEPSo
FNDA:0,_ZN7testing8internal26ExplainMatchFailureTupleToISt5tupleIJNS_7MatcherIhEES4_S4_S4_S4_EES2_IJhhhhhEEEEvRKT_RKT0_PSo
FNDA:10,_ZN7testing11MatcherCastIRKhcEENS_7MatcherIT_EERKT0_
FNDA:10,_ZN7testing8internal15MatcherCastImplIRKhcE8CastImplILb1EEENS_7MatcherIS3_EERKcNS0_15BooleanConstantILb1EEENSA_IXT_EEE
FNDA:2,_ZN7testing8internal20TransformTupleValuesISt5tupleIJccccEENS0_22CastAndAppendTransformIRKhEESt20back_insert_iteratorISt6vectorINS_7MatcherIS6_EESaISB_EEEEET1_T0_RKT_SF_
FNDA:2,_ZN7testing8internal11ArgsMatcherINS0_18ElementsAreMatcherISt5tupleIJccccEEEEJLm0ELm1EEEC2ES5_
FNDA:0,_ZN7testing8internal11TuplePrefixILm0EE22ExplainMatchFailuresToISt5tupleIJNS_7MatcherIP18BLEServerCallbacksEENS5_IP26BLECharacteristicCallbacksEEEES4_IJS7_SA_EEEEvRKT_RKT0_PSo
FNDA:78,_ZN7testing8internal11TuplePrefixILm2EE7MatchesISt5tupleIJNS_7MatcherIhEES6_S6_S6_S6_EES4_IJhhhhhEEEEbRKT_RKT0_
FNDA:1,_ZN7testing15SafeMatcherCastIRKSt5tupleIJPKhmEENS_8internal18ElementsAreMatcherIS1_IJiiiEEEEEENS_7MatcherIT_EERKT0_
FNDA:0,_ZN7testing8internal26ExplainMatchFailureTupleToISt5tupleIJNS_7MatcherImEEEES2_IJmEEEEvRKT_RKT0_PSo
FNDA:5,_ZNK7testing8internal14AnyMatcherImplImE15MatchAndExplainERKmPNS_19MatchResultListenerE
FNDA:0,_ZNK7testing25StringMatchResultListener3strB5cxx11Ev
FNDA:204,_ZN7testing8internal11TuplePrefixILm0EE7MatchesISt5tupleIJEES5_EEbRKT_RKT0_
FNDA:0,_ZN7testing8internal11TuplePrefixILm1EE22ExplainMatchFailuresToISt5tupleIJNS_7MatcherIhEES6_EES4_IJhhEEEEvRKT_RKT0_PSo
FNDA:2,_ZN7testing8internal15MatcherCastImplIRKSt5tupleIJPKhmEENS0_18ElementsAreMatcherIS2_IJccccEEEEE8CastImplILb0EEENS_7MatcherIS7_EERKSA_NS0_15BooleanConstantILb1EEENSH_IXT_EEE
FNDA:2,_ZN7testing19SafeMatcherCastImplIRKSt5tupleIJPKhmEEE4CastINS_8internal18ElementsAreMatcherIS1_IJccccEEEEEENS_7MatcherIS6_EERKT_
FNDA:0,_ZN7testing8internal11TuplePrefixILm2EE7MatchesISt5tupleIJNS_7MatcherItEENS5_IsEEEES4_IJtsEEEEbRKT_RKT0_
FNDA:0,_ZNK7testing8internal14AnyMatcherImplIRKSt5tupleIJtEEE18DescribeNegationToEPSo
FNDA:0,_ZN7testing8internal26ExplainMatchFailureTupleToISt5tupleIJNS_7MatcherIP18BLEServerCallbacksEEEES2_IJS5_EEEEvRKT_RKT0_PSo
FNDA:1,_ZN7testing8internal11ArgsMatcherINS0_18ElementsAreMatcherISt5tupleIJiiiEEEEJLm0ELm1EEEC2ES5_
FNDA:0,_ZN7testing8internal26ExplainMatchFailureTupleToISt5tupleIJNS_7MatcherIPhEENS3_ImEEEES2_IJS4_mEEEEvRKT_RKT0_PSo
FNDA:0,_ZN7testing8internal11TuplePrefixILm2EE22ExplainMatchFailuresToISt5tupleIJNS_7MatcherIhEES6_EES4_IJhhEEEEvRKT_RKT0_PSo
FNDA:0,_ZN7testing8internal11TuplePrefixILm3EE7MatchesISt5tupleIJNS_7MatcherIhEES6_S6_S6_EES4_IJhhhhEEEEbRKT_RKT0_
FNDA:1,_ZN7testing19SafeMatcherCastImplIRKSt5tupleIJPKhmEEE4CastINS_8internal18ElementsAreMatcherIS1_IJccEEEEEENS_7MatcherIS6_EERKT_
FNDA:78,_ZN7testing8internal11TuplePrefixILm0EE7MatchesISt5tupleIJNS_7MatcherIhEES6_S6_S6_S6_EES4_IJhhhhhEEEEbRKT_RKT0_
FNDA:0,_ZNK7testing8internal14AnyMatcherImplImE10DescribeToEPSo
FNDA:10,_ZN7testing8internal11TuplePrefixILm0EE7MatchesISt5tupleIJNS_7MatcherIP18BLEServerCallbacksEENS5_IP26BLECharacteristicCallbacksEEEES4_IJS7_SA_EEEEbRKT_RKT0_
FNDA:0,_ZNK7testing8internal14AnyMatcherImplIRKSt5tupleIJtEEE10DescribeToEPSo
FNDA:0,_ZN7testing8internal11TuplePrefixILm1EE22ExplainMatchFailuresToISt5tupleIJNS_7MatcherIP18BLEServerCallbacksEENS5_IP26BLECharacteristicCallbacksEEEES4_IJS7_SA_EEEEvRKT_RKT0_PSo
FNDA:1,_ZN7testing8internal15MatcherCastImplIRKSt5tupleIJPKhmEENS0_18ElementsAreMatcherIS2_IJccEEEEE8CastImplILb0EEENS_7MatcherIS7_EERKSA_NS0_15BooleanConstantILb1EEENSH_IXT_EEE
FNDA:0,_ZNK7testing8internal14AnyMatcherImplIRKSt5tupleIJEEE10DescribeToEPSo
FNF:238
FNH:104
DA:90,0
DA:93,0
DA:121,17
DA:140,17
DA:145,17
DA:156,17
DA:238,13
DA:248,26
DA:249,26
DA:262,4
DA:263,4
DA:300,4
DA:301,4
DA:313,0
DA:315,0
DA:316,0
DA:318,0
DA:367,1574
DA:369,2891
DA:370,2891
DA:378,0
DA:382,0
DA:386,0
DA:387,0
DA:389,0
DA:390,0
DA:391,0
DA:392,0
DA:393,0
DA:394,0
DA:400,0
DA:401,0
DA:402,0
DA:404,0
DA:412,1037
DA:414,1037
DA:418,0
DA:420,0
DA:429,1037
DA:436,1037
DA:437,1037
DA:443,0
DA:446,0
DA:448,0
DA:462,4
DA:463,4
DA:469,13
DA:470,13
DA:471,13
DA:476,4
DA:477,4
DA:486,4
DA:487,4
DA:494,725
DA:496,725
DA:498,0
DA:499,0
DA:503,0
DA:504,0
DA:514,8
DA:2706,4
DA:2707,17
DA:2708,13
DA:2710,4
DA:2713,0
DA:2714,0
DA:2715,0
DA:2716,0
DA:2717,0
DA:2718,0
DA:2720,0
DA:2721,0
DA:2722,0
DA:2723,0
DA:2724,0
DA:2725,0
DA:2729,0
DA:2732,0
DA:2733,0
DA:2734,0
DA:2735,0
DA:2738,0
DA:2739,0
DA:2740,0
DA:2741,0
DA:2742,0
DA:2743,0
DA:2748,5
DA:2753,5
DA:2756,10
DA:2757,10
DA:2758,5
DA:2759,5
DA:2760,5
DA:2765,18
DA:2767,14
DA:2768,0
DA:2769,0
DA:2770,0
DA:2772,14
DA:2775,14
DA:2776,1
DA:2777,1
DA:2785,5
DA:2786,9
DA:2787,4
DA:2790,5
DA:2795,1
DA:2796,0
DA:2798,1
DA:2801,4
DA:2803,0
DA:2804,0
DA:2805,0
DA:2807,0
DA:2812,4
DA:2813,0
DA:2814,0
DA:2815,0
DA:2816,0
DA:2817,0
DA:2818,0
DA:2820,0
DA:2821,0
DA:2825,4
DA:2829,0
DA:2830,0
DA:2833,24
DA:3044,13
DA:3045,13
DA:3081,4
DA:3084,4
DA:3094,4
DA:3095,4
DA:3096,4
DA:3098,8
DA:3099,8
DA:3425,4
DA:3426,4
DA:3428,5
DA:3432,5
DA:3433,5
DA:3434,5
DA:3436,0
DA:3437,0
DA:3439,0
DA:3440,0
DA:3442,0
DA:3443,0
DA:3446,0
DA:3447,0
DA:3448,0
DA:3449,0
DA:3450,0
DA:3452,0
DA:3453,0
DA:3454,0
DA:3455,0
DA:3456,0
DA:3460,0
DA:3461,0
DA:3462,0
DA:3465,0
DA:3467,0
DA:3468,0
DA:3476,4
DA:3477,4
DA:3480,4
DA:3481,4
DA:3596,647
DA:3597,647
DA:4387,4
DA:4388,4
DA:4390,4
DA:4503,4
DA:4506,4
LF:176
LH:84
end_of_record
TN:
SF:/home/pieter/GitHub/Control-Surface/build/googletest/googletest-src/googlemock/include/gmock/gmock-spec-builders.h
FN:257,_ZNK7testing8internal21UntypedOnCallSpecBase4fileEv
FN:258,_ZNK7testing8internal21UntypedOnCallSpecBase4lineEv
FN:271,_ZNK7testing8internal21UntypedOnCallSpecBase18AssertSpecPropertyEbRKNSt7__cxx1112basic_stringIcSt11char_traitsIcESaIcEEE
FN:334,_ZNK7testing8internal10OnCallSpecIFvhhhhEE7MatchesERKSt5tupleIJhhhhEE
FN:334,_ZNK7testing8internal10OnCallSpecIFvhiEE7MatchesERKSt5tupleIJhiEE
FN:334,_ZNK7testing8internal10OnCallSpecIFitEE7MatchesERKSt5tupleIJtEE
FN:334,_ZNK7testing8internal10OnCallSpecIFmvEE7MatchesERKSt5tupleIJEE
FN:334,_ZNK7testing8internal10OnCallSpecIFvtsEE7MatchesERKSt5tupleIJtsEE
FN:334,_ZNK7testing8internal10OnCallSpecIFihEE7MatchesERKSt5tupleIJhEE
FN:334,_ZNK7testing8internal10OnCallSpecIFmPKhmEE7MatchesERKSt5tupleIJS3_mEE
FN:334,_ZNK7testing8internal10OnCallSpecIFvhhEE7MatchesERKSt5tupleIJhhEE
FN:334,_ZNK7testing8internal10OnCallSpecIFstEE7MatchesERKSt5tupleIJtEE
FN:334,_ZNK7testing8internal10OnCallSpecIFvPKhmhEE7MatchesERKSt5tupleIJS3_mhEE
FN:334,_ZNK7testing8internal10OnCallSpecIFvP18BLEServerCallbacksEE7MatchesERKSt5tupleIJS3_EE
FN:334,_ZNK7testing8internal10OnCallSpecIFvhEE7MatchesERKSt5tupleIJhEE
FN:334,_ZNK7testing8internal10OnCallSpecIFvP26BLECharacteristicCallbacksEE7MatchesERKSt5tupleIJS3_EE
FN:334,_ZNK7testing8internal10OnCallSpecIFNSt7__cxx1112basic_stringIcSt11char_traitsIcESaIcEEEvEE7MatchesERKSt5tupleIJEE
FN:334,_ZNK7testing8internal10OnCallSpecIFvPhmEE7MatchesERKSt5tupleIJS2_mEE
FN:334,_ZNK7testing8internal10OnCallSpecIFmhEE7MatchesERKSt5tupleIJhEE
FN:334,_ZNK7testing8internal10OnCallSpecIFvhhhhhEE7MatchesERKSt5tupleIJhhhhhEE
FN:334,_ZNK7testing8internal10OnCallSpecIFvthEE7MatchesERKSt5tupleIJthEE
FN:334,_ZNK7testing8internal10OnCallSpecIFvvEE7MatchesERKSt5tupleIJEE
FN:334,_ZNK7testing8internal10OnCallSpecIFlvEE7MatchesERKSt5tupleIJEE
FN:334,_ZNK7testing8internal10OnCallSpecIFvP18BLEServerCallbacksP26BLECharacteristicCallbacksEE7MatchesERKSt5tupleIJS3_S5_EE
FN:334,_ZNK7testing8internal10OnCallSpecIFivEE7MatchesERKSt5tupleIJEE
FN:334,_ZNK7testing8internal10OnCallSpecIF11MIDI_read_tvEE7MatchesERKSt5tupleIJEE
FN:334,_ZNK7testing8internal10OnCallSpecIFvmEE7MatchesERKSt5tupleIJmEE
FN:339,_ZNK7testing8internal10OnCallSpecIFvP18BLEServerCallbacksP26BLECharacteristicCallbacksEE9GetActionEv
FN:339,_ZNK7testing8internal10OnCallSpecIFvhhhhEE9GetActionEv
FN:339,_ZNK7testing8internal10OnCallSpecIFstEE9GetActionEv
FN:339,_ZNK7testing8internal10OnCallSpecIFvPKhmhEE9GetActionEv
FN:339,_ZNK7testing8internal10OnCallSpecIFNSt7__cxx1112basic_stringIcSt11char_traitsIcESaIcEEEvEE9GetActionEv
FN:339,_ZNK7testing8internal10OnCallSpecIFmhEE9GetActionEv
FN:339,_ZNK7testing8internal10OnCallSpecIFvtsEE9GetActionEv
FN:339,_ZNK7testing8internal10OnCallSpecIFlvEE9GetActionEv
FN:339,_ZNK7testing8internal10OnCallSpecIFivEE9GetActionEv
FN:339,_ZNK7testing8internal10OnCallSpecIFvP18BLEServerCallbacksEE9GetActionEv
FN:339,_ZNK7testing8internal10OnCallSpecIFvhhEE9GetActionEv
FN:339,_ZNK7testing8internal10OnCallSpecIFvPhmEE9GetActionEv
FN:339,_ZNK7testing8internal10OnCallSpecIFitEE9GetActionEv
FN:339,_ZNK7testing8internal10OnCallSpecIFmPKhmEE9GetActionEv
FN:339,_ZNK7testing8internal10OnCallSpecIFvhhhhhEE9GetActionEv
FN:339,_ZNK7testing8internal10OnCallSpecIFihEE9GetActionEv
FN:339,_ZNK7testing8internal10OnCallSpecIFvhiEE9GetActionEv
FN:339,_ZNK7testing8internal10OnCallSpecIFvhEE9GetActionEv
FN:339,_ZNK7testing8internal10OnCallSpecIF11MIDI_read_tvEE9GetActionEv
FN:339,_ZNK7testing8internal10OnCallSpecIFmvEE9GetActionEv
FN:339,_ZNK7testing8internal10OnCallSpecIFvvEE9GetActionEv
FN:339,_ZNK7testing8internal10OnCallSpecIFvmEE9GetActionEv
FN:339,_ZNK7testing8internal10OnCallSpecIFvP26BLECharacteristicCallbacksEE9GetActionEv
FN:339,_ZNK7testing8internal10OnCallSpecIFvthEE9GetActionEv
FN:550,_ZNK7testing11Expectation16expectation_baseEv
FN:580,_ZN7testing14ExpectationSetC2Ev
FN:616,_ZNK7testing14ExpectationSet5beginEv
FN:617,_ZNK7testing14ExpectationSet3endEv
FN:630,_ZN7testing8SequenceC2Ev
FN:703,_ZNK7testing8internal15ExpectationBase4fileEv
FN:704,_ZNK7testing8internal15ExpectationBase4lineEv
FN:705,_ZNK7testing8internal15ExpectationBase11source_textEv
FN:707,_ZNK7testing8internal15ExpectationBase11cardinalityEv
FN:710,_ZNK7testing8internal15ExpectationBase18DescribeLocationToEPSo
FN:752,_ZNK7testing8internal15ExpectationBase18ExpectSpecPropertyEbRKNSt7__cxx1112basic_stringIcSt11char_traitsIcESaIcEEE
FN:763,_ZNK7testing8internal15ExpectationBase21cardinality_specifiedEv
FN:766,_ZN7testing8internal15ExpectationBase15set_cardinalityERKNS_11CardinalityE
FN:779,_ZNK7testing8internal15ExpectationBase10is_retiredEv
FN:786,_ZN7testing8internal15ExpectationBase6RetireEv
FN:800,_ZNK7testing8internal15ExpectationBase11IsSaturatedEv
FN:822,_ZNK7testing8internal15ExpectationBase10call_countEv
FN:829,_ZN7testing8internal15ExpectationBase18IncrementCallCountEv
FN:890,_ZN7testing8internal16TypedExpectationIFvhhEEC2EPNS0_14FunctionMockerIS2_EEPKciRKNSt7__cxx1112basic_stringIcSt11char_traitsIcESaIcEEERKSt5tupleIJNS_7MatcherIhEESJ_EE
FN:890,_ZN7testing8internal16TypedExpectationIFmPKhmEEC2EPNS0_14FunctionMockerIS4_EEPKciRKNSt7__cxx1112basic_stringIcSt11char_traitsIcESaIcEEERKSt5tupleIJNS_7MatcherIS3_EENSK_ImEEEE
FN:890,_ZN7testing8internal16TypedExpectationIFvvEEC2EPNS0_14FunctionMockerIS2_EEPKciRKNSt7__cxx1112basic_stringIcSt11char_traitsIcESaIcEEERKSt5tupleIJEE
FN:890,_ZN7testing8internal16TypedExpectationIFvP18BLEServerCallbacksP26BLECharacteristicCallbacksEEC2EPNS0_14FunctionMockerIS6_EEPKciRKNSt7__cxx1112basic_stringIcSt11char_traitsIcESaIcEEERKSt5tupleIJNS_7MatcherIS3_EENSM_IS5_EEEE
FN:890,_ZN7testing8internal16TypedExpectationIFmhEEC2EPNS0_14FunctionMockerIS2_EEPKciRKNSt7__cxx1112basic_stringIcSt11char_traitsIcESaIcEEERKSt5tupleIJNS_7MatcherIhEEEE
FN:890,_ZN7testing8internal16TypedExpectationIFmvEEC2EPNS0_14FunctionMockerIS2_EEPKciRKNSt7__cxx1112basic_stringIcSt11char_traitsIcESaIcEEERKSt5tupleIJEE
FN:890,_ZN7testing8internal16TypedExpectationIFvhEEC2EPNS0_14FunctionMockerIS2_EEPKciRKNSt7__cxx1112basic_stringIcSt11char_traitsIcESaIcEEERKSt5tupleIJNS_7MatcherIhEEEE
FN:890,_ZN7testing8internal16TypedExpectationIFihEEC2EPNS0_14FunctionMockerIS2_EEPKciRKNSt7__cxx1112basic_stringIcSt11char_traitsIcESaIcEEERKSt5tupleIJNS_7MatcherIhEEEE
FN:890,_ZN7testing8internal16TypedExpectationIFvhhhhhEEC2EPNS0_14FunctionMockerIS2_EEPKciRKNSt7__cxx1112basic_stringIcSt11char_traitsIcESaIcEEERKSt5tupleIJNS_7MatcherIhEESJ_SJ_SJ_SJ_EE
FN:890,_ZN7testing8internal16TypedExpectationIFlvEEC2EPNS0_14FunctionMockerIS2_EEPKciRKNSt7__cxx1112basic_stringIcSt11char_traitsIcESaIcEEERKSt5tupleIJEE
FN:890,_ZN7testing8internal16TypedExpectationIFitEEC2EPNS0_14FunctionMockerIS2_EEPKciRKNSt7__cxx1112basic_stringIcSt11char_traitsIcESaIcEEERKSt5tupleIJNS_7MatcherItEEEE
FN:902,_ZN7testing8internal16TypedExpectationIFmvEED2Ev
FN:902,_ZN7testing8internal16TypedExpectationIFvvEED0Ev
FN:902,_ZN7testing8internal16TypedExpectationIFvhhEED2Ev
FN:902,_ZN7testing8internal16TypedExpectationIFitEED2Ev
FN:902,_ZN7testing8internal16TypedExpectationIFmPKhmEED2Ev
FN:902,_ZN7testing8internal16TypedExpectationIFihEED0Ev
FN:902,_ZN7testing8internal16TypedExpectationIFvvEED2Ev
FN:902,_ZN7testing8internal16TypedExpectationIFvhEED2Ev
FN:902,_ZN7testing8internal16TypedExpectationIFvhhhhhEED0Ev
FN:902,_ZN7testing8internal16TypedExpectationIFmvEED0Ev
FN:902,_ZN7testing8internal16TypedExpectationIFmhEED0Ev
FN:902,_ZN7testing8internal16TypedExpectationIFlvEED0Ev
FN:902,_ZN7testing8internal16TypedExpectationIFitEED0Ev
FN:902,_ZN7testing8internal16TypedExpectationIFvhEED0Ev
FN:902,_ZN7testing8internal16TypedExpectationIFmhEED2Ev
FN:902,_ZN7testing8internal16TypedExpectationIFihEED2Ev
FN:902,_ZN7testing8internal16TypedExpectationIFlvEED2Ev
FN:902,_ZN7testing8internal16TypedExpectationIFvhhEED0Ev
FN:902,_ZN7testing8internal16TypedExpectationIFmPKhmEED0Ev
FN:902,_ZN7testing8internal16TypedExpectationIFvP18BLEServerCallbacksP26BLECharacteristicCallbacksEED0Ev
FN:902,_ZN7testing8internal16TypedExpectationIFvP18BLEServerCallbacksP26BLECharacteristicCallbacksEED2Ev
FN:902,_ZN7testing8internal16TypedExpectationIFvhhhhhEED2Ev
FN:913,_ZN7testing8internal16TypedExpectationIFmPKhmEE4WithERKNS_7MatcherIRKSt5tupleIJS3_mEEEE
FN:931,_ZN7testing8internal16TypedExpectationIFvhhhhhEE5TimesERKNS_11CardinalityE
FN:931,_ZN7testing8internal16TypedExpectationIFihEE5TimesERKNS_11CardinalityE
FN:931,_ZN7testing8internal16TypedExpectationIFmvEE5TimesERKNS_11CardinalityE
FN:937,_ZN7testing8internal16TypedExpectationIFvhhhhhEE5TimesEi
FN:937,_ZN7testing8internal16TypedExpectationIFmvEE5TimesEi
FN:937,_ZN7testing8internal16TypedExpectationIFihEE5TimesEi
FN:942,_ZN7testing8internal16TypedExpectationIFihEE10InSequenceERKNS_8SequenceE
FN:942,_ZN7testing8internal16TypedExpectationIFitEE10InSequenceERKNS_8SequenceE
FN:942,_ZN7testing8internal16TypedExpectationIFvhhEE10InSequenceERKNS_8SequenceE
FN:1000,_ZN7testing8internal16TypedExpectationIFlvEE8WillOnceERKNS_6ActionIS2_EE
FN:1000,_ZN7testing8internal16TypedExpectationIFihEE8WillOnceERKNS_6ActionIS2_EE
FN:1000,_ZN7testing8internal16TypedExpectationIFmvEE8WillOnceERKNS_6ActionIS2_EE
FN:1014,_ZN7testing8internal16TypedExpectationIFmvEE14WillRepeatedlyERKNS_6ActionIS2_EE
FN:1064,_ZNK7testing8internal16TypedExpectationIFvhiEE15repeated_actionEv
FN:1064,_ZNK7testing8internal16TypedExpectationIFihEE15repeated_actionEv
FN:1064,_ZNK7testing8internal16TypedExpectationIFvP18BLEServerCallbacksEE15repeated_actionEv
FN:1064,_ZNK7testing8internal16TypedExpectationIFvhhEE15repeated_actionEv
FN:1064,_ZNK7testing8internal16TypedExpectationIFvhhhhhEE15repeated_actionEv
FN:1064,_ZNK7testing8internal16TypedExpectationIFvhEE15repeated_actionEv
FN:1064,_ZNK7testing8internal16TypedExpectationIFmPKhmEE15repeated_actionEv
FN:1064,_ZNK7testing8internal16TypedExpectationIFvPhmEE15repeated_actionEv
FN:1064,_ZNK7testing8internal16TypedExpectationIFstEE15repeated_actionEv
FN:1064,_ZNK7testing8internal16TypedExpectationIFvP18BLEServerCallbacksP26BLECharacteristicCallbacksEE15repeated_actionEv
FN:1064,_ZNK7testing8internal16TypedExpectationIFmhEE15repeated_actionEv
FN:1064,_ZNK7testing8internal16TypedExpectationIFvPKhmhEE15repeated_actionEv
FN:1064,_ZNK7testing8internal16TypedExpectationIFvP26BLECharacteristicCallbacksEE15repeated_actionEv
FN:1064,_ZNK7testing8internal16TypedExpectationIFvhhhhEE15repeated_actionEv
FN:1064,_ZNK7testing8internal16TypedExpectationIFitEE15repeated_actionEv
FN:1064,_ZNK7testing8internal16TypedExpectationIFmvEE15repeated_actionEv
FN:1064,_ZNK7testing8internal16TypedExpectationIFivEE15repeated_actionEv
FN:1064,_ZNK7testing8internal16TypedExpectationIF11MIDI_read_tvEE15repeated_actionEv
FN:1064,_ZNK7testing8internal16TypedExpectationIFNSt7__cxx1112basic_stringIcSt11char_traitsIcESaIcEEEvEE15repeated_actionEv
FN:1064,_ZNK7testing8internal16TypedExpectationIFvthEE15repeated_actionEv
FN:1064,_ZNK7testing8internal16TypedExpectationIFvmEE15repeated_actionEv
FN:1064,_ZNK7testing8internal16TypedExpectationIFlvEE15repeated_actionEv
FN:1064,_ZNK7testing8internal16TypedExpectationIFvtsEE15repeated_actionEv
FN:1064,_ZNK7testing8internal16TypedExpectationIFvvEE15repeated_actionEv
FN:1068,_ZN7testing8internal16TypedExpectationIFvhhEE27MaybeDescribeExtraMatcherToEPSo
FN:1068,_ZN7testing8internal16TypedExpectationIFlvEE27MaybeDescribeExtraMatcherToEPSo
FN:1068,_ZN7testing8internal16TypedExpectationIFvhEE27MaybeDescribeExtraMatcherToEPSo
FN:1068,_ZN7testing8internal16TypedExpectationIFmvEE27MaybeDescribeExtraMatcherToEPSo
FN:1068,_ZN7testing8internal16TypedExpectationIFitEE27MaybeDescribeExtraMatcherToEPSo
FN:1068,_ZN7testing8internal16TypedExpectationIFmPKhmEE27MaybeDescribeExtraMatcherToEPSo
FN:1068,_ZN7testing8internal16TypedExpectationIFmhEE27MaybeDescribeExtraMatcherToEPSo
FN:1068,_ZN7testing8internal16TypedExpectationIFvhhhhhEE27MaybeDescribeExtraMatcherToEPSo
FN:1068,_ZN7testing8internal16TypedExpectationIFihEE27MaybeDescribeExtraMatcherToEPSo
FN:1068,_ZN7testing8internal16TypedExpectationIFvvEE27MaybeDescribeExtraMatcherToEPSo
FN:1068,_ZN7testing8internal16TypedExpectationIFvP18BLEServerCallbacksP26BLECharacteristicCallbacksEE27MaybeDescribeExtraMatcherToEPSo
FN:1082,_ZN7testing8internal16TypedExpectationIFmvEE9GetHandleEv
FN:1082,_ZN7testing8internal16TypedExpectationIFvvEE9GetHandleEv
FN:1082,_ZN7testing8internal16TypedExpectationIFvhhEE9GetHandleEv
FN:1082,_ZN7testing8internal16TypedExpectationIFmPKhmEE9GetHandleEv
FN:1082,_ZN7testing8internal16TypedExpectationIFvP18BLEServerCallbacksP26BLECharacteristicCallbacksEE9GetHandleEv
FN:1082,_ZN7testing8internal16TypedExpectationIFvhEE9GetHandleEv
FN:1082,_ZN7testing8internal16TypedExpectationIFvhhhhhEE9GetHandleEv
FN:1082,_ZN7testing8internal16TypedExpectationIFmhEE9GetHandleEv
FN:1082,_ZN7testing8internal16TypedExpectationIFihEE9GetHandleEv
FN:1082,_ZN7testing8internal16TypedExpectationIFlvEE9GetHandleEv
FN:1082,_ZN7testing8internal16TypedExpectationIFitEE9GetHandleEv
FN:1089,_ZNK7testing8internal16TypedExpectationIFvhhhhEE7MatchesERKSt5tupleIJhhhhEE
FN:1089,_ZNK7testing8internal16TypedExpectationIFivEE7MatchesERKSt5tupleIJEE
FN:1089,_ZNK7testing8internal16TypedExpectationIFvP26BLECharacteristicCallbacksEE7MatchesERKSt5tupleIJS3_EE
FN:1089,_ZNK7testing8internal16TypedExpectationIFvhiEE7MatchesERKSt5tupleIJhiEE
FN:1089,_ZNK7testing8internal16TypedExpectationIFihEE7MatchesERKSt5tupleIJhEE
FN:1089,_ZNK7testing8internal16TypedExpectationIFvmEE7MatchesERKSt5tupleIJmEE
FN:1089,_ZNK7testing8internal16TypedExpectationIFNSt7__cxx1112basic_stringIcSt11char_traitsIcESaIcEEEvEE7MatchesERKSt5tupleIJEE
FN:1089,_ZNK7testing8internal16TypedExpectationIFvtsEE7MatchesERKSt5tupleIJtsEE
FN:1089,_ZNK7testing8internal16TypedExpectationIFlvEE7MatchesERKSt5tupleIJEE
FN:1089,_ZNK7testing8internal16TypedExpectationIFvhhEE7MatchesERKSt5tupleIJhhEE
FN:1089,_ZNK7testing8internal16TypedExpectationIFvvEE7MatchesERKSt5tupleIJEE
FN:1089,_ZNK7testing8internal16TypedExpectationIF11MIDI_read_tvEE7MatchesERKSt5tupleIJEE
FN:1089,_ZNK7testing8internal16TypedExpectationIFvPKhmhEE7MatchesERKSt5tupleIJS3_mhEE
FN:1089,_ZNK7testing8internal16TypedExpectationIFvhEE7MatchesERKSt5tupleIJhEE
FN:1089,_ZNK7testing8internal16TypedExpectationIFmvEE7MatchesERKSt5tupleIJEE
FN:1089,_ZNK7testing8internal16TypedExpectationIFstEE7MatchesERKSt5tupleIJtEE
FN:1089,_ZNK7testing8internal16TypedExpectationIFvhhhhhEE7MatchesERKSt5tupleIJhhhhhEE
FN:1089,_ZNK7testing8internal16TypedExpectationIFvP18BLEServerCallbacksEE7MatchesERKSt5tupleIJS3_EE
FN:1089,_ZNK7testing8internal16TypedExpectationIFvthEE7MatchesERKSt5tupleIJthEE
FN:1089,_ZNK7testing8internal16TypedExpectationIFitEE7MatchesERKSt5tupleIJtEE
FN:1089,_ZNK7testing8internal16TypedExpectationIFvP18BLEServerCallbacksP26BLECharacteristicCallbacksEE7MatchesERKSt5tupleIJS3_S5_EE
FN:1089,_ZNK7testing8internal16TypedExpectationIFmhEE7MatchesERKSt5tupleIJhEE
FN:1089,_ZNK7testing8internal16TypedExpectationIFmPKhmEE7MatchesERKSt5tupleIJS3_mEE
FN:1089,_ZNK7testing8internal16TypedExpectationIFvPhmEE7MatchesERKSt5tupleIJS2_mEE
FN:1096,_ZNK7testing8internal16TypedExpectationIFlvEE21ShouldHandleArgumentsERKSt5tupleIJEE
FN:1096,_ZNK7testing8internal16TypedExpectationIFitEE21ShouldHandleArgumentsERKSt5tupleIJtEE
FN:1096,_ZNK7testing8internal16TypedExpectationIFstEE21ShouldHandleArgumentsERKSt5tupleIJtEE
FN:1096,_ZNK7testing8internal16TypedExpectationIFvthEE21ShouldHandleArgumentsERKSt5tupleIJthEE
FN:1096,_ZNK7testing8internal16TypedExpectationIFvhhhhEE21ShouldHandleArgumentsERKSt5tupleIJhhhhEE
FN:1096,_ZNK7testing8internal16TypedExpectationIFmhEE21ShouldHandleArgumentsERKSt5tupleIJhEE
FN:1096,_ZNK7testing8internal16TypedExpectationIFvhiEE21ShouldHandleArgumentsERKSt5tupleIJhiEE
FN:1096,_ZNK7testing8internal16TypedExpectationIFvP18BLEServerCallbacksEE21ShouldHandleArgumentsERKSt5tupleIJS3_EE
FN:1096,_ZNK7testing8internal16TypedExpectationIFvPhmEE21ShouldHandleArgumentsERKSt5tupleIJS2_mEE
FN:1096,_ZNK7testing8internal16TypedExpectationIFivEE21ShouldHandleArgumentsERKSt5tupleIJEE
FN:1096,_ZNK7testing8internal16TypedExpectationIFvmEE21ShouldHandleArgumentsERKSt5tupleIJmEE
FN:1096,_ZNK7testing8internal16TypedExpectationIFvhhEE21ShouldHandleArgumentsERKSt5tupleIJhhEE
FN:1096,_ZNK7testing8internal16TypedExpectationIF11MIDI_read_tvEE21ShouldHandleArgumentsERKSt5tupleIJEE
FN:1096,_ZNK7testing8internal16TypedExpectationIFvP26BLECharacteristicCallbacksEE21ShouldHandleArgumentsERKSt5tupleIJS3_EE
FN:1096,_ZNK7testing8internal16TypedExpectationIFmvEE21ShouldHandleArgumentsERKSt5tupleIJEE
FN:1096,_ZNK7testing8internal16TypedExpectationIFvvEE21ShouldHandleArgumentsERKSt5tupleIJEE
FN:1096,_ZNK7testing8internal16TypedExpectationIFvtsEE21ShouldHandleArgumentsERKSt5tupleIJtsEE
FN:1096,_ZNK7testing8internal16TypedExpectationIFvPKhmhEE21ShouldHandleArgumentsERKSt5tupleIJS3_mhEE
FN:1096,_ZNK7testing8internal16TypedExpectationIFmPKhmEE21ShouldHandleArgumentsERKSt5tupleIJS3_mEE
FN:1096,_ZNK7testing8internal16TypedExpectationIFvP18BLEServerCallbacksP26BLECharacteristicCallbacksEE21ShouldHandleArgumentsERKSt5tupleIJS3_S5_EE
FN:1096,_ZNK7testing8internal16TypedExpectationIFvhEE21ShouldHandleArgumentsERKSt5tupleIJhEE
FN:1096,_ZNK7testing8internal16TypedExpectationIFvhhhhhEE21ShouldHandleArgumentsERKSt5tupleIJhhhhhEE
FN:1096,_ZNK7testing8internal16TypedExpectationIFNSt7__cxx1112basic_stringIcSt11char_traitsIcESaIcEEEvEE21ShouldHandleArgumentsERKSt5tupleIJEE
FN:1096,_ZNK7testing8internal16TypedExpectationIFihEE21ShouldHandleArgumentsERKSt5tupleIJhEE
FN:1110,_ZNK7testing8internal16TypedExpectationIFmvEE20ExplainMatchResultToERKSt5tupleIJEEPSo
FN:1110,_ZNK7testing8internal16TypedExpectationIFvP18BLEServerCallbacksEE20ExplainMatchResultToERKSt5tupleIJS3_EEPSo
FN:1110,_ZNK7testing8internal16TypedExpectationIFvhhEE20ExplainMatchResultToERKSt5tupleIJhhEEPSo
FN:1110,_ZNK7testing8internal16TypedExpectationIFstEE20ExplainMatchResultToERKSt5tupleIJtEEPSo
FN:1110,_ZNK7testing8internal16TypedExpectationIFvhiEE20ExplainMatchResultToERKSt5tupleIJhiEEPSo
FN:1110,_ZNK7testing8internal16TypedExpectationIFvPKhmhEE20ExplainMatchResultToERKSt5tupleIJS3_mhEEPSo
FN:1110,_ZNK7testing8internal16TypedExpectationIFvmEE20ExplainMatchResultToERKSt5tupleIJmEEPSo
FN:1110,_ZNK7testing8internal16TypedExpectationIFvP18BLEServerCallbacksP26BLECharacteristicCallbacksEE20ExplainMatchResultToERKSt5tupleIJS3_S5_EEPSo
FN:1110,_ZNK7testing8internal16TypedExpectationIFvhEE20ExplainMatchResultToERKSt5tupleIJhEEPSo
FN:1110,_ZNK7testing8internal16TypedExpectationIFitEE20ExplainMatchResultToERKSt5tupleIJtEEPSo
FN:1110,_ZNK7testing8internal16TypedExpectationIFNSt7__cxx1112basic_stringIcSt11char_traitsIcESaIcEEEvEE20ExplainMatchResultToERKSt5tupleIJEEPSo
FN:1110,_ZNK7testing8internal16TypedExpectationIFvtsEE20ExplainMatchResultToERKSt5tupleIJtsEEPSo
FN:1110,_ZNK7testing8internal16TypedExpectationIFmhEE20ExplainMatchResultToERKSt5tupleIJhEEPSo
FN:1110,_ZNK7testing8internal16TypedExpectationIFvhhhhhEE20ExplainMatchResultToERKSt5tupleIJhhhhhEEPSo
FN:1110,_ZNK7testing8internal16TypedExpectationIFvP26BLECharacteristicCallbacksEE20ExplainMatchResultToERKSt5tupleIJS3_EEPSo
FN:1110,_ZNK7testing8internal16TypedExpectationIFvhhhhEE20ExplainMatchResultToERKSt5tupleIJhhhhEEPSo
FN:1110,_ZNK7testing8internal16TypedExpectationIFlvEE20ExplainMatchResultToERKSt5tupleIJEEPSo
FN:1110,_ZNK7testing8internal16TypedExpectationIF11MIDI_read_tvEE20ExplainMatchResultToERKSt5tupleIJEEPSo
FN:1110,_ZNK7testing8internal16TypedExpectationIFivEE20ExplainMatchResultToERKSt5tupleIJEEPSo
FN:1110,_ZNK7testing8internal16TypedExpectationIFvthEE20ExplainMatchResultToERKSt5tupleIJthEEPSo
FN:1110,_ZNK7testing8internal16TypedExpectationIFvvEE20ExplainMatchResultToERKSt5tupleIJEEPSo
FN:1110,_ZNK7testing8internal16TypedExpectationIFvPhmEE20ExplainMatchResultToERKSt5tupleIJS2_mEEPSo
FN:1110,_ZNK7testing8internal16TypedExpectationIFihEE20ExplainMatchResultToERKSt5tupleIJhEEPSo
FN:1110,_ZNK7testing8internal16TypedExpectationIFmPKhmEE20ExplainMatchResultToERKSt5tupleIJS3_mEEPSo
FN:1155,_ZNK7testing8internal16TypedExpectationIFvhiEE16GetCurrentActionEPKNS0_14FunctionMockerIS2_EERKSt5tupleIJhiEE
FN:1155,_ZNK7testing8internal16TypedExpectationIFvhhhhhEE16GetCurrentActionEPKNS0_14FunctionMockerIS2_EERKSt5tupleIJhhhhhEE
FN:1155,_ZNK7testing8internal16TypedExpectationIFvP18BLEServerCallbacksEE16GetCurrentActionEPKNS0_14FunctionMockerIS4_EERKSt5tupleIJS3_EE
FN:1155,_ZNK7testing8internal16TypedExpectationIFmvEE16GetCurrentActionEPKNS0_14FunctionMockerIS2_EERKSt5tupleIJEE
FN:1155,_ZNK7testing8internal16TypedExpectationIFvhhEE16GetCurrentActionEPKNS0_14FunctionMockerIS2_EERKSt5tupleIJhhEE
FN:1155,_ZNK7testing8internal16TypedExpectationIFvPhmEE16GetCurrentActionEPKNS0_14FunctionMockerIS3_EERKSt5tupleIJS2_mEE
FN:1155,_ZNK7testing8internal16TypedExpectationIFvP18BLEServerCallbacksP26BLECharacteristicCallbacksEE16GetCurrentActionEPKNS0_14FunctionMockerIS6_EERKSt5tupleIJS3_S5_EE
FN:1155,_ZNK7testing8internal16TypedExpectationIFihEE16GetCurrentActionEPKNS0_14FunctionMockerIS2_EERKSt5tupleIJhEE
FN:1155,_ZNK7testing8internal16TypedExpectationIFvthEE16GetCurrentActionEPKNS0_14FunctionMockerIS2_EERKSt5tupleIJthEE
FN:1155,_ZNK7testing8internal16TypedExpectationIFvhhhhEE16GetCurrentActionEPKNS0_14FunctionMockerIS2_EERKSt5tupleIJhhhhEE
FN:1155,_ZNK7testing8internal16TypedExpectationIFitEE16GetCurrentActionEPKNS0_14FunctionMockerIS2_EERKSt5tupleIJtEE
FN:1155,_ZNK7testing8internal16TypedExpectationIFlvEE16GetCurrentActionEPKNS0_14FunctionMockerIS2_EERKSt5tupleIJEE
FN:1155,_ZNK7testing8internal16TypedExpectationIFvPKhmhEE16GetCurrentActionEPKNS0_14FunctionMockerIS4_EERKSt5tupleIJS3_mhEE
FN:1155,_ZNK7testing8internal16TypedExpectationIFvhEE16GetCurrentActionEPKNS0_14FunctionMockerIS2_EERKSt5tupleIJhEE
FN:1155,_ZNK7testing8internal16TypedExpectationIFvP26BLECharacteristicCallbacksEE16GetCurrentActionEPKNS0_14FunctionMockerIS4_EERKSt5tupleIJS3_EE
FN:1155,_ZNK7testing8internal16TypedExpectationIFmhEE16GetCurrentActionEPKNS0_14FunctionMockerIS2_EERKSt5tupleIJhEE
FN:1155,_ZNK7testing8internal16TypedExpectationIFvvEE16GetCurrentActionEPKNS0_14FunctionMockerIS2_EERKSt5tupleIJEE
FN:1155,_ZNK7testing8internal16TypedExpectationIFNSt7__cxx1112basic_stringIcSt11char_traitsIcESaIcEEEvEE16GetCurrentActionEPKNS0_14FunctionMockerIS8_EERKSt5tupleIJEE
FN:1155,_ZNK7testing8internal16TypedExpectationIFivEE16GetCurrentActionEPKNS0_14FunctionMockerIS2_EERKSt5tupleIJEE
FN:1155,_ZNK7testing8internal16TypedExpectationIFvtsEE16GetCurrentActionEPKNS0_14FunctionMockerIS2_EERKSt5tupleIJtsEE
FN:1155,_ZNK7testing8internal16TypedExpectationIFvmEE16GetCurrentActionEPKNS0_14FunctionMockerIS2_EERKSt5tupleIJmEE
FN:1155,_ZNK7testing8internal16TypedExpectationIFmPKhmEE16GetCurrentActionEPKNS0_14FunctionMockerIS4_EERKSt5tupleIJS3_mEE
FN:1155,_ZNK7testing8internal16TypedExpectationIF11MIDI_read_tvEE16GetCurrentActionEPKNS0_14FunctionMockerIS3_EERKSt5tupleIJEE
FN:1155,_ZNK7testing8internal16TypedExpectationIFstEE16GetCurrentActionEPKNS0_14FunctionMockerIS2_EERKSt5tupleIJtEE
FN:1192,_ZN7testing8internal16TypedExpectationIFvthEE21GetActionForArgumentsEPKNS0_14FunctionMockerIS2_EERKSt5tupleIJthEEPSoSC_
FN:1192,_ZN7testing8internal16TypedExpectationIFvP26BLECharacteristicCallbacksEE21GetActionForArgumentsEPKNS0_14FunctionMockerIS4_EERKSt5tupleIJS3_EEPSoSE_
FN:1192,_ZN7testing8internal16TypedExpectationIFvmEE21GetActionForArgumentsEPKNS0_14FunctionMockerIS2_EERKSt5tupleIJmEEPSoSC_
FN:1192,_ZN7testing8internal16TypedExpectationIFihEE21GetActionForArgumentsEPKNS0_14FunctionMockerIS2_EERKSt5tupleIJhEEPSoSC_
FN:1192,_ZN7testing8internal16TypedExpectationIFitEE21GetActionForArgumentsEPKNS0_14FunctionMockerIS2_EERKSt5tupleIJtEEPSoSC_
FN:1192,_ZN7testing8internal16TypedExpectationIFvP18BLEServerCallbacksP26BLECharacteristicCallbacksEE21GetActionForArgumentsEPKNS0_14FunctionMockerIS6_EERKSt5tupleIJS3_S5_EEPSoSG_
FN:1192,_ZN7testing8internal16TypedExpectationIFvhhEE21GetActionForArgumentsEPKNS0_14FunctionMockerIS2_EERKSt5tupleIJhhEEPSoSC_
FN:1192,_ZN7testing8internal16TypedExpectationIF11MIDI_read_tvEE21GetActionForArgumentsEPKNS0_14FunctionMockerIS3_EERKSt5tupleIJEEPSoSD_
FN:1192,_ZN7testing8internal16TypedExpectationIFvtsEE21GetActionForArgumentsEPKNS0_14FunctionMockerIS2_EERKSt5tupleIJtsEEPSoSC_
FN:1192,_ZN7testing8internal16TypedExpectationIFNSt7__cxx1112basic_stringIcSt11char_traitsIcESaIcEEEvEE21GetActionForArgumentsEPKNS0_14FunctionMockerIS8_EERKSt5tupleIJEEPSoSI_
FN:1192,_ZN7testing8internal16TypedExpectationIFmvEE21GetActionForArgumentsEPKNS0_14FunctionMockerIS2_EERKSt5tupleIJEEPSoSC_
FN:1192,_ZN7testing8internal16TypedExpectationIFmhEE21GetActionForArgumentsEPKNS0_14FunctionMockerIS2_EERKSt5tupleIJhEEPSoSC_
FN:1192,_ZN7testing8internal16TypedExpectationIFstEE21GetActionForArgumentsEPKNS0_14FunctionMockerIS2_EERKSt5tupleIJtEEPSoSC_
FN:1192,_ZN7testing8internal16TypedExpectationIFivEE21GetActionForArgumentsEPKNS0_14FunctionMockerIS2_EERKSt5tupleIJEEPSoSC_
FN:1192,_ZN7testing8internal16TypedExpectationIFvPhmEE21GetActionForArgumentsEPKNS0_14FunctionMockerIS3_EERKSt5tupleIJS2_mEEPSoSD_
FN:1192,_ZN7testing8internal16TypedExpectationIFvhEE21GetActionForArgumentsEPKNS0_14FunctionMockerIS2_EERKSt5tupleIJhEEPSoSC_
FN:1192,_ZN7testing8internal16TypedExpectationIFvP18BLEServerCallbacksEE21GetActionForArgumentsEPKNS0_14FunctionMockerIS4_EERKSt5tupleIJS3_EEPSoSE_
FN:1192,_ZN7testing8internal16TypedExpectationIFlvEE21GetActionForArgumentsEPKNS0_14FunctionMockerIS2_EERKSt5tupleIJEEPSoSC_
FN:1192,_ZN7testing8internal16TypedExpectationIFvhiEE21GetActionForArgumentsEPKNS0_14FunctionMockerIS2_EERKSt5tupleIJhiEEPSoSC_
FN:1192,_ZN7testing8internal16TypedExpectationIFvhhhhhEE21GetActionForArgumentsEPKNS0_14FunctionMockerIS2_EERKSt5tupleIJhhhhhEEPSoSC_
FN:1192,_ZN7testing8internal16TypedExpectationIFvPKhmhEE21GetActionForArgumentsEPKNS0_14FunctionMockerIS4_EERKSt5tupleIJS3_mhEEPSoSE_
FN:1192,_ZN7testing8internal16TypedExpectationIFvvEE21GetActionForArgumentsEPKNS0_14FunctionMockerIS2_EERKSt5tupleIJEEPSoSC_
FN:1192,_ZN7testing8internal16TypedExpectationIFvhhhhEE21GetActionForArgumentsEPKNS0_14FunctionMockerIS2_EERKSt5tupleIJhhhhEEPSoSC_
FN:1192,_ZN7testing8internal16TypedExpectationIFmPKhmEE21GetActionForArgumentsEPKNS0_14FunctionMockerIS4_EERKSt5tupleIJS3_mEEPSoSE_
FN:1254,_ZN7testing8internal8MockSpecIFvvEEC2EPNS0_14FunctionMockerIS2_EERKSt5tupleIJEE
FN:1254,_ZN7testing8internal8MockSpecIFvhEEC2EPNS0_14FunctionMockerIS2_EERKSt5tupleIJNS_7MatcherIhEEEE
FN:1254,_ZN7testing8internal8MockSpecIFlvEEC2EPNS0_14FunctionMockerIS2_EERKSt5tupleIJEE
FN:1254,_ZN7testing8internal8MockSpecIFmvEEC2EPNS0_14FunctionMockerIS2_EERKSt5tupleIJEE
FN:1254,_ZN7testing8internal8MockSpecIFihEEC2EPNS0_14FunctionMockerIS2_EERKSt5tupleIJNS_7MatcherIhEEEE
FN:1254,_ZN7testing8internal8MockSpecIFmPKhmEEC2EPNS0_14FunctionMockerIS4_EERKSt5tupleIJNS_7MatcherIS3_EENSA_ImEEEE
FN:1254,_ZN7testing8internal8MockSpecIFmhEEC2EPNS0_14FunctionMockerIS2_EERKSt5tupleIJNS_7MatcherIhEEEE
FN:1254,_ZN7testing8internal8MockSpecIFvP18BLEServerCallbacksP26BLECharacteristicCallbacksEEC2EPNS0_14FunctionMockerIS6_EERKSt5tupleIJNS_7MatcherIS3_EENSC_IS5_EEEE
FN:1254,_ZN7testing8internal8MockSpecIFitEEC2EPNS0_14FunctionMockerIS2_EERKSt5tupleIJNS_7MatcherItEEEE
FN:1254,_ZN7testing8internal8MockSpecIFvhhhhhEEC2EPNS0_14FunctionMockerIS2_EERKSt5tupleIJNS_7MatcherIhEES9_S9_S9_S9_EE
FN:1254,_ZN7testing8internal8MockSpecIFvhhEEC2EPNS0_14FunctionMockerIS2_EERKSt5tupleIJNS_7MatcherIhEES9_EE
FN:1269,_ZN7testing8internal8MockSpecIFmPKhmEE18InternalExpectedAtEPKciS7_S7_
FN:1269,_ZN7testing8internal8MockSpecIFvhEE18InternalExpectedAtEPKciS5_S5_
FN:1269,_ZN7testing8internal8MockSpecIFihEE18InternalExpectedAtEPKciS5_S5_
FN:1269,_ZN7testing8internal8MockSpecIFvvEE18InternalExpectedAtEPKciS5_S5_
FN:1269,_ZN7testing8internal8MockSpecIFvhhEE18InternalExpectedAtEPKciS5_S5_
FN:1269,_ZN7testing8internal8MockSpecIFmvEE18InternalExpectedAtEPKciS5_S5_
FN:1269,_ZN7testing8internal8MockSpecIFmhEE18InternalExpectedAtEPKciS5_S5_
FN:1269,_ZN7testing8internal8MockSpecIFitEE18InternalExpectedAtEPKciS5_S5_
FN:1269,_ZN7testing8internal8MockSpecIFlvEE18InternalExpectedAtEPKciS5_S5_
FN:1269,_ZN7testing8internal8MockSpecIFvhhhhhEE18InternalExpectedAtEPKciS5_S5_
FN:1269,_ZN7testing8internal8MockSpecIFvP18BLEServerCallbacksP26BLECharacteristicCallbacksEE18InternalExpectedAtEPKciS9_S9_
FN:1281,_ZN7testing8internal8MockSpecIFvP18BLEServerCallbacksP26BLECharacteristicCallbacksEEclERKNS0_15WithoutMatchersEPv
FN:1281,_ZN7testing8internal8MockSpecIFvhhEEclERKNS0_15WithoutMatchersEPv
FN:1281,_ZN7testing8internal8MockSpecIFlvEEclERKNS0_15WithoutMatchersEPv
FN:1281,_ZN7testing8internal8MockSpecIFmPKhmEEclERKNS0_15WithoutMatchersEPv
FN:1281,_ZN7testing8internal8MockSpecIFmhEEclERKNS0_15WithoutMatchersEPv
FN:1281,_ZN7testing8internal8MockSpecIFvvEEclERKNS0_15WithoutMatchersEPv
FN:1281,_ZN7testing8internal8MockSpecIFvhEEclERKNS0_15WithoutMatchersEPv
FN:1281,_ZN7testing8internal8MockSpecIFitEEclERKNS0_15WithoutMatchersEPv
FN:1281,_ZN7testing8internal8MockSpecIFvhhhhhEEclERKNS0_15WithoutMatchersEPv
FN:1281,_ZN7testing8internal8MockSpecIFihEEclERKNS0_15WithoutMatchersEPv
FN:1281,_ZN7testing8internal8MockSpecIFmvEEclERKNS0_15WithoutMatchersEPv
FN:1310,_ZN7testing8internal23ReferenceOrValueWrapperIiEC2Ei
FN:1310,_ZN7testing8internal23ReferenceOrValueWrapperINSt7__cxx1112basic_stringIcSt11char_traitsIcESaIcEEEEC2ES7_
FN:1310,_ZN7testing8internal23ReferenceOrValueWrapperIsEC2Es
FN:1310,_ZN7testing8internal23ReferenceOrValueWrapperImEC2Em
FN:1310,_ZN7testing8internal23ReferenceOrValueWrapperI11MIDI_read_tEC2ES2_
FN:1310,_ZN7testing8internal23ReferenceOrValueWrapperIlEC2El
FN:1317,_ZN7testing8internal23ReferenceOrValueWrapperImE6UnwrapEv
FN:1317,_ZN7testing8internal23ReferenceOrValueWrapperIiE6UnwrapEv
FN:1317,_ZN7testing8internal23ReferenceOrValueWrapperIsE6UnwrapEv
FN:1317,_ZN7testing8internal23ReferenceOrValueWrapperINSt7__cxx1112basic_stringIcSt11char_traitsIcESaIcEEEE6UnwrapEv
FN:1317,_ZN7testing8internal23ReferenceOrValueWrapperIlE6UnwrapEv
FN:1317,_ZN7testing8internal23ReferenceOrValueWrapperI11MIDI_read_tE6UnwrapEv
FN:1323,_ZNK7testing8internal23ReferenceOrValueWrapperI11MIDI_read_tE4PeekEv
FN:1323,_ZNK7testing8internal23ReferenceOrValueWrapperIiE4PeekEv
FN:1323,_ZNK7testing8internal23ReferenceOrValueWrapperIsE4PeekEv
FN:1323,_ZNK7testing8internal23ReferenceOrValueWrapperINSt7__cxx1112basic_stringIcSt11char_traitsIcESaIcEEEE4PeekEv
FN:1323,_ZNK7testing8internal23ReferenceOrValueWrapperImE4PeekEv
FN:1323,_ZNK7testing8internal23ReferenceOrValueWrapperIlE4PeekEv
FN:1365,_ZN7testing8internal29UntypedActionResultHolderBaseD2Ev
FN:1365,_ZN7testing8internal29UntypedActionResultHolderBaseD0Ev
FN:1376,_ZN7testing8internal18ActionResultHolderIlE6UnwrapEv
FN:1376,_ZN7testing8internal18ActionResultHolderImE6UnwrapEv
FN:1376,_ZN7testing8internal18ActionResultHolderINSt7__cxx1112basic_stringIcSt11char_traitsIcESaIcEEEE6UnwrapEv
FN:1376,_ZN7testing8internal18ActionResultHolderI11MIDI_read_tE6UnwrapEv
FN:1376,_ZN7testing8internal18ActionResultHolderIsE6UnwrapEv
FN:1376,_ZN7testing8internal18ActionResultHolderIiE6UnwrapEv
FN:1381,_ZNK7testing8internal18ActionResultHolderI11MIDI_read_tE19PrintAsActionResultEPSo
FN:1381,_ZNK7testing8internal18ActionResultHolderINSt7__cxx1112basic_stringIcSt11char_traitsIcESaIcEEEE19PrintAsActionResultEPSo
FN:1381,_ZNK7testing8internal18ActionResultHolderIiE19PrintAsActionResultEPSo
FN:1381,_ZNK7testing8internal18ActionResultHolderIlE19PrintAsActionResultEPSo
FN:1381,_ZNK7testing8internal18ActionResultHolderImE19PrintAsActionResultEPSo
FN:1381,_ZNK7testing8internal18ActionResultHolderIsE19PrintAsActionResultEPSo
FN:1390,_ZN7testing8internal18ActionResultHolderINSt7__cxx1112basic_stringIcSt11char_traitsIcESaIcEEEE20PerformDefaultActionIFS7_vEEEPS8_PKNS0_14FunctionMockerIT_EEONS0_8FunctionISD_E13ArgumentTupleERKS7_
FN:1390,_ZN7testing8internal18ActionResultHolderI11MIDI_read_tE20PerformDefaultActionIFS2_vEEEPS3_PKNS0_14FunctionMockerIT_EEONS0_8FunctionIS8_E13ArgumentTupleERKNSt7__cxx1112basic_stringIcSt11char_traitsIcESaIcEEE
FN:1390,_ZN7testing8internal18ActionResultHolderIiE20PerformDefaultActionIFihEEEPS2_PKNS0_14FunctionMockerIT_EEONS0_8FunctionIS7_E13ArgumentTupleERKNSt7__cxx1112basic_stringIcSt11char_traitsIcESaIcEEE
FN:1390,_ZN7testing8internal18ActionResultHolderIiE20PerformDefaultActionIFivEEEPS2_PKNS0_14FunctionMockerIT_EEONS0_8FunctionIS7_E13ArgumentTupleERKNSt7__cxx1112basic_stringIcSt11char_traitsIcESaIcEEE
FN:1390,_ZN7testing8internal18ActionResultHolderImE20PerformDefaultActionIFmPKhmEEEPS2_PKNS0_14FunctionMockerIT_EEONS0_8FunctionIS9_E13ArgumentTupleERKNSt7__cxx1112basic_stringIcSt11char_traitsIcESaIcEEE
FN:1390,_ZN7testing8internal18ActionResultHolderIsE20PerformDefaultActionIFstEEEPS2_PKNS0_14FunctionMockerIT_EEONS0_8FunctionIS7_E13ArgumentTupleERKNSt7__cxx1112basic_stringIcSt11char_traitsIcESaIcEEE
FN:1390,_ZN7testing8internal18ActionResultHolderIiE20PerformDefaultActionIFitEEEPS2_PKNS0_14FunctionMockerIT_EEONS0_8FunctionIS7_E13ArgumentTupleERKNSt7__cxx1112basic_stringIcSt11char_traitsIcESaIcEEE
FN:1390,_ZN7testing8internal18ActionResultHolderImE20PerformDefaultActionIFmvEEEPS2_PKNS0_14FunctionMockerIT_EEONS0_8FunctionIS7_E13ArgumentTupleERKNSt7__cxx1112basic_stringIcSt11char_traitsIcESaIcEEE
FN:1390,_ZN7testing8internal18ActionResultHolderIlE20PerformDefaultActionIFlvEEEPS2_PKNS0_14FunctionMockerIT_EEONS0_8FunctionIS7_E13ArgumentTupleERKNSt7__cxx1112basic_stringIcSt11char_traitsIcESaIcEEE
FN:1390,_ZN7testing8internal18ActionResultHolderImE20PerformDefaultActionIFmhEEEPS2_PKNS0_14FunctionMockerIT_EEONS0_8FunctionIS7_E13ArgumentTupleERKNSt7__cxx1112basic_stringIcSt11char_traitsIcESaIcEEE
FN:1401,_ZN7testing8internal18ActionResultHolderIiE13PerformActionIFivEEEPS2_RKNS_6ActionIT_EEONS0_8FunctionIS7_E13ArgumentTupleE
FN:1401,_ZN7testing8internal18ActionResultHolderINSt7__cxx1112basic_stringIcSt11char_traitsIcESaIcEEEE13PerformActionIFS7_vEEEPS8_RKNS_6ActionIT_EEONS0_8FunctionISD_E13ArgumentTupleE
FN:1401,_ZN7testing8internal18ActionResultHolderImE13PerformActionIFmvEEEPS2_RKNS_6ActionIT_EEONS0_8FunctionIS7_E13ArgumentTupleE
FN:1401,_ZN7testing8internal18ActionResultHolderIsE13PerformActionIFstEEEPS2_RKNS_6ActionIT_EEONS0_8FunctionIS7_E13ArgumentTupleE
FN:1401,_ZN7testing8internal18ActionResultHolderIiE13PerformActionIFitEEEPS2_RKNS_6ActionIT_EEONS0_8FunctionIS7_E13ArgumentTupleE
FN:1401,_ZN7testing8internal18ActionResultHolderI11MIDI_read_tE13PerformActionIFS2_vEEEPS3_RKNS_6ActionIT_EEONS0_8FunctionIS8_E13ArgumentTupleE
FN:1401,_ZN7testing8internal18ActionResultHolderImE13PerformActionIFmhEEEPS2_RKNS_6ActionIT_EEONS0_8FunctionIS7_E13ArgumentTupleE
FN:1401,_ZN7testing8internal18ActionResultHolderIlE13PerformActionIFlvEEEPS2_RKNS_6ActionIT_EEONS0_8FunctionIS7_E13ArgumentTupleE
FN:1401,_ZN7testing8internal18ActionResultHolderImE13PerformActionIFmPKhmEEEPS2_RKNS_6ActionIT_EEONS0_8FunctionIS9_E13ArgumentTupleE
FN:1401,_ZN7testing8internal18ActionResultHolderIiE13PerformActionIFihEEEPS2_RKNS_6ActionIT_EEONS0_8FunctionIS7_E13ArgumentTupleE
FN:1410,_ZN7testing8internal18ActionResultHolderINSt7__cxx1112basic_stringIcSt11char_traitsIcESaIcEEEEC2ENS0_23ReferenceOrValueWrapperIS7_EE
FN:1410,_ZN7testing8internal18ActionResultHolderIlEC2ENS0_23ReferenceOrValueWrapperIlEE
FN:1410,_ZN7testing8internal18ActionResultHolderI11MIDI_read_tEC2ENS0_23ReferenceOrValueWrapperIS2_EE
FN:1410,_ZN7testing8internal18ActionResultHolderIsEC2ENS0_23ReferenceOrValueWrapperIsEE
FN:1410,_ZN7testing8internal18ActionResultHolderIiEC2ENS0_23ReferenceOrValueWrapperIiEE
FN:1410,_ZN7testing8internal18ActionResultHolderImEC2ENS0_23ReferenceOrValueWrapperImEE
FN:1423,_ZN7testing8internal18ActionResultHolderIvE6UnwrapEv
FN:1425,_ZNK7testing8internal18ActionResultHolderIvE19PrintAsActionResultEPSo
FN:1430,_ZN7testing8internal18ActionResultHolderIvE20PerformDefaultActionIFvhEEEPS2_PKNS0_14FunctionMockerIT_EEONS0_8FunctionIS7_E13ArgumentTupleERKNSt7__cxx1112basic_stringIcSt11char_traitsIcESaIcEEE
FN:1430,_ZN7testing8internal18ActionResultHolderIvE20PerformDefaultActionIFvthEEEPS2_PKNS0_14FunctionMockerIT_EEONS0_8FunctionIS7_E13ArgumentTupleERKNSt7__cxx1112basic_stringIcSt11char_traitsIcESaIcEEE
FN:1430,_ZN7testing8internal18ActionResultHolderIvE20PerformDefaultActionIFvPhmEEEPS2_PKNS0_14FunctionMockerIT_EEONS0_8FunctionIS8_E13ArgumentTupleERKNSt7__cxx1112basic_stringIcSt11char_traitsIcESaIcEEE
FN:1430,_ZN7testing8internal18ActionResultHolderIvE20PerformDefaultActionIFvtsEEEPS2_PKNS0_14FunctionMockerIT_EEONS0_8FunctionIS7_E13ArgumentTupleERKNSt7__cxx1112basic_stringIcSt11char_traitsIcESaIcEEE
FN:1430,_ZN7testing8internal18ActionResultHolderIvE20PerformDefaultActionIFvmEEEPS2_PKNS0_14FunctionMockerIT_EEONS0_8FunctionIS7_E13ArgumentTupleERKNSt7__cxx1112basic_stringIcSt11char_traitsIcESaIcEEE
FN:1430,_ZN7testing8internal18ActionResultHolderIvE20PerformDefaultActionIFvPKhmhEEEPS2_PKNS0_14FunctionMockerIT_EEONS0_8FunctionIS9_E13ArgumentTupleERKNSt7__cxx1112basic_stringIcSt11char_traitsIcESaIcEEE
FN:1430,_ZN7testing8internal18ActionResultHolderIvE20PerformDefaultActionIFvhhEEEPS2_PKNS0_14FunctionMockerIT_EEONS0_8FunctionIS7_E13ArgumentTupleERKNSt7__cxx1112basic_stringIcSt11char_traitsIcESaIcEEE
FN:1430,_ZN7testing8internal18ActionResultHolderIvE20PerformDefaultActionIFvP18BLEServerCallbacksP26BLECharacteristicCallbacksEEEPS2_PKNS0_14FunctionMockerIT_EEONS0_8FunctionISB_E13ArgumentTupleERKNSt7__cxx1112basic_stringIcSt11char_traitsIcESaIcEEE
FN:1430,_ZN7testing8internal18ActionResultHolderIvE20PerformDefaultActionIFvhhhhhEEEPS2_PKNS0_14FunctionMockerIT_EEONS0_8FunctionIS7_E13ArgumentTupleERKNSt7__cxx1112basic_stringIcSt11char_traitsIcESaIcEEE
FN:1430,_ZN7testing8internal18ActionResultHolderIvE20PerformDefaultActionIFvvEEEPS2_PKNS0_14FunctionMockerIT_EEONS0_8FunctionIS7_E13ArgumentTupleERKNSt7__cxx1112basic_stringIcSt11char_traitsIcESaIcEEE
FN:1430,_ZN7testing8internal18ActionResultHolderIvE20PerformDefaultActionIFvP26BLECharacteristicCallbacksEEEPS2_PKNS0_14FunctionMockerIT_EEONS0_8FunctionIS9_E13ArgumentTupleERKNSt7__cxx1112basic_stringIcSt11char_traitsIcESaIcEEE
FN:1430,_ZN7testing8internal18ActionResultHolderIvE20PerformDefaultActionIFvP18BLEServerCallbacksEEEPS2_PKNS0_14FunctionMockerIT_EEONS0_8FunctionIS9_E13ArgumentTupleERKNSt7__cxx1112basic_stringIcSt11char_traitsIcESaIcEEE
FN:1430,_ZN7testing8internal18ActionResultHolderIvE20PerformDefaultActionIFvhhhhEEEPS2_PKNS0_14FunctionMockerIT_EEONS0_8FunctionIS7_E13ArgumentTupleERKNSt7__cxx1112basic_stringIcSt11char_traitsIcESaIcEEE
FN:1430,_ZN7testing8internal18ActionResultHolderIvE20PerformDefaultActionIFvhiEEEPS2_PKNS0_14FunctionMockerIT_EEONS0_8FunctionIS7_E13ArgumentTupleERKNSt7__cxx1112basic_stringIcSt11char_traitsIcESaIcEEE
FN:1441,_ZN7testing8internal18ActionResultHolderIvE13PerformActionIFvP18BLEServerCallbacksEEEPS2_RKNS_6ActionIT_EEONS0_8FunctionIS9_E13ArgumentTupleE
FN:1441,_ZN7testing8internal18ActionResultHolderIvE13PerformActionIFvhhhhEEEPS2_RKNS_6ActionIT_EEONS0_8FunctionIS7_E13ArgumentTupleE
FN:1441,_ZN7testing8internal18ActionResultHolderIvE13PerformActionIFvPKhmhEEEPS2_RKNS_6ActionIT_EEONS0_8FunctionIS9_E13ArgumentTupleE
FN:1441,_ZN7testing8internal18ActionResultHolderIvE13PerformActionIFvP26BLECharacteristicCallbacksEEEPS2_RKNS_6ActionIT_EEONS0_8FunctionIS9_E13ArgumentTupleE
FN:1441,_ZN7testing8internal18ActionResultHolderIvE13PerformActionIFvhhhhhEEEPS2_RKNS_6ActionIT_EEONS0_8FunctionIS7_E13ArgumentTupleE
FN:1441,_ZN7testing8internal18ActionResultHolderIvE13PerformActionIFvP18BLEServerCallbacksP26BLECharacteristicCallbacksEEEPS2_RKNS_6ActionIT_EEONS0_8FunctionISB_E13ArgumentTupleE
FN:1441,_ZN7testing8internal18ActionResultHolderIvE13PerformActionIFvhiEEEPS2_RKNS_6ActionIT_EEONS0_8FunctionIS7_E13ArgumentTupleE
FN:1441,_ZN7testing8internal18ActionResultHolderIvE13PerformActionIFvthEEEPS2_RKNS_6ActionIT_EEONS0_8FunctionIS7_E13ArgumentTupleE
FN:1441,_ZN7testing8internal18ActionResultHolderIvE13PerformActionIFvmEEEPS2_RKNS_6ActionIT_EEONS0_8FunctionIS7_E13ArgumentTupleE
FN:1441,_ZN7testing8internal18ActionResultHolderIvE13PerformActionIFvvEEEPS2_RKNS_6ActionIT_EEONS0_8FunctionIS7_E13ArgumentTupleE
FN:1441,_ZN7testing8internal18ActionResultHolderIvE13PerformActionIFvPhmEEEPS2_RKNS_6ActionIT_EEONS0_8FunctionIS8_E13ArgumentTupleE
FN:1441,_ZN7testing8internal18ActionResultHolderIvE13PerformActionIFvhEEEPS2_RKNS_6ActionIT_EEONS0_8FunctionIS7_E13ArgumentTupleE
FN:1441,_ZN7testing8internal18ActionResultHolderIvE13PerformActionIFvhhEEEPS2_RKNS_6ActionIT_EEONS0_8FunctionIS7_E13ArgumentTupleE
FN:1441,_ZN7testing8internal18ActionResultHolderIvE13PerformActionIFvtsEEEPS2_RKNS_6ActionIT_EEONS0_8FunctionIS7_E13ArgumentTupleE
FN:1448,_ZN7testing8internal18ActionResultHolderIvEC2Ev
FN:1464,_ZN7testing8internal14FunctionMockerIFmhEEC2Ev
FN:1464,_ZN7testing8internal14FunctionMockerIFvhiEEC2Ev
FN:1464,_ZN7testing8internal14FunctionMockerIFlvEEC2Ev
FN:1464,_ZN7testing8internal14FunctionMockerIFvthEEC2Ev
FN:1464,_ZN7testing8internal14FunctionMockerIFitEEC2Ev
FN:1464,_ZN7testing8internal14FunctionMockerIFvhEEC2Ev
FN:1464,_ZN7testing8internal14FunctionMockerIFvhhhhEEC2Ev
FN:1464,_ZN7testing8internal14FunctionMockerIFvvEEC2Ev
FN:1464,_ZN7testing8internal14FunctionMockerIFvP26BLECharacteristicCallbacksEEC2Ev
FN:1464,_ZN7testing8internal14FunctionMockerIFvP18BLEServerCallbacksP26BLECharacteristicCallbacksEEC2Ev
FN:1464,_ZN7testing8internal14FunctionMockerIFmPKhmEEC2Ev
FN:1464,_ZN7testing8internal14FunctionMockerIFihEEC2Ev
FN:1464,_ZN7testing8internal14FunctionMockerIFvPKhmhEEC2Ev
FN:1464,_ZN7testing8internal14FunctionMockerIF11MIDI_read_tvEEC2Ev
FN:1464,_ZN7testing8internal14FunctionMockerIFvtsEEC2Ev
FN:1464,_ZN7testing8internal14FunctionMockerIFmvEEC2Ev
FN:1464,_ZN7testing8internal14FunctionMockerIFstEEC2Ev
FN:1464,_ZN7testing8internal14FunctionMockerIFvmEEC2Ev
FN:1464,_ZN7testing8internal14FunctionMockerIFNSt7__cxx1112basic_stringIcSt11char_traitsIcESaIcEEEvEEC2Ev
FN:1464,_ZN7testing8internal14FunctionMockerIFvP18BLEServerCallbacksEEC2Ev
FN:1464,_ZN7testing8internal14FunctionMockerIFivEEC2Ev
FN:1464,_ZN7testing8internal14FunctionMockerIFvhhhhhEEC2Ev
FN:1464,_ZN7testing8internal14FunctionMockerIFvhhEEC2Ev
FN:1464,_ZN7testing8internal14FunctionMockerIFvPhmEEC2Ev
FN:1484,_ZN7testing8internal14FunctionMockerIFmvEED2Ev
FN:1484,_ZN7testing8internal14FunctionMockerIFihEED0Ev
FN:1484,_ZN7testing8internal14FunctionMockerIFvvEED0Ev
FN:1484,_ZN7testing8internal14FunctionMockerIFvtsEED0Ev
FN:1484,_ZN7testing8internal14FunctionMockerIFlvEED0Ev
FN:1484,_ZN7testing8internal14FunctionMockerIF11MIDI_read_tvEED0Ev
FN:1484,_ZN7testing8internal14FunctionMockerIFmvEED0Ev
FN:1484,_ZN7testing8internal14FunctionMockerIFvhhhhEED0Ev
FN:1484,_ZN7testing8internal14FunctionMockerIFihEED2Ev
FN:1484,_ZN7testing8internal14FunctionMockerIFvP26BLECharacteristicCallbacksEED2Ev
FN:1484,_ZN7testing8internal14FunctionMockerIFmPKhmEED0Ev
FN:1484,_ZN7testing8internal14FunctionMockerIFvtsEED2Ev
FN:1484,_ZN7testing8internal14FunctionMockerIFvP18BLEServerCallbacksEED0Ev
FN:1484,_ZN7testing8internal14FunctionMockerIFNSt7__cxx1112basic_stringIcSt11char_traitsIcESaIcEEEvEED2Ev
FN:1484,_ZN7testing8internal14FunctionMockerIFitEED0Ev
FN:1484,_ZN7testing8internal14FunctionMockerIFvPKhmhEED2Ev
FN:1484,_ZN7testing8internal14FunctionMockerIFvP18BLEServerCallbacksEED2Ev
FN:1484,_ZN7testing8internal14FunctionMockerIFvhhEED0Ev
FN:1484,_ZN7testing8internal14FunctionMockerIFvP18BLEServerCallbacksP26BLECharacteristicCallbacksEED0Ev
FN:1484,_ZN7testing8internal14FunctionMockerIFmhEED0Ev
FN:1484,_ZN7testing8internal14FunctionMockerIFvthEED2Ev
FN:1484,_ZN7testing8internal14FunctionMockerIFvPhmEED0Ev
FN:1484,_ZN7testing8internal14FunctionMockerIFvP18BLEServerCallbacksP26BLECharacteristicCallbacksEED2Ev
FN:1484,_ZN7testing8internal14FunctionMockerIFvvEED2Ev
FN:1484,_ZN7testing8internal14FunctionMockerIFvhhhhEED2Ev
FN:1484,_ZN7testing8internal14FunctionMockerIFvhEED2Ev
FN:1484,_ZN7testing8internal14FunctionMockerIFvhiEED2Ev
FN:1484,_ZN7testing8internal14FunctionMockerIFvhhEED2Ev
FN:1484,_ZN7testing8internal14FunctionMockerIFvP26BLECharacteristicCallbacksEED0Ev
FN:1484,_ZN7testing8internal14FunctionMockerIFstEED0Ev
FN:1484,_ZN7testing8internal14FunctionMockerIFivEED0Ev
FN:1484,_ZN7testing8internal14FunctionMockerIFvhiEED0Ev
FN:1484,_ZN7testing8internal14FunctionMockerIFvmEED0Ev
FN:1484,_ZN7testing8internal14FunctionMockerIFvhhhhhEED2Ev
FN:1484,_ZN7testing8internal14FunctionMockerIFvPKhmhEED0Ev
FN:1484,_ZN7testing8internal14FunctionMockerIFvPhmEED2Ev
FN:1484,_ZN7testing8internal14FunctionMockerIFlvEED2Ev
FN:1484,_ZN7testing8internal14FunctionMockerIFivEED2Ev
FN:1484,_ZN7testing8internal14FunctionMockerIFstEED2Ev
FN:1484,_ZN7testing8internal14FunctionMockerIFvhhhhhEED0Ev
FN:1484,_ZN7testing8internal14FunctionMockerIFvhEED0Ev
FN:1484,_ZN7testing8internal14FunctionMockerIFmhEED2Ev
FN:1484,_ZN7testing8internal14FunctionMockerIFNSt7__cxx1112basic_stringIcSt11char_traitsIcESaIcEEEvEED0Ev
FN:1484,_ZN7testing8internal14FunctionMockerIFvmEED2Ev
FN:1484,_ZN7testing8internal14FunctionMockerIFitEED2Ev
FN:1484,_ZN7testing8internal14FunctionMockerIFvthEED0Ev
FN:1484,_ZN7testing8internal14FunctionMockerIF11MIDI_read_tvEED2Ev
FN:1484,_ZN7testing8internal14FunctionMockerIFmPKhmEED2Ev
FN:1494,_ZNK7testing8internal14FunctionMockerIFstEE14FindOnCallSpecERKSt5tupleIJtEE
FN:1494,_ZNK7testing8internal14FunctionMockerIFvPKhmhEE14FindOnCallSpecERKSt5tupleIJS3_mhEE
FN:1494,_ZNK7testing8internal14FunctionMockerIFitEE14FindOnCallSpecERKSt5tupleIJtEE
FN:1494,_ZNK7testing8internal14FunctionMockerIFvP18BLEServerCallbacksP26BLECharacteristicCallbacksEE14FindOnCallSpecERKSt5tupleIJS3_S5_EE
FN:1494,_ZNK7testing8internal14FunctionMockerIFvhEE14FindOnCallSpecERKSt5tupleIJhEE
FN:1494,_ZNK7testing8internal14FunctionMockerIFNSt7__cxx1112basic_stringIcSt11char_traitsIcESaIcEEEvEE14FindOnCallSpecERKSt5tupleIJEE
FN:1494,_ZNK7testing8internal14FunctionMockerIFmvEE14FindOnCallSpecERKSt5tupleIJEE
FN:1494,_ZNK7testing8internal14FunctionMockerIFmhEE14FindOnCallSpecERKSt5tupleIJhEE
FN:1494,_ZNK7testing8internal14FunctionMockerIFvhiEE14FindOnCallSpecERKSt5tupleIJhiEE
FN:1494,_ZNK7testing8internal14FunctionMockerIFvthEE14FindOnCallSpecERKSt5tupleIJthEE
FN:1494,_ZNK7testing8internal14FunctionMockerIFvmEE14FindOnCallSpecERKSt5tupleIJmEE
FN:1494,_ZNK7testing8internal14FunctionMockerIFihEE14FindOnCallSpecERKSt5tupleIJhEE
FN:1494,_ZNK7testing8internal14FunctionMockerIFvhhhhhEE14FindOnCallSpecERKSt5tupleIJhhhhhEE
FN:1494,_ZNK7testing8internal14FunctionMockerIFvvEE14FindOnCallSpecERKSt5tupleIJEE
FN:1494,_ZNK7testing8internal14FunctionMockerIFvP18BLEServerCallbacksEE14FindOnCallSpecERKSt5tupleIJS3_EE
FN:1494,_ZNK7testing8internal14FunctionMockerIF11MIDI_read_tvEE14FindOnCallSpecERKSt5tupleIJEE
FN:1494,_ZNK7testing8internal14FunctionMockerIFvtsEE14FindOnCallSpecERKSt5tupleIJtsEE
FN:1494,_ZNK7testing8internal14FunctionMockerIFvhhhhEE14FindOnCallSpecERKSt5tupleIJhhhhEE
FN:1494,_ZNK7testing8internal14FunctionMockerIFivEE14FindOnCallSpecERKSt5tupleIJEE
FN:1494,_ZNK7testing8internal14FunctionMockerIFmPKhmEE14FindOnCallSpecERKSt5tupleIJS3_mEE
FN:1494,_ZNK7testing8internal14FunctionMockerIFvP26BLECharacteristicCallbacksEE14FindOnCallSpecERKSt5tupleIJS3_EE
FN:1494,_ZNK7testing8internal14FunctionMockerIFvPhmEE14FindOnCallSpecERKSt5tupleIJS2_mEE
FN:1494,_ZNK7testing8internal14FunctionMockerIFlvEE14FindOnCallSpecERKSt5tupleIJEE
FN:1494,_ZNK7testing8internal14FunctionMockerIFvhhEE14FindOnCallSpecERKSt5tupleIJhhEE
FN:1514,_ZNK7testing8internal14FunctionMockerIFvhhhhhEE20PerformDefaultActionEOSt5tupleIJhhhhhEERKNSt7__cxx1112basic_stringIcSt11char_traitsIcESaIcEEE
FN:1514,_ZNK7testing8internal14FunctionMockerIFmhEE20PerformDefaultActionEOSt5tupleIJhEERKNSt7__cxx1112basic_stringIcSt11char_traitsIcESaIcEEE
FN:1514,_ZNK7testing8internal14FunctionMockerIFNSt7__cxx1112basic_stringIcSt11char_traitsIcESaIcEEEvEE20PerformDefaultActionEOSt5tupleIJEERKS7_
FN:1514,_ZNK7testing8internal14FunctionMockerIFvhhhhEE20PerformDefaultActionEOSt5tupleIJhhhhEERKNSt7__cxx1112basic_stringIcSt11char_traitsIcESaIcEEE
FN:1514,_ZNK7testing8internal14FunctionMockerIFitEE20PerformDefaultActionEOSt5tupleIJtEERKNSt7__cxx1112basic_stringIcSt11char_traitsIcESaIcEEE
FN:1514,_ZNK7testing8internal14FunctionMockerIFvhEE20PerformDefaultActionEOSt5tupleIJhEERKNSt7__cxx1112basic_stringIcSt11char_traitsIcESaIcEEE
FN:1514,_ZNK7testing8internal14FunctionMockerIFvhiEE20PerformDefaultActionEOSt5tupleIJhiEERKNSt7__cxx1112basic_stringIcSt11char_traitsIcESaIcEEE
FN:1514,_ZNK7testing8internal14FunctionMockerIFivEE20PerformDefaultActionEOSt5tupleIJEERKNSt7__cxx1112basic_stringIcSt11char_traitsIcESaIcEEE
FN:1514,_ZNK7testing8internal14FunctionMockerIFvthEE20PerformDefaultActionEOSt5tupleIJthEERKNSt7__cxx1112basic_stringIcSt11char_traitsIcESaIcEEE
FN:1514,_ZNK7testing8internal14FunctionMockerIF11MIDI_read_tvEE20PerformDefaultActionEOSt5tupleIJEERKNSt7__cxx1112basic_stringIcSt11char_traitsIcESaIcEEE
FN:1514,_ZNK7testing8internal14FunctionMockerIFvP26BLECharacteristicCallbacksEE20PerformDefaultActionEOSt5tupleIJS3_EERKNSt7__cxx1112basic_stringIcSt11char_traitsIcESaIcEEE
FN:1514,_ZNK7testing8internal14FunctionMockerIFvP18BLEServerCallbacksEE20PerformDefaultActionEOSt5tupleIJS3_EERKNSt7__cxx1112basic_stringIcSt11char_traitsIcESaIcEEE
FN:1514,_ZNK7testing8internal14FunctionMockerIFvhhEE20PerformDefaultActionEOSt5tupleIJhhEERKNSt7__cxx1112basic_stringIcSt11char_traitsIcESaIcEEE
FN:1514,_ZNK7testing8internal14FunctionMockerIFvPKhmhEE20PerformDefaultActionEOSt5tupleIJS3_mhEERKNSt7__cxx1112basic_stringIcSt11char_traitsIcESaIcEEE
FN:1514,_ZNK7testing8internal14FunctionMockerIFmvEE20PerformDefaultActionEOSt5tupleIJEERKNSt7__cxx1112basic_stringIcSt11char_traitsIcESaIcEEE
FN:1514,_ZNK7testing8internal14FunctionMockerIFihEE20PerformDefaultActionEOSt5tupleIJhEERKNSt7__cxx1112basic_stringIcSt11char_traitsIcESaIcEEE
FN:1514,_ZNK7testing8internal14FunctionMockerIFmPKhmEE20PerformDefaultActionEOSt5tupleIJS3_mEERKNSt7__cxx1112basic_stringIcSt11char_traitsIcESaIcEEE
FN:1514,_ZNK7testing8internal14FunctionMockerIFvvEE20PerformDefaultActionEOSt5tupleIJEERKNSt7__cxx1112basic_stringIcSt11char_traitsIcESaIcEEE
FN:1514,_ZNK7testing8internal14FunctionMockerIFvtsEE20PerformDefaultActionEOSt5tupleIJtsEERKNSt7__cxx1112basic_stringIcSt11char_traitsIcESaIcEEE
FN:1514,_ZNK7testing8internal14FunctionMockerIFvmEE20PerformDefaultActionEOSt5tupleIJmEERKNSt7__cxx1112basic_stringIcSt11char_traitsIcESaIcEEE
FN:1514,_ZNK7testing8internal14FunctionMockerIFstEE20PerformDefaultActionEOSt5tupleIJtEERKNSt7__cxx1112basic_stringIcSt11char_traitsIcESaIcEEE
FN:1514,_ZNK7testing8internal14FunctionMockerIFvPhmEE20PerformDefaultActionEOSt5tupleIJS2_mEERKNSt7__cxx1112basic_stringIcSt11char_traitsIcESaIcEEE
FN:1514,_ZNK7testing8internal14FunctionMockerIFvP18BLEServerCallbacksP26BLECharacteristicCallbacksEE20PerformDefaultActionEOSt5tupleIJS3_S5_EERKNSt7__cxx1112basic_stringIcSt11char_traitsIcESaIcEEE
FN:1514,_ZNK7testing8internal14FunctionMockerIFlvEE20PerformDefaultActionEOSt5tupleIJEERKNSt7__cxx1112basic_stringIcSt11char_traitsIcESaIcEEE
FN:1540,_ZNK7testing8internal14FunctionMockerIFvPhmEE27UntypedPerformDefaultActionEPvRKNSt7__cxx1112basic_stringIcSt11char_traitsIcESaIcEEE
FN:1540,_ZNK7testing8internal14FunctionMockerIFivEE27UntypedPerformDefaultActionEPvRKNSt7__cxx1112basic_stringIcSt11char_traitsIcESaIcEEE
FN:1540,_ZNK7testing8internal14FunctionMockerIFstEE27UntypedPerformDefaultActionEPvRKNSt7__cxx1112basic_stringIcSt11char_traitsIcESaIcEEE
FN:1540,_ZNK7testing8internal14FunctionMockerIFvhhhhEE27UntypedPerformDefaultActionEPvRKNSt7__cxx1112basic_stringIcSt11char_traitsIcESaIcEEE
FN:1540,_ZNK7testing8internal14FunctionMockerIFvhhhhhEE27UntypedPerformDefaultActionEPvRKNSt7__cxx1112basic_stringIcSt11char_traitsIcESaIcEEE
FN:1540,_ZNK7testing8internal14FunctionMockerIFvhEE27UntypedPerformDefaultActionEPvRKNSt7__cxx1112basic_stringIcSt11char_traitsIcESaIcEEE
FN:1540,_ZNK7testing8internal14FunctionMockerIFvPKhmhEE27UntypedPerformDefaultActionEPvRKNSt7__cxx1112basic_stringIcSt11char_traitsIcESaIcEEE
FN:1540,_ZNK7testing8internal14FunctionMockerIFvvEE27UntypedPerformDefaultActionEPvRKNSt7__cxx1112basic_stringIcSt11char_traitsIcESaIcEEE
FN:1540,_ZNK7testing8internal14FunctionMockerIFmPKhmEE27UntypedPerformDefaultActionEPvRKNSt7__cxx1112basic_stringIcSt11char_traitsIcESaIcEEE
FN:1540,_ZNK7testing8internal14FunctionMockerIF11MIDI_read_tvEE27UntypedPerformDefaultActionEPvRKNSt7__cxx1112basic_stringIcSt11char_traitsIcESaIcEEE
FN:1540,_ZNK7testing8internal14FunctionMockerIFitEE27UntypedPerformDefaultActionEPvRKNSt7__cxx1112basic_stringIcSt11char_traitsIcESaIcEEE
FN:1540,_ZNK7testing8internal14FunctionMockerIFvP26BLECharacteristicCallbacksEE27UntypedPerformDefaultActionEPvRKNSt7__cxx1112basic_stringIcSt11char_traitsIcESaIcEEE
FN:1540,_ZNK7testing8internal14FunctionMockerIFvP18BLEServerCallbacksEE27UntypedPerformDefaultActionEPvRKNSt7__cxx1112basic_stringIcSt11char_traitsIcESaIcEEE
FN:1540,_ZNK7testing8internal14FunctionMockerIFmvEE27UntypedPerformDefaultActionEPvRKNSt7__cxx1112basic_stringIcSt11char_traitsIcESaIcEEE
FN:1540,_ZNK7testing8internal14FunctionMockerIFvP18BLEServerCallbacksP26BLECharacteristicCallbacksEE27UntypedPerformDefaultActionEPvRKNSt7__cxx1112basic_stringIcSt11char_traitsIcESaIcEEE
FN:1540,_ZNK7testing8internal14FunctionMockerIFlvEE27UntypedPerformDefaultActionEPvRKNSt7__cxx1112basic_stringIcSt11char_traitsIcESaIcEEE
FN:1540,_ZNK7testing8internal14FunctionMockerIFvthEE27UntypedPerformDefaultActionEPvRKNSt7__cxx1112basic_stringIcSt11char_traitsIcESaIcEEE
FN:1540,_ZNK7testing8internal14FunctionMockerIFvtsEE27UntypedPerformDefaultActionEPvRKNSt7__cxx1112basic_stringIcSt11char_traitsIcESaIcEEE
FN:1540,_ZNK7testing8internal14FunctionMockerIFvhiEE27UntypedPerformDefaultActionEPvRKNSt7__cxx1112basic_stringIcSt11char_traitsIcESaIcEEE
FN:1540,_ZNK7testing8internal14FunctionMockerIFihEE27UntypedPerformDefaultActionEPvRKNSt7__cxx1112basic_stringIcSt11char_traitsIcESaIcEEE
FN:1540,_ZNK7testing8internal14FunctionMockerIFmhEE27UntypedPerformDefaultActionEPvRKNSt7__cxx1112basic_stringIcSt11char_traitsIcESaIcEEE
FN:1540,_ZNK7testing8internal14FunctionMockerIFNSt7__cxx1112basic_stringIcSt11char_traitsIcESaIcEEEvEE27UntypedPerformDefaultActionEPvRKS7_
FN:1540,_ZNK7testing8internal14FunctionMockerIFvhhEE27UntypedPerformDefaultActionEPvRKNSt7__cxx1112basic_stringIcSt11char_traitsIcESaIcEEE
FN:1540,_ZNK7testing8internal14FunctionMockerIFvmEE27UntypedPerformDefaultActionEPvRKNSt7__cxx1112basic_stringIcSt11char_traitsIcESaIcEEE
FN:1552,_ZNK7testing8internal14FunctionMockerIFvhhhhEE20UntypedPerformActionEPKvPv
FN:1552,_ZNK7testing8internal14FunctionMockerIFmvEE20UntypedPerformActionEPKvPv
FN:1552,_ZNK7testing8internal14FunctionMockerIFvtsEE20UntypedPerformActionEPKvPv
FN:1552,_ZNK7testing8internal14FunctionMockerIFvmEE20UntypedPerformActionEPKvPv
FN:1552,_ZNK7testing8internal14FunctionMockerIFvP18BLEServerCallbacksP26BLECharacteristicCallbacksEE20UntypedPerformActionEPKvPv
FN:1552,_ZNK7testing8internal14FunctionMockerIFvhiEE20UntypedPerformActionEPKvPv
FN:1552,_ZNK7testing8internal14FunctionMockerIFvP18BLEServerCallbacksEE20UntypedPerformActionEPKvPv
FN:1552,_ZNK7testing8internal14FunctionMockerIFvPhmEE20UntypedPerformActionEPKvPv
FN:1552,_ZNK7testing8internal14FunctionMockerIFmPKhmEE20UntypedPerformActionEPKvPv
FN:1552,_ZNK7testing8internal14FunctionMockerIFlvEE20UntypedPerformActionEPKvPv
FN:1552,_ZNK7testing8internal14FunctionMockerIFivEE20UntypedPerformActionEPKvPv
FN:1552,_ZNK7testing8internal14FunctionMockerIFmhEE20UntypedPerformActionEPKvPv
FN:1552,_ZNK7testing8internal14FunctionMockerIFNSt7__cxx1112basic_stringIcSt11char_traitsIcESaIcEEEvEE20UntypedPerformActionEPKvPv
FN:1552,_ZNK7testing8internal14FunctionMockerIFstEE20UntypedPerformActionEPKvPv
FN:1552,_ZNK7testing8internal14FunctionMockerIFvvEE20UntypedPerformActionEPKvPv
FN:1552,_ZNK7testing8internal14FunctionMockerIFvhhEE20UntypedPerformActionEPKvPv
FN:1552,_ZNK7testing8internal14FunctionMockerIFvPKhmhEE20UntypedPerformActionEPKvPv
FN:1552,_ZNK7testing8internal14FunctionMockerIFvhEE20UntypedPerformActionEPKvPv
FN:1552,_ZNK7testing8internal14FunctionMockerIFvP26BLECharacteristicCallbacksEE20UntypedPerformActionEPKvPv
FN:1552,_ZNK7testing8internal14FunctionMockerIFihEE20UntypedPerformActionEPKvPv
FN:1552,_ZNK7testing8internal14FunctionMockerIFvhhhhhEE20UntypedPerformActionEPKvPv
FN:1552,_ZNK7testing8internal14FunctionMockerIF11MIDI_read_tvEE20UntypedPerformActionEPKvPv
FN:1552,_ZNK7testing8internal14FunctionMockerIFvthEE20UntypedPerformActionEPKvPv
FN:1552,_ZNK7testing8internal14FunctionMockerIFitEE20UntypedPerformActionEPKvPv
FN:1563,_ZN7testing8internal14FunctionMockerIFivEE25ClearDefaultActionsLockedEv
FN:1563,_ZN7testing8internal14FunctionMockerIFvPKhmhEE25ClearDefaultActionsLockedEv
FN:1563,_ZN7testing8internal14FunctionMockerIFihEE25ClearDefaultActionsLockedEv
FN:1563,_ZN7testing8internal14FunctionMockerIFvthEE25ClearDefaultActionsLockedEv
FN:1563,_ZN7testing8internal14FunctionMockerIFvPhmEE25ClearDefaultActionsLockedEv
FN:1563,_ZN7testing8internal14FunctionMockerIFvhhhhEE25ClearDefaultActionsLockedEv
FN:1563,_ZN7testing8internal14FunctionMockerIFmPKhmEE25ClearDefaultActionsLockedEv
FN:1563,_ZN7testing8internal14FunctionMockerIFmhEE25ClearDefaultActionsLockedEv
FN:1563,_ZN7testing8internal14FunctionMockerIFitEE25ClearDefaultActionsLockedEv
FN:1563,_ZN7testing8internal14FunctionMockerIFvmEE25ClearDefaultActionsLockedEv
FN:1563,_ZN7testing8internal14FunctionMockerIFvP26BLECharacteristicCallbacksEE25ClearDefaultActionsLockedEv
FN:1563,_ZN7testing8internal14FunctionMockerIFvhhhhhEE25ClearDefaultActionsLockedEv
FN:1563,_ZN7testing8internal14FunctionMockerIFNSt7__cxx1112basic_stringIcSt11char_traitsIcESaIcEEEvEE25ClearDefaultActionsLockedEv
FN:1563,_ZN7testing8internal14FunctionMockerIFvvEE25ClearDefaultActionsLockedEv
FN:1563,_ZN7testing8internal14FunctionMockerIFvtsEE25ClearDefaultActionsLockedEv
FN:1563,_ZN7testing8internal14FunctionMockerIFstEE25ClearDefaultActionsLockedEv
FN:1563,_ZN7testing8internal14FunctionMockerIFvhiEE25ClearDefaultActionsLockedEv
FN:1563,_ZN7testing8internal14FunctionMockerIFvhEE25ClearDefaultActionsLockedEv
FN:1563,_ZN7testing8internal14FunctionMockerIFvP18BLEServerCallbacksEE25ClearDefaultActionsLockedEv
FN:1563,_ZN7testing8internal14FunctionMockerIFlvEE25ClearDefaultActionsLockedEv
FN:1563,_ZN7testing8internal14FunctionMockerIF11MIDI_read_tvEE25ClearDefaultActionsLockedEv
FN:1563,_ZN7testing8internal14FunctionMockerIFvhhEE25ClearDefaultActionsLockedEv
FN:1563,_ZN7testing8internal14FunctionMockerIFmvEE25ClearDefaultActionsLockedEv
FN:1563,_ZN7testing8internal14FunctionMockerIFvP18BLEServerCallbacksP26BLECharacteristicCallbacksEE25ClearDefaultActionsLockedEv
FN:1592,_ZN7testing8internal14FunctionMockerIFvtsEE6InvokeEts
FN:1592,_ZN7testing8internal14FunctionMockerIFNSt7__cxx1112basic_stringIcSt11char_traitsIcESaIcEEEvEE6InvokeEv
FN:1592,_ZN7testing8internal14FunctionMockerIFvhEE6InvokeEh
FN:1592,_ZN7testing8internal14FunctionMockerIFitEE6InvokeEt
FN:1592,_ZN7testing8internal14FunctionMockerIFvhhEE6InvokeEhh
FN:1592,_ZN7testing8internal14FunctionMockerIFvPKhmhEE6InvokeES3_mh
FN:1592,_ZN7testing8internal14FunctionMockerIFvthEE6InvokeEth
FN:1592,_ZN7testing8internal14FunctionMockerIFmvEE6InvokeEv
FN:1592,_ZN7testing8internal14FunctionMockerIFvhhhhEE6InvokeEhhhh
FN:1592,_ZN7testing8internal14FunctionMockerIFmPKhmEE6InvokeES3_m
FN:1592,_ZN7testing8internal14FunctionMockerIFvhiEE6InvokeEhi
FN:1592,_ZN7testing8internal14FunctionMockerIFvP18BLEServerCallbacksP26BLECharacteristicCallbacksEE6InvokeES3_S5_
FN:1592,_ZN7testing8internal14FunctionMockerIF11MIDI_read_tvEE6InvokeEv
FN:1592,_ZN7testing8internal14FunctionMockerIFvvEE6InvokeEv
FN:1592,_ZN7testing8internal14FunctionMockerIFihEE6InvokeEh
FN:1592,_ZN7testing8internal14FunctionMockerIFivEE6InvokeEv
FN:1592,_ZN7testing8internal14FunctionMockerIFvhhhhhEE6InvokeEhhhhh
FN:1592,_ZN7testing8internal14FunctionMockerIFvmEE6InvokeEm
FN:1592,_ZN7testing8internal14FunctionMockerIFmhEE6InvokeEh
FN:1592,_ZN7testing8internal14FunctionMockerIFlvEE6InvokeEv
FN:1592,_ZN7testing8internal14FunctionMockerIFvPhmEE6InvokeES2_m
FN:1592,_ZN7testing8internal14FunctionMockerIFstEE6InvokeEt
FN:1599,_ZN7testing8internal14FunctionMockerIFvhEE4WithENS_7MatcherIhEE
FN:1599,_ZN7testing8internal14FunctionMockerIFitEE4WithENS_7MatcherItEE
FN:1599,_ZN7testing8internal14FunctionMockerIFvP18BLEServerCallbacksP26BLECharacteristicCallbacksEE4WithENS_7MatcherIS3_EENS8_IS5_EE
FN:1599,_ZN7testing8internal14FunctionMockerIFmPKhmEE4WithENS_7MatcherIS3_EENS6_ImEE
FN:1599,_ZN7testing8internal14FunctionMockerIFvvEE4WithEv
FN:1599,_ZN7testing8internal14FunctionMockerIFmhEE4WithENS_7MatcherIhEE
FN:1599,_ZN7testing8internal14FunctionMockerIFmvEE4WithEv
FN:1599,_ZN7testing8internal14FunctionMockerIFvhhhhhEE4WithENS_7MatcherIhEES5_S5_S5_S5_
FN:1599,_ZN7testing8internal14FunctionMockerIFlvEE4WithEv
FN:1599,_ZN7testing8internal14FunctionMockerIFihEE4WithENS_7MatcherIhEE
FN:1599,_ZN7testing8internal14FunctionMockerIFvhhEE4WithENS_7MatcherIhEES5_
FN:1621,_ZN7testing8internal14FunctionMockerIFvhhhhhEE17AddNewExpectationEPKciRKNSt7__cxx1112basic_stringIcSt11char_traitsIcESaIcEEERKSt5tupleIJNS_7MatcherIhEESG_SG_SG_SG_EE
FN:1621,_ZN7testing8internal14FunctionMockerIFmPKhmEE17AddNewExpectationEPKciRKNSt7__cxx1112basic_stringIcSt11char_traitsIcESaIcEEERKSt5tupleIJNS_7MatcherIS3_EENSH_ImEEEE
FN:1621,_ZN7testing8internal14FunctionMockerIFihEE17AddNewExpectationEPKciRKNSt7__cxx1112basic_stringIcSt11char_traitsIcESaIcEEERKSt5tupleIJNS_7MatcherIhEEEE
FN:1621,_ZN7testing8internal14FunctionMockerIFvvEE17AddNewExpectationEPKciRKNSt7__cxx1112basic_stringIcSt11char_traitsIcESaIcEEERKSt5tupleIJEE
FN:1621,_ZN7testing8internal14FunctionMockerIFmvEE17AddNewExpectationEPKciRKNSt7__cxx1112basic_stringIcSt11char_traitsIcESaIcEEERKSt5tupleIJEE
FN:1621,_ZN7testing8internal14FunctionMockerIFvhEE17AddNewExpectationEPKciRKNSt7__cxx1112basic_stringIcSt11char_traitsIcESaIcEEERKSt5tupleIJNS_7MatcherIhEEEE
FN:1621,_ZN7testing8internal14FunctionMockerIFmhEE17AddNewExpectationEPKciRKNSt7__cxx1112basic_stringIcSt11char_traitsIcESaIcEEERKSt5tupleIJNS_7MatcherIhEEEE
FN:1621,_ZN7testing8internal14FunctionMockerIFlvEE17AddNewExpectationEPKciRKNSt7__cxx1112basic_stringIcSt11char_traitsIcESaIcEEERKSt5tupleIJEE
FN:1621,_ZN7testing8internal14FunctionMockerIFvhhEE17AddNewExpectationEPKciRKNSt7__cxx1112basic_stringIcSt11char_traitsIcESaIcEEERKSt5tupleIJNS_7MatcherIhEESG_EE
FN:1621,_ZN7testing8internal14FunctionMockerIFvP18BLEServerCallbacksP26BLECharacteristicCallbacksEE17AddNewExpectationEPKciRKNSt7__cxx1112basic_stringIcSt11char_traitsIcESaIcEEERKSt5tupleIJNS_7MatcherIS3_EENSJ_IS5_EEEE
FN:1621,_ZN7testing8internal14FunctionMockerIFitEE17AddNewExpectationEPKciRKNSt7__cxx1112basic_stringIcSt11char_traitsIcESaIcEEERKSt5tupleIJNS_7MatcherItEEEE
FN:1650,_ZNK7testing8internal14FunctionMockerIFvtsEE23DescribeDefaultActionToERKSt5tupleIJtsEEPSo
FN:1650,_ZNK7testing8internal14FunctionMockerIFvthEE23DescribeDefaultActionToERKSt5tupleIJthEEPSo
FN:1650,_ZNK7testing8internal14FunctionMockerIFmhEE23DescribeDefaultActionToERKSt5tupleIJhEEPSo
FN:1650,_ZNK7testing8internal14FunctionMockerIF11MIDI_read_tvEE23DescribeDefaultActionToERKSt5tupleIJEEPSo
FN:1650,_ZNK7testing8internal14FunctionMockerIFvhhhhhEE23DescribeDefaultActionToERKSt5tupleIJhhhhhEEPSo
FN:1650,_ZNK7testing8internal14FunctionMockerIFstEE23DescribeDefaultActionToERKSt5tupleIJtEEPSo
FN:1650,_ZNK7testing8internal14FunctionMockerIFvP18BLEServerCallbacksEE23DescribeDefaultActionToERKSt5tupleIJS3_EEPSo
FN:1650,_ZNK7testing8internal14FunctionMockerIFvP26BLECharacteristicCallbacksEE23DescribeDefaultActionToERKSt5tupleIJS3_EEPSo
FN:1650,_ZNK7testing8internal14FunctionMockerIFvmEE23DescribeDefaultActionToERKSt5tupleIJmEEPSo
FN:1650,_ZNK7testing8internal14FunctionMockerIFihEE23DescribeDefaultActionToERKSt5tupleIJhEEPSo
FN:1650,_ZNK7testing8internal14FunctionMockerIFvhhEE23DescribeDefaultActionToERKSt5tupleIJhhEEPSo
FN:1650,_ZNK7testing8internal14FunctionMockerIFvP18BLEServerCallbacksP26BLECharacteristicCallbacksEE23DescribeDefaultActionToERKSt5tupleIJS3_S5_EEPSo
FN:1650,_ZNK7testing8internal14FunctionMockerIFlvEE23DescribeDefaultActionToERKSt5tupleIJEEPSo
FN:1650,_ZNK7testing8internal14FunctionMockerIFvhhhhEE23DescribeDefaultActionToERKSt5tupleIJhhhhEEPSo
FN:1650,_ZNK7testing8internal14FunctionMockerIFNSt7__cxx1112basic_stringIcSt11char_traitsIcESaIcEEEvEE23DescribeDefaultActionToERKSt5tupleIJEEPSo
FN:1650,_ZNK7testing8internal14FunctionMockerIFmPKhmEE23DescribeDefaultActionToERKSt5tupleIJS3_mEEPSo
FN:1650,_ZNK7testing8internal14FunctionMockerIFvPhmEE23DescribeDefaultActionToERKSt5tupleIJS2_mEEPSo
FN:1650,_ZNK7testing8internal14FunctionMockerIFivEE23DescribeDefaultActionToERKSt5tupleIJEEPSo
FN:1650,_ZNK7testing8internal14FunctionMockerIFvvEE23DescribeDefaultActionToERKSt5tupleIJEEPSo
FN:1650,_ZNK7testing8internal14FunctionMockerIFmvEE23DescribeDefaultActionToERKSt5tupleIJEEPSo
FN:1650,_ZNK7testing8internal14FunctionMockerIFitEE23DescribeDefaultActionToERKSt5tupleIJtEEPSo
FN:1650,_ZNK7testing8internal14FunctionMockerIFvPKhmhEE23DescribeDefaultActionToERKSt5tupleIJS3_mhEEPSo
FN:1650,_ZNK7testing8internal14FunctionMockerIFvhiEE23DescribeDefaultActionToERKSt5tupleIJhiEEPSo
FN:1650,_ZNK7testing8internal14FunctionMockerIFvhEE23DescribeDefaultActionToERKSt5tupleIJhEEPSo
FN:1667,_ZNK7testing8internal14FunctionMockerIFNSt7__cxx1112basic_stringIcSt11char_traitsIcESaIcEEEvEE32UntypedDescribeUninterestingCallEPKvPSo
FN:1667,_ZNK7testing8internal14FunctionMockerIFvPhmEE32UntypedDescribeUninterestingCallEPKvPSo
FN:1667,_ZNK7testing8internal14FunctionMockerIFmhEE32UntypedDescribeUninterestingCallEPKvPSo
FN:1667,_ZNK7testing8internal14FunctionMockerIFvhEE32UntypedDescribeUninterestingCallEPKvPSo
FN:1667,_ZNK7testing8internal14FunctionMockerIFivEE32UntypedDescribeUninterestingCallEPKvPSo
FN:1667,_ZNK7testing8internal14FunctionMockerIFvPKhmhEE32UntypedDescribeUninterestingCallEPKvPSo
FN:1667,_ZNK7testing8internal14FunctionMockerIF11MIDI_read_tvEE32UntypedDescribeUninterestingCallEPKvPSo
FN:1667,_ZNK7testing8internal14FunctionMockerIFitEE32UntypedDescribeUninterestingCallEPKvPSo
FN:1667,_ZNK7testing8internal14FunctionMockerIFmvEE32UntypedDescribeUninterestingCallEPKvPSo
FN:1667,_ZNK7testing8internal14FunctionMockerIFvP18BLEServerCallbacksP26BLECharacteristicCallbacksEE32UntypedDescribeUninterestingCallEPKvPSo
FN:1667,_ZNK7testing8internal14FunctionMockerIFvthEE32UntypedDescribeUninterestingCallEPKvPSo
FN:1667,_ZNK7testing8internal14FunctionMockerIFvP26BLECharacteristicCallbacksEE32UntypedDescribeUninterestingCallEPKvPSo
FN:1667,_ZNK7testing8internal14FunctionMockerIFvvEE32UntypedDescribeUninterestingCallEPKvPSo
FN:1667,_ZNK7testing8internal14FunctionMockerIFmPKhmEE32UntypedDescribeUninterestingCallEPKvPSo
FN:1667,_ZNK7testing8internal14FunctionMockerIFvhiEE32UntypedDescribeUninterestingCallEPKvPSo
FN:1667,_ZNK7testing8internal14FunctionMockerIFvP18BLEServerCallbacksEE32UntypedDescribeUninterestingCallEPKvPSo
FN:1667,_ZNK7testing8internal14FunctionMockerIFlvEE32UntypedDescribeUninterestingCallEPKvPSo
FN:1667,_ZNK7testing8internal14FunctionMockerIFvmEE32UntypedDescribeUninterestingCallEPKvPSo
FN:1667,_ZNK7testing8internal14FunctionMockerIFvhhhhEE32UntypedDescribeUninterestingCallEPKvPSo
FN:1667,_ZNK7testing8internal14FunctionMockerIFstEE32UntypedDescribeUninterestingCallEPKvPSo
FN:1667,_ZNK7testing8internal14FunctionMockerIFvhhhhhEE32UntypedDescribeUninterestingCallEPKvPSo
FN:1667,_ZNK7testing8internal14FunctionMockerIFihEE32UntypedDescribeUninterestingCallEPKvPSo
FN:1667,_ZNK7testing8internal14FunctionMockerIFvtsEE32UntypedDescribeUninterestingCallEPKvPSo
FN:1667,_ZNK7testing8internal14FunctionMockerIFvhhEE32UntypedDescribeUninterestingCallEPKvPSo
FN:1694,_ZN7testing8internal14FunctionMockerIF11MIDI_read_tvEE30UntypedFindMatchingExpectationEPKvPS6_PbPSoS9_
FN:1694,_ZN7testing8internal14FunctionMockerIFvhEE30UntypedFindMatchingExpectationEPKvPS5_PbPSoS8_
FN:1694,_ZN7testing8internal14FunctionMockerIFmvEE30UntypedFindMatchingExpectationEPKvPS5_PbPSoS8_
FN:1694,_ZN7testing8internal14FunctionMockerIFmhEE30UntypedFindMatchingExpectationEPKvPS5_PbPSoS8_
FN:1694,_ZN7testing8internal14FunctionMockerIFvP18BLEServerCallbacksEE30UntypedFindMatchingExpectationEPKvPS7_PbPSoSA_
FN:1694,_ZN7testing8internal14FunctionMockerIFNSt7__cxx1112basic_stringIcSt11char_traitsIcESaIcEEEvEE30UntypedFindMatchingExpectationEPKvPSB_PbPSoSE_
FN:1694,_ZN7testing8internal14FunctionMockerIFvhhhhEE30UntypedFindMatchingExpectationEPKvPS5_PbPSoS8_
FN:1694,_ZN7testing8internal14FunctionMockerIFitEE30UntypedFindMatchingExpectationEPKvPS5_PbPSoS8_
FN:1694,_ZN7testing8internal14FunctionMockerIFivEE30UntypedFindMatchingExpectationEPKvPS5_PbPSoS8_
FN:1694,_ZN7testing8internal14FunctionMockerIFvthEE30UntypedFindMatchingExpectationEPKvPS5_PbPSoS8_
FN:1694,_ZN7testing8internal14FunctionMockerIFihEE30UntypedFindMatchingExpectationEPKvPS5_PbPSoS8_
FN:1694,_ZN7testing8internal14FunctionMockerIFvmEE30UntypedFindMatchingExpectationEPKvPS5_PbPSoS8_
FN:1694,_ZN7testing8internal14FunctionMockerIFvtsEE30UntypedFindMatchingExpectationEPKvPS5_PbPSoS8_
FN:1694,_ZN7testing8internal14FunctionMockerIFvhhEE30UntypedFindMatchingExpectationEPKvPS5_PbPSoS8_
FN:1694,_ZN7testing8internal14FunctionMockerIFvhiEE30UntypedFindMatchingExpectationEPKvPS5_PbPSoS8_
FN:1694,_ZN7testing8internal14FunctionMockerIFvvEE30UntypedFindMatchingExpectationEPKvPS5_PbPSoS8_
FN:1694,_ZN7testing8internal14FunctionMockerIFmPKhmEE30UntypedFindMatchingExpectationEPKvPS7_PbPSoSA_
FN:1694,_ZN7testing8internal14FunctionMockerIFvPhmEE30UntypedFindMatchingExpectationEPKvPS6_PbPSoS9_
FN:1694,_ZN7testing8internal14FunctionMockerIFlvEE30UntypedFindMatchingExpectationEPKvPS5_PbPSoS8_
FN:1694,_ZN7testing8internal14FunctionMockerIFvhhhhhEE30UntypedFindMatchingExpectationEPKvPS5_PbPSoS8_
FN:1694,_ZN7testing8internal14FunctionMockerIFstEE30UntypedFindMatchingExpectationEPKvPS5_PbPSoS8_
FN:1694,_ZN7testing8internal14FunctionMockerIFvP18BLEServerCallbacksP26BLECharacteristicCallbacksEE30UntypedFindMatchingExpectationEPKvPS9_PbPSoSC_
FN:1694,_ZN7testing8internal14FunctionMockerIFvPKhmhEE30UntypedFindMatchingExpectationEPKvPS7_PbPSoSA_
FN:1694,_ZN7testing8internal14FunctionMockerIFvP26BLECharacteristicCallbacksEE30UntypedFindMatchingExpectationEPKvPS7_PbPSoSA_
FN:1719,_ZNK7testing8internal14FunctionMockerIFstEE16UntypedPrintArgsEPKvPSo
FN:1719,_ZNK7testing8internal14FunctionMockerIFvhiEE16UntypedPrintArgsEPKvPSo
FN:1719,_ZNK7testing8internal14FunctionMockerIFvmEE16UntypedPrintArgsEPKvPSo
FN:1719,_ZNK7testing8internal14FunctionMockerIF11MIDI_read_tvEE16UntypedPrintArgsEPKvPSo
FN:1719,_ZNK7testing8internal14FunctionMockerIFvhhhhEE16UntypedPrintArgsEPKvPSo
FN:1719,_ZNK7testing8internal14FunctionMockerIFvhhEE16UntypedPrintArgsEPKvPSo
FN:1719,_ZNK7testing8internal14FunctionMockerIFvP18BLEServerCallbacksP26BLECharacteristicCallbacksEE16UntypedPrintArgsEPKvPSo
FN:1719,_ZNK7testing8internal14FunctionMockerIFvPKhmhEE16UntypedPrintArgsEPKvPSo
FN:1719,_ZNK7testing8internal14FunctionMockerIFNSt7__cxx1112basic_stringIcSt11char_traitsIcESaIcEEEvEE16UntypedPrintArgsEPKvPSo
FN:1719,_ZNK7testing8internal14FunctionMockerIFvP18BLEServerCallbacksEE16UntypedPrintArgsEPKvPSo
FN:1719,_ZNK7testing8internal14FunctionMockerIFitEE16UntypedPrintArgsEPKvPSo
FN:1719,_ZNK7testing8internal14FunctionMockerIFvP26BLECharacteristicCallbacksEE16UntypedPrintArgsEPKvPSo
FN:1719,_ZNK7testing8internal14FunctionMockerIFvthEE16UntypedPrintArgsEPKvPSo
FN:1719,_ZNK7testing8internal14FunctionMockerIFmPKhmEE16UntypedPrintArgsEPKvPSo
FN:1719,_ZNK7testing8internal14FunctionMockerIFihEE16UntypedPrintArgsEPKvPSo
FN:1719,_ZNK7testing8internal14FunctionMockerIFvhhhhhEE16UntypedPrintArgsEPKvPSo
FN:1719,_ZNK7testing8internal14FunctionMockerIFmvEE16UntypedPrintArgsEPKvPSo
FN:1719,_ZNK7testing8internal14FunctionMockerIFvPhmEE16UntypedPrintArgsEPKvPSo
FN:1719,_ZNK7testing8internal14FunctionMockerIFmhEE16UntypedPrintArgsEPKvPSo
FN:1719,_ZNK7testing8internal14FunctionMockerIFivEE16UntypedPrintArgsEPKvPSo
FN:1719,_ZNK7testing8internal14FunctionMockerIFlvEE16UntypedPrintArgsEPKvPSo
FN:1719,_ZNK7testing8internal14FunctionMockerIFvhEE16UntypedPrintArgsEPKvPSo
FN:1719,_ZNK7testing8internal14FunctionMockerIFvvEE16UntypedPrintArgsEPKvPSo
FN:1719,_ZNK7testing8internal14FunctionMockerIFvtsEE16UntypedPrintArgsEPKvPSo
FN:1728,_ZNK7testing8internal14FunctionMockerIFvhiEE29FindMatchingExpectationLockedERKSt5tupleIJhiEE
FN:1728,_ZNK7testing8internal14FunctionMockerIFivEE29FindMatchingExpectationLockedERKSt5tupleIJEE
FN:1728,_ZNK7testing8internal14FunctionMockerIFvhhEE29FindMatchingExpectationLockedERKSt5tupleIJhhEE
FN:1728,_ZNK7testing8internal14FunctionMockerIF11MIDI_read_tvEE29FindMatchingExpectationLockedERKSt5tupleIJEE
FN:1728,_ZNK7testing8internal14FunctionMockerIFvP26BLECharacteristicCallbacksEE29FindMatchingExpectationLockedERKSt5tupleIJS3_EE
FN:1728,_ZNK7testing8internal14FunctionMockerIFmvEE29FindMatchingExpectationLockedERKSt5tupleIJEE
FN:1728,_ZNK7testing8internal14FunctionMockerIFvhhhhhEE29FindMatchingExpectationLockedERKSt5tupleIJhhhhhEE
FN:1728,_ZNK7testing8internal14FunctionMockerIFvmEE29FindMatchingExpectationLockedERKSt5tupleIJmEE
FN:1728,_ZNK7testing8internal14FunctionMockerIFstEE29FindMatchingExpectationLockedERKSt5tupleIJtEE
FN:1728,_ZNK7testing8internal14FunctionMockerIFvP18BLEServerCallbacksP26BLECharacteristicCallbacksEE29FindMatchingExpectationLockedERKSt5tupleIJS3_S5_EE
FN:1728,_ZNK7testing8internal14FunctionMockerIFvP18BLEServerCallbacksEE29FindMatchingExpectationLockedERKSt5tupleIJS3_EE
FN:1728,_ZNK7testing8internal14FunctionMockerIFihEE29FindMatchingExpectationLockedERKSt5tupleIJhEE
FN:1728,_ZNK7testing8internal14FunctionMockerIFitEE29FindMatchingExpectationLockedERKSt5tupleIJtEE
FN:1728,_ZNK7testing8internal14FunctionMockerIFlvEE29FindMatchingExpectationLockedERKSt5tupleIJEE
FN:1728,_ZNK7testing8internal14FunctionMockerIFvhEE29FindMatchingExpectationLockedERKSt5tupleIJhEE
FN:1728,_ZNK7testing8internal14FunctionMockerIFvtsEE29FindMatchingExpectationLockedERKSt5tupleIJtsEE
FN:1728,_ZNK7testing8internal14FunctionMockerIFvPKhmhEE29FindMatchingExpectationLockedERKSt5tupleIJS3_mhEE
FN:1728,_ZNK7testing8internal14FunctionMockerIFvvEE29FindMatchingExpectationLockedERKSt5tupleIJEE
FN:1728,_ZNK7testing8internal14FunctionMockerIFNSt7__cxx1112basic_stringIcSt11char_traitsIcESaIcEEEvEE29FindMatchingExpectationLockedERKSt5tupleIJEE
FN:1728,_ZNK7testing8internal14FunctionMockerIFvhhhhEE29FindMatchingExpectationLockedERKSt5tupleIJhhhhEE
FN:1728,_ZNK7testing8internal14FunctionMockerIFvthEE29FindMatchingExpectationLockedERKSt5tupleIJthEE
FN:1728,_ZNK7testing8internal14FunctionMockerIFmhEE29FindMatchingExpectationLockedERKSt5tupleIJhEE
FN:1728,_ZNK7testing8internal14FunctionMockerIFvPhmEE29FindMatchingExpectationLockedERKSt5tupleIJS2_mEE
FN:1728,_ZNK7testing8internal14FunctionMockerIFmPKhmEE29FindMatchingExpectationLockedERKSt5tupleIJS3_mEE
FN:1747,_ZNK7testing8internal14FunctionMockerIFvP26BLECharacteristicCallbacksEE33FormatUnexpectedCallMessageLockedERKSt5tupleIJS3_EEPSoSA_
FN:1747,_ZNK7testing8internal14FunctionMockerIFmPKhmEE33FormatUnexpectedCallMessageLockedERKSt5tupleIJS3_mEEPSoSA_
FN:1747,_ZNK7testing8internal14FunctionMockerIFNSt7__cxx1112basic_stringIcSt11char_traitsIcESaIcEEEvEE33FormatUnexpectedCallMessageLockedERKSt5tupleIJEEPSoSE_
FN:1747,_ZNK7testing8internal14FunctionMockerIFivEE33FormatUnexpectedCallMessageLockedERKSt5tupleIJEEPSoS8_
FN:1747,_ZNK7testing8internal14FunctionMockerIFstEE33FormatUnexpectedCallMessageLockedERKSt5tupleIJtEEPSoS8_
FN:1747,_ZNK7testing8internal14FunctionMockerIFihEE33FormatUnexpectedCallMessageLockedERKSt5tupleIJhEEPSoS8_
FN:1747,_ZNK7testing8internal14FunctionMockerIFvPKhmhEE33FormatUnexpectedCallMessageLockedERKSt5tupleIJS3_mhEEPSoSA_
FN:1747,_ZNK7testing8internal14FunctionMockerIFvhhEE33FormatUnexpectedCallMessageLockedERKSt5tupleIJhhEEPSoS8_
FN:1747,_ZNK7testing8internal14FunctionMockerIFitEE33FormatUnexpectedCallMessageLockedERKSt5tupleIJtEEPSoS8_
FN:1747,_ZNK7testing8internal14FunctionMockerIFvhiEE33FormatUnexpectedCallMessageLockedERKSt5tupleIJhiEEPSoS8_
FN:1747,_ZNK7testing8internal14FunctionMockerIFvhEE33FormatUnexpectedCallMessageLockedERKSt5tupleIJhEEPSoS8_
FN:1747,_ZNK7testing8internal14FunctionMockerIFmhEE33FormatUnexpectedCallMessageLockedERKSt5tupleIJhEEPSoS8_
FN:1747,_ZNK7testing8internal14FunctionMockerIFvPhmEE33FormatUnexpectedCallMessageLockedERKSt5tupleIJS2_mEEPSoS9_
FN:1747,_ZNK7testing8internal14FunctionMockerIFlvEE33FormatUnexpectedCallMessageLockedERKSt5tupleIJEEPSoS8_
FN:1747,_ZNK7testing8internal14FunctionMockerIFvP18BLEServerCallbacksP26BLECharacteristicCallbacksEE33FormatUnexpectedCallMessageLockedERKSt5tupleIJS3_S5_EEPSoSC_
FN:1747,_ZNK7testing8internal14FunctionMockerIFvhhhhEE33FormatUnexpectedCallMessageLockedERKSt5tupleIJhhhhEEPSoS8_
FN:1747,_ZNK7testing8internal14FunctionMockerIFvhhhhhEE33FormatUnexpectedCallMessageLockedERKSt5tupleIJhhhhhEEPSoS8_
FN:1747,_ZNK7testing8internal14FunctionMockerIFvP18BLEServerCallbacksEE33FormatUnexpectedCallMessageLockedERKSt5tupleIJS3_EEPSoSA_
FN:1747,_ZNK7testing8internal14FunctionMockerIFvtsEE33FormatUnexpectedCallMessageLockedERKSt5tupleIJtsEEPSoS8_
FN:1747,_ZNK7testing8internal14FunctionMockerIFvvEE33FormatUnexpectedCallMessageLockedERKSt5tupleIJEEPSoS8_
FN:1747,_ZNK7testing8internal14FunctionMockerIFvthEE33FormatUnexpectedCallMessageLockedERKSt5tupleIJthEEPSoS8_
FN:1747,_ZNK7testing8internal14FunctionMockerIFmvEE33FormatUnexpectedCallMessageLockedERKSt5tupleIJEEPSoS8_
FN:1747,_ZNK7testing8internal14FunctionMockerIF11MIDI_read_tvEE33FormatUnexpectedCallMessageLockedERKSt5tupleIJEEPSoS9_
FN:1747,_ZNK7testing8internal14FunctionMockerIFvmEE33FormatUnexpectedCallMessageLockedERKSt5tupleIJmEEPSoS8_
FN:1760,_ZNK7testing8internal14FunctionMockerIFmvEE28PrintTriedExpectationsLockedERKSt5tupleIJEEPSo
FN:1760,_ZNK7testing8internal14FunctionMockerIF11MIDI_read_tvEE28PrintTriedExpectationsLockedERKSt5tupleIJEEPSo
FN:1760,_ZNK7testing8internal14FunctionMockerIFlvEE28PrintTriedExpectationsLockedERKSt5tupleIJEEPSo
FN:1760,_ZNK7testing8internal14FunctionMockerIFvPKhmhEE28PrintTriedExpectationsLockedERKSt5tupleIJS3_mhEEPSo
FN:1760,_ZNK7testing8internal14FunctionMockerIFvP26BLECharacteristicCallbacksEE28PrintTriedExpectationsLockedERKSt5tupleIJS3_EEPSo
FN:1760,_ZNK7testing8internal14FunctionMockerIFvP18BLEServerCallbacksEE28PrintTriedExpectationsLockedERKSt5tupleIJS3_EEPSo
FN:1760,_ZNK7testing8internal14FunctionMockerIFvPhmEE28PrintTriedExpectationsLockedERKSt5tupleIJS2_mEEPSo
FN:1760,_ZNK7testing8internal14FunctionMockerIFitEE28PrintTriedExpectationsLockedERKSt5tupleIJtEEPSo
FN:1760,_ZNK7testing8internal14FunctionMockerIFvthEE28PrintTriedExpectationsLockedERKSt5tupleIJthEEPSo
FN:1760,_ZNK7testing8internal14FunctionMockerIFvmEE28PrintTriedExpectationsLockedERKSt5tupleIJmEEPSo
FN:1760,_ZNK7testing8internal14FunctionMockerIFstEE28PrintTriedExpectationsLockedERKSt5tupleIJtEEPSo
FN:1760,_ZNK7testing8internal14FunctionMockerIFvtsEE28PrintTriedExpectationsLockedERKSt5tupleIJtsEEPSo
FN:1760,_ZNK7testing8internal14FunctionMockerIFvhhhhEE28PrintTriedExpectationsLockedERKSt5tupleIJhhhhEEPSo
FN:1760,_ZNK7testing8internal14FunctionMockerIFvhEE28PrintTriedExpectationsLockedERKSt5tupleIJhEEPSo
FN:1760,_ZNK7testing8internal14FunctionMockerIFihEE28PrintTriedExpectationsLockedERKSt5tupleIJhEEPSo
FN:1760,_ZNK7testing8internal14FunctionMockerIFvvEE28PrintTriedExpectationsLockedERKSt5tupleIJEEPSo
FN:1760,_ZNK7testing8internal14FunctionMockerIFvhhEE28PrintTriedExpectationsLockedERKSt5tupleIJhhEEPSo
FN:1760,_ZNK7testing8internal14FunctionMockerIFNSt7__cxx1112basic_stringIcSt11char_traitsIcESaIcEEEvEE28PrintTriedExpectationsLockedERKSt5tupleIJEEPSo
FN:1760,_ZNK7testing8internal14FunctionMockerIFvhhhhhEE28PrintTriedExpectationsLockedERKSt5tupleIJhhhhhEEPSo
FN:1760,_ZNK7testing8internal14FunctionMockerIFmPKhmEE28PrintTriedExpectationsLockedERKSt5tupleIJS3_mEEPSo
FN:1760,_ZNK7testing8internal14FunctionMockerIFmhEE28PrintTriedExpectationsLockedERKSt5tupleIJhEEPSo
FN:1760,_ZNK7testing8internal14FunctionMockerIFvP18BLEServerCallbacksP26BLECharacteristicCallbacksEE28PrintTriedExpectationsLockedERKSt5tupleIJS3_S5_EEPSo
FN:1760,_ZNK7testing8internal14FunctionMockerIFvhiEE28PrintTriedExpectationsLockedERKSt5tupleIJhiEEPSo
FN:1760,_ZNK7testing8internal14FunctionMockerIFivEE28PrintTriedExpectationsLockedERKSt5tupleIJEEPSo
FNDA:64,_ZN7testing8internal16TypedExpectationIFvhhhhhEEC2EPNS0_14FunctionMockerIS2_EEPKciRKNSt7__cxx1112basic_stringIcSt11char_traitsIcESaIcEEERKSt5tupleIJNS_7MatcherIhEESJ_SJ_SJ_SJ_EE
FNDA:0,_ZNK7testing8internal14FunctionMockerIFvPhmEE20PerformDefaultActionEOSt5tupleIJS2_mEERKNSt7__cxx1112basic_stringIcSt11char_traitsIcESaIcEEE
FNDA:0,_ZNK7testing8internal10OnCallSpecIFvP18BLEServerCallbacksP26BLECharacteristicCallbacksEE7MatchesERKSt5tupleIJS3_S5_EE
FNDA:47,_ZN7testing8internal14FunctionMockerIFmvEE25ClearDefaultActionsLockedEv
FNDA:4,_ZN7testing8internal16TypedExpectationIFvhhhhhEE5TimesERKNS_11CardinalityE
FNDA:1,_ZNK7testing8internal16TypedExpectationIFmhEE7MatchesERKSt5tupleIJhEE
FNDA:10,_ZN7testing8internal14FunctionMockerIFvP18BLEServerCallbacksP26BLECharacteristicCallbacksEE17AddNewExpectationEPKciRKNSt7__cxx1112basic_stringIcSt11char_traitsIcESaIcEEERKSt5tupleIJNS_7MatcherIS3_EENSJ_IS5_EEEE
FNDA:0,_ZNK7testing8internal14FunctionMockerIFvtsEE32UntypedDescribeUninterestingCallEPKvPSo
FNDA:0,_ZNK7testing8internal14FunctionMockerIFmhEE16UntypedPrintArgsEPKvPSo
FNDA:0,_ZNK7testing8internal14FunctionMockerIFivEE16UntypedPrintArgsEPKvPSo
FNDA:0,_ZNK7testing8internal14FunctionMockerIFvhhEE32UntypedDescribeUninterestingCallEPKvPSo
FNDA:10,_ZNK7testing8internal16TypedExpectationIFvP18BLEServerCallbacksP26BLECharacteristicCallbacksEE7MatchesERKSt5tupleIJS3_S5_EE
FNDA:0,_ZN7testing8internal14FunctionMockerIFvhhEE17AddNewExpectationEPKciRKNSt7__cxx1112basic_stringIcSt11char_traitsIcESaIcEEERKSt5tupleIJNS_7MatcherIhEESG_EE
FNDA:0,_ZNK7testing8internal14FunctionMockerIFvmEE27UntypedPerformDefaultActionEPvRKNSt7__cxx1112basic_stringIcSt11char_traitsIcESaIcEEE
FNDA:13,_ZN7testing8internal16TypedExpectationIFvhhEE10InSequenceERKNS_8SequenceE
FNDA:212,_ZNK7testing8internal14FunctionMockerIFihEE20UntypedPerformActionEPKvPv
FNDA:0,_ZNK7testing8internal14FunctionMockerIFvhhhhhEE20UntypedPerformActionEPKvPv
FNDA:7,_ZN7testing8internal14FunctionMockerIFlvEE17AddNewExpectationEPKciRKNSt7__cxx1112basic_stringIcSt11char_traitsIcESaIcEEERKSt5tupleIJEE
FNDA:0,_ZN7testing8internal14FunctionMockerIFNSt7__cxx1112basic_stringIcSt11char_traitsIcESaIcEEEvEED0Ev
FNDA:10,_ZN7testing8internal14FunctionMockerIFvP18BLEServerCallbacksP26BLECharacteristicCallbacksEE30UntypedFindMatchingExpectationEPKvPS9_PbPSoSC_
FNDA:0,_ZNK7testing8internal14FunctionMockerIFvPhmEE14FindOnCallSpecERKSt5tupleIJS2_mEE
FNDA:1,_ZN7testing8internal14FunctionMockerIFmhEED2Ev
FNDA:0,_ZNK7testing8internal14FunctionMockerIFmhEE28PrintTriedExpectationsLockedERKSt5tupleIJhEEPSo
FNDA:0,_ZN7testing8internal16TypedExpectationIFlvEE9GetHandleEv
FNDA:0,_ZNK7testing8internal14FunctionMockerIFlvEE14FindOnCallSpecERKSt5tupleIJEE
FNDA:66,_ZN7testing8internal16TypedExpectationIFvhhhhhEE21GetActionForArgumentsEPKNS0_14FunctionMockerIS2_EERKSt5tupleIJhhhhhEEPSoSC_
FNDA:0,_ZN7testing8internal16TypedExpectationIFvvEE27MaybeDescribeExtraMatcherToEPSo
FNDA:0,_ZN7testing8internal14FunctionMockerIFvP26BLECharacteristicCallbacksEE30UntypedFindMatchingExpectationEPKvPS7_PbPSoSA_
FNDA:0,_ZNK7testing8internal14FunctionMockerIFvthEE20UntypedPerformActionEPKvPv
FNDA:0,_ZNK7testing8internal14FunctionMockerIFvPhmEE29FindMatchingExpectationLockedERKSt5tupleIJS2_mEE
FNDA:1,_ZN7testing8internal18ActionResultHolderImE20PerformDefaultActionIFmhEEEPS2_PKNS0_14FunctionMockerIT_EEONS0_8FunctionIS7_E13ArgumentTupleERKNSt7__cxx1112basic_stringIcSt11char_traitsIcESaIcEEE
FNDA:194,_ZN7testing8internal18ActionResultHolderImEC2ENS0_23ReferenceOrValueWrapperImEE
FNDA:8,_ZN7testing8internal14FunctionMockerIFitEED2Ev
FNDA:0,_ZNK7testing8internal14FunctionMockerIFvtsEE16UntypedPrintArgsEPKvPSo
FNDA:0,_ZN7testing8internal18ActionResultHolderIvE20PerformDefaultActionIFvP26BLECharacteristicCallbacksEEEPS2_PKNS0_14FunctionMockerIT_EEONS0_8FunctionIS9_E13ArgumentTupleERKNSt7__cxx1112basic_stringIcSt11char_traitsIcESaIcEEE
FNDA:0,_ZN7testing8internal18ActionResultHolderIvE20PerformDefaultActionIFvP18BLEServerCallbacksEEEPS2_PKNS0_14FunctionMockerIT_EEONS0_8FunctionIS9_E13ArgumentTupleERKNSt7__cxx1112basic_stringIcSt11char_traitsIcESaIcEEE
FNDA:26,_ZNK7testing8internal16TypedExpectationIFvhEE21ShouldHandleArgumentsERKSt5tupleIJhEE
FNDA:10,_ZNK7testing8internal16TypedExpectationIFvP18BLEServerCallbacksP26BLECharacteristicCallbacksEE21ShouldHandleArgumentsERKSt5tupleIJS3_S5_EE
FNDA:0,_ZNK7testing8internal10OnCallSpecIFvP26BLECharacteristicCallbacksEE9GetActionEv
FNDA:0,_ZNK7testing8internal14FunctionMockerIFvhEE23DescribeDefaultActionToERKSt5tupleIJhEEPSo
FNDA:0,_ZN7testing8internal23ReferenceOrValueWrapperINSt7__cxx1112basic_stringIcSt11char_traitsIcESaIcEEEE6UnwrapEv
FNDA:0,_ZNK7testing8internal10OnCallSpecIF11MIDI_read_tvEE7MatchesERKSt5tupleIJEE
FNDA:1,_ZN7testing8internal14FunctionMockerIFvmEED2Ev
FNDA:0,_ZN7testing8internal14FunctionMockerIFstEE6InvokeEt
FNDA:0,_ZN7testing8internal16TypedExpectationIFvPKhmhEE21GetActionForArgumentsEPKNS0_14FunctionMockerIS4_EERKSt5tupleIJS3_mhEEPSoSE_
FNDA:0,_ZNK7testing8internal14FunctionMockerIFvvEE16UntypedPrintArgsEPKvPSo
FNDA:0,_ZNK7testing8internal14FunctionMockerIF11MIDI_read_tvEE20UntypedPerformActionEPKvPv
FNDA:1,_ZNK7testing8internal14FunctionMockerIFmhEE29FindMatchingExpectationLockedERKSt5tupleIJhEE
FNDA:0,_ZN7testing8internal14FunctionMockerIFvPKhmhEE30UntypedFindMatchingExpectationEPKvPS7_PbPSoSA_
FNDA:0,_ZNK7testing8internal14FunctionMockerIFlvEE16UntypedPrintArgsEPKvPSo
FNDA:2,_ZN7testing8internal14FunctionMockerIFvhhEEC2Ev
FNDA:19,_ZN7testing8internal16TypedExpectationIFihEE5TimesERKNS_11CardinalityE
FNDA:0,_ZNK7testing8internal14FunctionMockerIFvhiEE23DescribeDefaultActionToERKSt5tupleIJhiEEPSo
FNDA:0,_ZNK7testing8internal14FunctionMockerIFvhEE16UntypedPrintArgsEPKvPSo
FNDA:10,_ZN7testing8internal16TypedExpectationIFvP18BLEServerCallbacksP26BLECharacteristicCallbacksEED2Ev
FNDA:0,_ZNK7testing8internal10OnCallSpecIFivEE7MatchesERKSt5tupleIJEE
FNDA:10,_ZNK7testing8internal14FunctionMockerIFvP18BLEServerCallbacksP26BLECharacteristicCallbacksEE20PerformDefaultActionEOSt5tupleIJS3_S5_EERKNSt7__cxx1112basic_stringIcSt11char_traitsIcESaIcEEE
FNDA:0,_ZNK7testing8internal14FunctionMockerIF11MIDI_read_tvEE33FormatUnexpectedCallMessageLockedERKSt5tupleIJEEPSoS9_
FNDA:64,_ZN7testing8internal16TypedExpectationIFvhhhhhEED2Ev
FNDA:5,_ZN7testing8internal16TypedExpectationIFvvEE21GetActionForArgumentsEPKNS0_14FunctionMockerIS2_EERKSt5tupleIJEEPSoSC_
FNDA:7,_ZN7testing8internal16TypedExpectationIFlvEEC2EPNS0_14FunctionMockerIS2_EEPKciRKNSt7__cxx1112basic_stringIcSt11char_traitsIcESaIcEEERKSt5tupleIJEE
FNDA:145,_ZN7testing8internal8MockSpecIFmvEEclERKNS0_15WithoutMatchersEPv
FNDA:0,_ZNK7testing8internal14FunctionMockerIFlvEE20PerformDefaultActionEOSt5tupleIJEERKNSt7__cxx1112basic_stringIcSt11char_traitsIcESaIcEEE
FNDA:0,_ZNK7testing8internal10OnCallSpecIFvmEE7MatchesERKSt5tupleIJmEE
FNDA:0,_ZNK7testing8internal16TypedExpectationIFvPhmEE7MatchesERKSt5tupleIJS2_mEE
FNDA:0,_ZNK7testing8internal23ReferenceOrValueWrapperIlE4PeekEv
FNDA:4,_ZNK7testing8internal14FunctionMockerIFmPKhmEE29FindMatchingExpectationLockedERKSt5tupleIJS3_mEE
FNDA:212,_ZN7testing8internal18ActionResultHolderIiE13PerformActionIFihEEEPS2_RKNS_6ActionIT_EEONS0_8FunctionIS7_E13ArgumentTupleE
FNDA:0,_ZN7testing8internal14FunctionMockerIFvthEED0Ev
FNDA:0,_ZNK7testing8internal14FunctionMockerIFvP18BLEServerCallbacksP26BLECharacteristicCallbacksEE28PrintTriedExpectationsLockedERKSt5tupleIJS3_S5_EEPSo
FNDA:0,_ZNK7testing8internal16TypedExpectationIFstEE16GetCurrentActionEPKNS0_14FunctionMockerIS2_EERKSt5tupleIJtEE
FNDA:0,_ZN7testing8internal23ReferenceOrValueWrapperI11MIDI_read_tE6UnwrapEv
FNDA:175,_ZN7testing8internal14FunctionMockerIFvhhEE4WithENS_7MatcherIhEES5_
FNDA:0,_ZNK7testing8internal16TypedExpectationIFmPKhmEE20ExplainMatchResultToERKSt5tupleIJS3_mEEPSo
FNDA:10,_ZN7testing8internal23ReferenceOrValueWrapperIlE6UnwrapEv
FNDA:5,_ZNK7testing8internal16TypedExpectationIFmPKhmEE7MatchesERKSt5tupleIJS3_mEE
FNDA:4,_ZN7testing8internal16TypedExpectationIFitEE9GetHandleEv
FNDA:78,_ZNK7testing8internal16TypedExpectationIFvhhhhhEE21ShouldHandleArgumentsERKSt5tupleIJhhhhhEE
FNDA:198,_ZN7testing8internal14FunctionMockerIFihEE4WithENS_7MatcherIhEE
FNDA:10,_ZN7testing8internal14FunctionMockerIFvP18BLEServerCallbacksP26BLECharacteristicCallbacksEE25ClearDefaultActionsLockedEv
FNDA:295,_ZNK7testing8internal16TypedExpectationIFihEE21ShouldHandleArgumentsERKSt5tupleIJhEE
FNDA:175,_ZNK7testing8internal14FunctionMockerIFvhhEE14FindOnCallSpecERKSt5tupleIJhhEE
FNDA:10,_ZN7testing8internal14FunctionMockerIFvPhmEEC2Ev
FNDA:0,_ZNK7testing8internal16TypedExpectationIFNSt7__cxx1112basic_stringIcSt11char_traitsIcESaIcEEEvEE21ShouldHandleArgumentsERKSt5tupleIJEE
FNDA:4,_ZN7testing8internal16TypedExpectationIFmPKhmEE21GetActionForArgumentsEPKNS0_14FunctionMockerIS4_EERKSt5tupleIJS3_mEEPSoSE_
FNDA:0,_ZNK7testing8internal14FunctionMockerIFitEE20UntypedPerformActionEPKvPv
FNDA:5,_ZNK7testing8internal16TypedExpectationIFvvEE15repeated_actionEv
FNDA:4,_ZN7testing8internal16TypedExpectationIFitEEC2EPNS0_14FunctionMockerIS2_EEPKciRKNSt7__cxx1112basic_stringIcSt11char_traitsIcESaIcEEERKSt5tupleIJNS_7MatcherItEEEE
FNDA:4,_ZN7testing8internal14FunctionMockerIFitEE17AddNewExpectationEPKciRKNSt7__cxx1112basic_stringIcSt11char_traitsIcESaIcEEERKSt5tupleIJNS_7MatcherItEEEE
FNDA:0,_ZN7testing8internal16TypedExpectationIFvP18BLEServerCallbacksP26BLECharacteristicCallbacksEE27MaybeDescribeExtraMatcherToEPSo
FNDA:0,_ZN7testing8internal18ActionResultHolderIvE13PerformActionIFvtsEEEPS2_RKNS_6ActionIT_EEONS0_8FunctionIS7_E13ArgumentTupleE
FNDA:1,_ZN7testing8internal14FunctionMockerIFmPKhmEED2Ev
FNDA:0,_ZNK7testing8internal10OnCallSpecIFvthEE9GetActionEv
FNDA:0,_ZNK7testing8internal14FunctionMockerIFvhiEE28PrintTriedExpectationsLockedERKSt5tupleIJhiEEPSo
FNDA:0,_ZN7testing8internal18ActionResultHolderIvE20PerformDefaultActionIFvhhhhEEEPS2_PKNS0_14FunctionMockerIT_EEONS0_8FunctionIS7_E13ArgumentTupleERKNSt7__cxx1112basic_stringIcSt11char_traitsIcESaIcEEE
FNDA:0,_ZNK7testing8internal14FunctionMockerIFivEE28PrintTriedExpectationsLockedERKSt5tupleIJEEPSo
FNDA:0,_ZN7testing8internal18ActionResultHolderIvE20PerformDefaultActionIFvhiEEEPS2_PKNS0_14FunctionMockerIT_EEONS0_8FunctionIS7_E13ArgumentTupleERKNSt7__cxx1112basic_stringIcSt11char_traitsIcESaIcEEE
FNDA:0,_ZNK7testing8internal14FunctionMockerIFvmEE33FormatUnexpectedCallMessageLockedERKSt5tupleIJmEEPSoS8_
FNDA:23,_ZN7testing8internal14FunctionMockerIF11MIDI_read_tvEED2Ev
FNDA:0,_ZN7testing8internal16TypedExpectationIFvhhhhEE21GetActionForArgumentsEPKNS0_14FunctionMockerIS2_EERKSt5tupleIJhhhhEEPSoSC_
FNDA:43,_ZN7testing8internal16TypedExpectationIFmvEE5TimesERKNS_11CardinalityE
FNDA:64,_ZN7testing8internal8MockSpecIFvhhhhhEEC2EPNS0_14FunctionMockerIS2_EERKSt5tupleIJNS_7MatcherIhEES9_S9_S9_S9_EE
FNDA:1,_ZN7testing8internal14FunctionMockerIFvhiEE25ClearDefaultActionsLockedEv
FNDA:10,_ZN7testing8internal14FunctionMockerIFlvEE6InvokeEv
FNDA:0,_ZNK7testing8internal18ActionResultHolderImE19PrintAsActionResultEPSo
FNDA:0,_ZN7testing8internal16TypedExpectationIFmhEE9GetHandleEv
FNDA:4,_ZNK7testing8internal16TypedExpectationIFmPKhmEE16GetCurrentActionEPKNS0_14FunctionMockerIS4_EERKSt5tupleIJS3_mEE
FNDA:0,_ZNK7testing8internal14FunctionMockerIFmPKhmEE23DescribeDefaultActionToERKSt5tupleIJS3_mEEPSo
FNDA:0,_ZN7testing8internal18ActionResultHolderIvE13PerformActionIFvvEEEPS2_RKNS_6ActionIT_EEONS0_8FunctionIS7_E13ArgumentTupleE
FNDA:4,_ZN7testing8internal8MockSpecIFitEEC2EPNS0_14FunctionMockerIS2_EERKSt5tupleIJNS_7MatcherItEEEE
FNDA:0,_ZNK7testing8internal23ReferenceOrValueWrapperImE4PeekEv
FNDA:66,_ZN7testing8internal14FunctionMockerIFvhhhhhEE30UntypedFindMatchingExpectationEPKvPS5_PbPSoS8_
FNDA:0,_ZNK7testing8internal16TypedExpectationIFvPhmEE20ExplainMatchResultToERKSt5tupleIJS2_mEEPSo
FNDA:0,_ZN7testing8internal14FunctionMockerIFvhiEED0Ev
FNDA:0,_ZN7testing8internal14FunctionMockerIFvmEED0Ev
FNDA:4,_ZNK7testing8internal14FunctionMockerIFmPKhmEE14FindOnCallSpecERKSt5tupleIJS3_mEE
FNDA:0,_ZNK7testing8internal16TypedExpectationIFvthEE7MatchesERKSt5tupleIJthEE
FNDA:0,_ZN7testing8internal14FunctionMockerIFivEED0Ev
FNDA:0,_ZNK7testing8internal14FunctionMockerIFvPKhmhEE20UntypedPerformActionEPKvPv
FNDA:0,_ZN7testing8internal18ActionResultHolderI11MIDI_read_tE13PerformActionIFS2_vEEEPS3_RKNS_6ActionIT_EEONS0_8FunctionIS8_E13ArgumentTupleE
FNDA:198,_ZN7testing8internal16TypedExpectationIFihEEC2EPNS0_14FunctionMockerIS2_EEPKciRKNSt7__cxx1112basic_stringIcSt11char_traitsIcESaIcEEERKSt5tupleIJNS_7MatcherIhEEEE
FNDA:0,_ZNK7testing8internal14FunctionMockerIFvhhhhhEE33FormatUnexpectedCallMessageLockedERKSt5tupleIJhhhhhEEPSoS8_
FNDA:233,_ZN7testing8internal18ActionResultHolderIiE6UnwrapEv
FNDA:0,_ZN7testing8internal14FunctionMockerIFstEED0Ev
FNDA:0,_ZNK7testing8internal16TypedExpectationIFvthEE20ExplainMatchResultToERKSt5tupleIJthEEPSo
FNDA:0,_ZNK7testing8internal16TypedExpectationIFvvEE20ExplainMatchResultToERKSt5tupleIJEEPSo
FNDA:198,_ZN7testing8internal16TypedExpectationIFihEED2Ev
FNDA:0,_ZNK7testing8internal14FunctionMockerIFstEE32UntypedDescribeUninterestingCallEPKvPSo
FNDA:0,_ZNK7testing8internal16TypedExpectationIFvmEE15repeated_actionEv
FNDA:0,_ZNK7testing8internal14FunctionMockerIFvhhhhEE32UntypedDescribeUninterestingCallEPKvPSo
FNDA:0,_ZNK7testing8internal14FunctionMockerIFvtsEE33FormatUnexpectedCallMessageLockedERKSt5tupleIJtsEEPSoS8_
FNDA:10,_ZN7testing8internal14FunctionMockerIFvP18BLEServerCallbacksEE25ClearDefaultActionsLockedEv
FNDA:3,_ZN7testing8internal14FunctionMockerIFivEED2Ev
FNDA:0,_ZNK7testing8internal10OnCallSpecIFvthEE7MatchesERKSt5tupleIJthEE
FNDA:1,_ZNK7testing8internal14FunctionMockerIFmhEE27UntypedPerformDefaultActionEPvRKNSt7__cxx1112basic_stringIcSt11char_traitsIcESaIcEEE
FNDA:0,_ZNK7testing8internal10OnCallSpecIFvvEE9GetActionEv
FNDA:10,_ZN7testing8internal14FunctionMockerIFvPhmEED2Ev
FNDA:8,_ZN7testing8internal14FunctionMockerIFvhEE25ClearDefaultActionsLockedEv
FNDA:0,_ZNK7testing8internal14FunctionMockerIFvPhmEE23DescribeDefaultActionToERKSt5tupleIJS2_mEEPSo
FNDA:6,_ZN7testing8internal14FunctionMockerIFlvEED2Ev
FNDA:175,_ZN7testing8internal8MockSpecIFvhhEEC2EPNS0_14FunctionMockerIS2_EERKSt5tupleIJNS_7MatcherIhEES9_EE
FNDA:4,_ZN7testing8internal16TypedExpectationIFmPKhmEED0Ev
FNDA:0,_ZNK7testing8internal14FunctionMockerIFivEE23DescribeDefaultActionToERKSt5tupleIJEEPSo
FNDA:0,_ZNK7testing8internal14FunctionMockerIFvPhmEE16UntypedPrintArgsEPKvPSo
FNDA:175,_ZN7testing8internal16TypedExpectationIFvhhEED0Ev
FNDA:0,_ZNK7testing8internal10OnCallSpecIFmvEE9GetActionEv
FNDA:0,_ZNK7testing8internal10OnCallSpecIFvhhhhhEE7MatchesERKSt5tupleIJhhhhhEE
FNDA:0,_ZNK7testing8internal14FunctionMockerIFvhhEE28PrintTriedExpectationsLockedERKSt5tupleIJhhEEPSo
FNDA:0,_ZNK7testing8internal14FunctionMockerIFvhhhhhEE32UntypedDescribeUninterestingCallEPKvPSo
FNDA:23,_ZN7testing8internal14FunctionMockerIFvhhhhhEED2Ev
FNDA:0,_ZN7testing8internal14FunctionMockerIFvPKhmhEED0Ev
FNDA:0,_ZN7testing8internal18ActionResultHolderIvE13PerformActionIFvPhmEEEPS2_RKNS_6ActionIT_EEONS0_8FunctionIS8_E13ArgumentTupleE
FNDA:4,_ZNK7testing8internal16TypedExpectationIFitEE7MatchesERKSt5tupleIJtEE
FNDA:10,_ZN7testing8internal8MockSpecIFvP18BLEServerCallbacksP26BLECharacteristicCallbacksEE18InternalExpectedAtEPKciS9_S9_
FNDA:0,_ZNK7testing8internal14FunctionMockerIFvP18BLEServerCallbacksEE33FormatUnexpectedCallMessageLockedERKSt5tupleIJS3_EEPSoSA_
FNDA:0,_ZN7testing8internal16TypedExpectationIFihEE27MaybeDescribeExtraMatcherToEPSo
FNDA:0,_ZNK7testing8internal18ActionResultHolderIsE19PrintAsActionResultEPSo
FNDA:7,_ZN7testing8internal16TypedExpectationIFlvEED2Ev
FNDA:0,_ZNK7testing8internal14FunctionMockerIFitEE23DescribeDefaultActionToERKSt5tupleIJtEEPSo
FNDA:0,_ZN7testing8internal14FunctionMockerIFvhhhhhEED0Ev
FNDA:5,_ZNK7testing8internal16TypedExpectationIFmPKhmEE21ShouldHandleArgumentsERKSt5tupleIJS3_mEE
FNDA:10,_ZN7testing8internal14FunctionMockerIFvP18BLEServerCallbacksEEC2Ev
FNDA:0,_ZNK7testing8internal14FunctionMockerIFvmEE20PerformDefaultActionEOSt5tupleIJmEERKNSt7__cxx1112basic_stringIcSt11char_traitsIcESaIcEEE
FNDA:0,_ZNK7testing8internal14FunctionMockerIFvPKhmhEE23DescribeDefaultActionToERKSt5tupleIJS3_mhEEPSo
FNDA:0,_ZN7testing8internal14FunctionMockerIFstEE30UntypedFindMatchingExpectationEPKvPS5_PbPSoS8_
FNDA:0,_ZNK7testing8internal14FunctionMockerIFvP26BLECharacteristicCallbacksEE20UntypedPerformActionEPKvPv
FNDA:6,_ZN7testing8internal16TypedExpectationIFihEE9GetHandleEv
FNDA:0,_ZNK7testing8internal15ExpectationBase4lineEv
FNDA:0,_ZN7testing8internal18ActionResultHolderImE13PerformActionIFmhEEEPS2_RKNS_6ActionIT_EEONS0_8FunctionIS7_E13ArgumentTupleE
FNDA:0,_ZNK7testing8internal14FunctionMockerIFNSt7__cxx1112basic_stringIcSt11char_traitsIcESaIcEEEvEE28PrintTriedExpectationsLockedERKSt5tupleIJEEPSo
FNDA:117,_ZN7testing8internal14FunctionMockerIFvhhEE25ClearDefaultActionsLockedEv
FNDA:0,_ZNK7testing8internal14FunctionMockerIFNSt7__cxx1112basic_stringIcSt11char_traitsIcESaIcEEEvEE27UntypedPerformDefaultActionEPvRKS7_
FNDA:0,_ZNK7testing8internal16TypedExpectationIF11MIDI_read_tvEE16GetCurrentActionEPKNS0_14FunctionMockerIS3_EERKSt5tupleIJEE
FNDA:10,_ZN7testing8internal23ReferenceOrValueWrapperIlEC2El
FNDA:23,_ZN7testing8internal14FunctionMockerIF11MIDI_read_tvEE25ClearDefaultActionsLockedEv
FNDA:0,_ZNK7testing8internal14FunctionMockerIFmvEE23DescribeDefaultActionToERKSt5tupleIJEEPSo
FNDA:6,_ZN7testing8internal14FunctionMockerIFlvEE25ClearDefaultActionsLockedEv
FNDA:0,_ZN7testing8internal18ActionResultHolderIvE13PerformActionIFvhEEEPS2_RKNS_6ActionIT_EEONS0_8FunctionIS7_E13ArgumentTupleE
FNDA:0,_ZNK7testing8internal14FunctionMockerIFvvEE23DescribeDefaultActionToERKSt5tupleIJEEPSo
FNDA:1813,_ZNK7testing8internal15ExpectationBase10is_retiredEv
FNDA:10,_ZN7testing8internal14FunctionMockerIFNSt7__cxx1112basic_stringIcSt11char_traitsIcESaIcEEEvEEC2Ev
FNDA:0,_ZNK7testing8internal14FunctionMockerIFvhEE20UntypedPerformActionEPKvPv
FNDA:0,_ZNK7testing8internal16TypedExpectationIFlvEE15repeated_actionEv
FNDA:0,_ZN7testing8internal14FunctionMockerIFvPhmEE6InvokeES2_m
FNDA:8,_ZN7testing8internal14FunctionMockerIFstEED2Ev
FNDA:0,_ZNK7testing8internal10OnCallSpecIFvvEE7MatchesERKSt5tupleIJEE
FNDA:4,_ZN7testing8internal16TypedExpectationIFmPKhmEE4WithERKNS_7MatcherIRKSt5tupleIJS3_mEEEE
FNDA:0,_ZNK7testing8internal14FunctionMockerIFvvEE33FormatUnexpectedCallMessageLockedERKSt5tupleIJEEPSoS8_
FNDA:104,_ZN7testing8internal16TypedExpectationIFmvEE8WillOnceERKNS_6ActionIS2_EE
FNDA:0,_ZNK7testing8internal14FunctionMockerIFmPKhmEE28PrintTriedExpectationsLockedERKSt5tupleIJS3_mEEPSo
FNDA:0,_ZNK7testing8internal14FunctionMockerIFmvEE33FormatUnexpectedCallMessageLockedERKSt5tupleIJEEPSoS8_
FNDA:0,_ZNK7testing8internal16TypedExpectationIFihEE20ExplainMatchResultToERKSt5tupleIJhEEPSo
FNDA:175,_ZNK7testing8internal14FunctionMockerIFvhhEE27UntypedPerformDefaultActionEPvRKNSt7__cxx1112basic_stringIcSt11char_traitsIcESaIcEEE
FNDA:0,_ZNK7testing8internal14FunctionMockerIFstEE20PerformDefaultActionEOSt5tupleIJtEERKNSt7__cxx1112basic_stringIcSt11char_traitsIcESaIcEEE
FNDA:0,_ZNK7testing8internal16TypedExpectationIFvtsEE15repeated_actionEv
FNDA:23,_ZN7testing8internal14FunctionMockerIFvhhhhhEEC2Ev
FNDA:10,_ZN7testing8internal18ActionResultHolderIlE13PerformActionIFlvEEEPS2_RKNS_6ActionIT_EEONS0_8FunctionIS7_E13ArgumentTupleE
FNDA:0,_ZNK7testing8internal10OnCallSpecIFlvEE7MatchesERKSt5tupleIJEE
FNDA:0,_ZN7testing8internal18ActionResultHolderImE13PerformActionIFmPKhmEEEPS2_RKNS_6ActionIT_EEONS0_8FunctionIS9_E13ArgumentTupleE
FNDA:0,_ZNK7testing8internal14FunctionMockerIFvhhhhhEE28PrintTriedExpectationsLockedERKSt5tupleIJhhhhhEEPSo
FNDA:0,_ZN7testing8internal18ActionResultHolderIlE20PerformDefaultActionIFlvEEEPS2_PKNS0_14FunctionMockerIT_EEONS0_8FunctionIS7_E13ArgumentTupleERKNSt7__cxx1112basic_stringIcSt11char_traitsIcESaIcEEE
FNDA:0,_ZNK7testing8internal14FunctionMockerIFihEE32UntypedDescribeUninterestingCallEPKvPSo
FNDA:198,_ZN7testing8internal8MockSpecIFihEEclERKNS0_15WithoutMatchersEPv
FNDA:3,_ZN7testing8internal14FunctionMockerIFivEEC2Ev
FNDA:0,_ZN7testing8internal18ActionResultHolderIvE13PerformActionIFvhhEEEPS2_RKNS_6ActionIT_EEONS0_8FunctionIS7_E13ArgumentTupleE
FNDA:0,_ZN7testing8internal14FunctionMockerIFvhEED0Ev
FNDA:0,_ZNK7testing8internal10OnCallSpecIFvmEE9GetActionEv
FNDA:10,_ZN7testing8internal16TypedExpectationIFvP18BLEServerCallbacksP26BLECharacteristicCallbacksEED0Ev
FNDA:0,_ZNK7testing8internal14FunctionMockerIFvP26BLECharacteristicCallbacksEE14FindOnCallSpecERKSt5tupleIJS3_EE
FNDA:0,_ZNK7testing8internal14FunctionMockerIFvthEE33FormatUnexpectedCallMessageLockedERKSt5tupleIJthEEPSoS8_
FNDA:2,_ZN7testing8internal14FunctionMockerIFmvEEC2Ev
FNDA:5,_ZNK7testing8internal14FunctionMockerIFvvEE14FindOnCallSpecERKSt5tupleIJEE
FNDA:0,_ZNK7testing8internal16TypedExpectationIFNSt7__cxx1112basic_stringIcSt11char_traitsIcESaIcEEEvEE15repeated_actionEv
FNDA:0,_ZN7testing8internal18ActionResultHolderImE20PerformDefaultActionIFmvEEEPS2_PKNS0_14FunctionMockerIT_EEONS0_8FunctionIS7_E13ArgumentTupleERKNSt7__cxx1112basic_stringIcSt11char_traitsIcESaIcEEE
FNDA:0,_ZNK7testing8internal10OnCallSpecIFNSt7__cxx1112basic_stringIcSt11char_traitsIcESaIcEEEvEE7MatchesERKSt5tupleIJEE
FNDA:4,_ZN7testing8internal14FunctionMockerIFmPKhmEE30UntypedFindMatchingExpectationEPKvPS7_PbPSoSA_
FNDA:0,_ZNK7testing8internal14FunctionMockerIFihEE28PrintTriedExpectationsLockedERKSt5tupleIJhEEPSo
FNDA:0,_ZNK7testing8internal16TypedExpectationIFvP26BLECharacteristicCallbacksEE20ExplainMatchResultToERKSt5tupleIJS3_EEPSo
FNDA:0,_ZN7testing8internal18ActionResultHolderIiE13PerformActionIFitEEEPS2_RKNS_6ActionIT_EEONS0_8FunctionIS7_E13ArgumentTupleE
FNDA:0,_ZN7testing8internal16TypedExpectationIFvhhhhhEE27MaybeDescribeExtraMatcherToEPSo
FNDA:78,_ZNK7testing8internal16TypedExpectationIFvhhhhhEE7MatchesERKSt5tupleIJhhhhhEE
FNDA:0,_ZNK7testing8internal14FunctionMockerIFmvEE16UntypedPrintArgsEPKvPSo
FNDA:233,_ZN7testing8internal18ActionResultHolderIiEC2ENS0_23ReferenceOrValueWrapperIiEE
FNDA:66,_ZNK7testing8internal14FunctionMockerIFvhhhhhEE14FindOnCallSpecERKSt5tupleIJhhhhhEE
FNDA:0,_ZNK7testing8internal14FunctionMockerIFvhiEE32UntypedDescribeUninterestingCallEPKvPSo
FNDA:0,_ZNK7testing8internal10OnCallSpecIFihEE9GetActionEv
FNDA:0,_ZNK7testing8internal16TypedExpectationIFvhhhhhEE20ExplainMatchResultToERKSt5tupleIJhhhhhEEPSo
FNDA:0,_ZNK7testing8internal16TypedExpectationIFvtsEE16GetCurrentActionEPKNS0_14FunctionMockerIS2_EERKSt5tupleIJtsEE
FNDA:0,_ZNK7testing8internal16TypedExpectationIF11MIDI_read_tvEE15repeated_actionEv
FNDA:7,_ZN7testing8internal16TypedExpectationIFlvEED0Ev
FNDA:0,_ZN7testing8internal16TypedExpectationIFvhEE9GetHandleEv
FNDA:17,_ZNK7testing8internal14FunctionMockerIFihEE14FindOnCallSpecERKSt5tupleIJhEE
FNDA:10,_ZN7testing8internal14FunctionMockerIFNSt7__cxx1112basic_stringIcSt11char_traitsIcESaIcEEEvEE25ClearDefaultActionsLockedEv
FNDA:282,_ZN7testing8internal18ActionResultHolderIvE6UnwrapEv
FNDA:0,_ZNK7testing8internal10OnCallSpecIFvhhhhhEE9GetActionEv
FNDA:0,_ZNK7testing8internal16TypedExpectationIFvPKhmhEE21ShouldHandleArgumentsERKSt5tupleIJS3_mhEE
FNDA:0,_ZNK7testing8internal14FunctionMockerIFvhhhhhEE16UntypedPrintArgsEPKvPSo
FNDA:0,_ZNK7testing8internal10OnCallSpecIFvP26BLECharacteristicCallbacksEE7MatchesERKSt5tupleIJS3_EE
FNDA:175,_ZNK7testing8internal14FunctionMockerIFvhhEE20PerformDefaultActionEOSt5tupleIJhhEERKNSt7__cxx1112basic_stringIcSt11char_traitsIcESaIcEEE
FNDA:0,_ZNK7testing8internal14FunctionMockerIFvhhhhEE33FormatUnexpectedCallMessageLockedERKSt5tupleIJhhhhEEPSoS8_
FNDA:0,_ZNK7testing8internal14FunctionMockerIFvP18BLEServerCallbacksEE32UntypedDescribeUninterestingCallEPKvPSo
FNDA:0,_ZNK7testing8internal14FunctionMockerIFvtsEE27UntypedPerformDefaultActionEPvRKNSt7__cxx1112basic_stringIcSt11char_traitsIcESaIcEEE
FNDA:0,_ZNK7testing8internal14FunctionMockerIFvtsEE29FindMatchingExpectationLockedERKSt5tupleIJtsEE
FNDA:0,_ZNK7testing8internal14FunctionMockerIF11MIDI_read_tvEE14FindOnCallSpecERKSt5tupleIJEE
FNDA:5,_ZN7testing8internal14FunctionMockerIFvvEE17AddNewExpectationEPKciRKNSt7__cxx1112basic_stringIcSt11char_traitsIcESaIcEEERKSt5tupleIJEE
FNDA:0,_ZN7testing8internal14FunctionMockerIFvPhmEE30UntypedFindMatchingExpectationEPKvPS6_PbPSoS9_
FNDA:4,_ZN7testing8internal16TypedExpectationIFitEED0Ev
FNDA:0,_ZNK7testing8internal14FunctionMockerIFvhiEE27UntypedPerformDefaultActionEPvRKNSt7__cxx1112basic_stringIcSt11char_traitsIcESaIcEEE
FNDA:0,_ZNK7testing8internal14FunctionMockerIFmvEE20PerformDefaultActionEOSt5tupleIJEERKNSt7__cxx1112basic_stringIcSt11char_traitsIcESaIcEEE
FNDA:0,_ZNK7testing8internal14FunctionMockerIFvvEE20UntypedPerformActionEPKvPv
FNDA:23,_ZN7testing8internal14FunctionMockerIFvhhhhEED2Ev
FNDA:0,_ZNK7testing8internal18ActionResultHolderIlE19PrintAsActionResultEPSo
FNDA:0,_ZNK7testing8internal10OnCallSpecIFvhEE9GetActionEv
FNDA:0,_ZNK7testing8internal14FunctionMockerIFstEE20UntypedPerformActionEPKvPv
FNDA:26,_ZNK7testing8internal14FunctionMockerIFvhEE29FindMatchingExpectationLockedERKSt5tupleIJhEE
FNDA:0,_ZN7testing8internal16TypedExpectationIFvhhhhhEE9GetHandleEv
FNDA:0,_ZNK7testing8internal10OnCallSpecIFvPhmEE7MatchesERKSt5tupleIJS2_mEE
FNDA:0,_ZNK7testing8internal14FunctionMockerIFvP18BLEServerCallbacksEE14FindOnCallSpecERKSt5tupleIJS3_EE
FNDA:0,_ZNK7testing8internal10OnCallSpecIFmhEE7MatchesERKSt5tupleIJhEE
FNDA:8,_ZN7testing8internal14FunctionMockerIFstEEC2Ev
FNDA:0,_ZNK7testing8internal16TypedExpectationIFlvEE20ExplainMatchResultToERKSt5tupleIJEEPSo
FNDA:20,_ZN7testing8internal14FunctionMockerIFvvEED2Ev
FNDA:7,_ZN7testing8internal8MockSpecIFlvEE18InternalExpectedAtEPKciS5_S5_
FNDA:0,_ZNK7testing8internal14FunctionMockerIFvP18BLEServerCallbacksP26BLECharacteristicCallbacksEE33FormatUnexpectedCallMessageLockedERKSt5tupleIJS3_S5_EEPSoSC_
FNDA:0,_ZN7testing8internal18ActionResultHolderIvE13PerformActionIFvhiEEEPS2_RKNS_6ActionIT_EEONS0_8FunctionIS7_E13ArgumentTupleE
FNDA:0,_ZNK7testing8internal14FunctionMockerIFNSt7__cxx1112basic_stringIcSt11char_traitsIcESaIcEEEvEE20UntypedPerformActionEPKvPv
FNDA:0,_ZNK7testing8internal10OnCallSpecIFvhiEE9GetActionEv
FNDA:0,_ZNK7testing8internal14FunctionMockerIFvPKhmhEE20PerformDefaultActionEOSt5tupleIJS3_mhEERKNSt7__cxx1112basic_stringIcSt11char_traitsIcESaIcEEE
FNDA:0,_ZNK7testing8internal16TypedExpectationIFvhhhhEE20ExplainMatchResultToERKSt5tupleIJhhhhEEPSo
FNDA:5,_ZNK7testing8internal14FunctionMockerIFvvEE29FindMatchingExpectationLockedERKSt5tupleIJEE
FNDA:8,_ZN7testing8internal14FunctionMockerIFvtsEE25ClearDefaultActionsLockedEv
FNDA:1,_ZN7testing8internal14FunctionMockerIFvhiEED2Ev
FNDA:0,_ZN7testing8internal18ActionResultHolderIvE13PerformActionIFvthEEEPS2_RKNS_6ActionIT_EEONS0_8FunctionIS7_E13ArgumentTupleE
FNDA:5,_ZN7testing8internal18ActionResultHolderIvE20PerformDefaultActionIFvvEEEPS2_PKNS0_14FunctionMockerIT_EEONS0_8FunctionIS7_E13ArgumentTupleERKNSt7__cxx1112basic_stringIcSt11char_traitsIcESaIcEEE
FNDA:0,_ZNK7testing8internal14FunctionMockerIFvvEE28PrintTriedExpectationsLockedERKSt5tupleIJEEPSo
FNDA:0,_ZNK7testing8internal14FunctionMockerIFNSt7__cxx1112basic_stringIcSt11char_traitsIcESaIcEEEvEE29FindMatchingExpectationLockedERKSt5tupleIJEE
FNDA:17,_ZNK7testing8internal14FunctionMockerIFihEE27UntypedPerformDefaultActionEPvRKNSt7__cxx1112basic_stringIcSt11char_traitsIcESaIcEEE
FNDA:0,_ZNK7testing8internal10OnCallSpecIF11MIDI_read_tvEE9GetActionEv
FNDA:26,_ZN7testing8internal16TypedExpectationIFvhEE21GetActionForArgumentsEPKNS0_14FunctionMockerIS2_EERKSt5tupleIJhEEPSoSC_
FNDA:0,_ZNK7testing8internal14FunctionMockerIFvPKhmhEE29FindMatchingExpectationLockedERKSt5tupleIJS3_mhEE
FNDA:26,_ZN7testing8internal14FunctionMockerIFvhEE17AddNewExpectationEPKciRKNSt7__cxx1112basic_stringIcSt11char_traitsIcESaIcEEERKSt5tupleIJNS_7MatcherIhEEEE
FNDA:20,_ZN7testing8internal14FunctionMockerIFvvEE25ClearDefaultActionsLockedEv
FNDA:0,_ZN7testing8internal16TypedExpectationIFvP18BLEServerCallbacksEE21GetActionForArgumentsEPKNS0_14FunctionMockerIS4_EERKSt5tupleIJS3_EEPSoSE_
FNDA:10,_ZN7testing8internal14FunctionMockerIFlvEE30UntypedFindMatchingExpectationEPKvPS5_PbPSoS8_
FNDA:10,_ZN7testing8internal16TypedExpectationIFlvEE21GetActionForArgumentsEPKNS0_14FunctionMockerIS2_EERKSt5tupleIJEEPSoSC_
FNDA:8,_ZN7testing8internal14FunctionMockerIFvhEED2Ev
FNDA:0,_ZNK7testing8internal16TypedExpectationIFvP18BLEServerCallbacksEE7MatchesERKSt5tupleIJS3_EE
FNDA:26,_ZN7testing8internal16TypedExpectationIFvhEED0Ev
FNDA:0,_ZNK7testing8internal14FunctionMockerIFivEE14FindOnCallSpecERKSt5tupleIJEE
FNDA:0,_ZNK7testing8internal14FunctionMockerIFvtsEE14FindOnCallSpecERKSt5tupleIJtsEE
FNDA:1,_ZN7testing8internal14FunctionMockerIFvmEEC2Ev
FNDA:282,_ZN7testing8internal18ActionResultHolderIvEC2Ev
FNDA:0,_ZNK7testing8internal14FunctionMockerIFvhhhhEE14FindOnCallSpecERKSt5tupleIJhhhhEE
FNDA:5,_ZNK7testing8internal14FunctionMockerIFvvEE20PerformDefaultActionEOSt5tupleIJEERKNSt7__cxx1112basic_stringIcSt11char_traitsIcESaIcEEE
FNDA:17,_ZNK7testing8internal14FunctionMockerIFihEE20PerformDefaultActionEOSt5tupleIJhEERKNSt7__cxx1112basic_stringIcSt11char_traitsIcESaIcEEE
FNDA:0,_ZNK7testing8internal14FunctionMockerIFvhhhhEE23DescribeDefaultActionToERKSt5tupleIJhhhhEEPSo
FNDA:0,_ZNK7testing8internal14FunctionMockerIFvhhEE20UntypedPerformActionEPKvPv
FNDA:4,_ZNK7testing8internal14FunctionMockerIFmPKhmEE20PerformDefaultActionEOSt5tupleIJS3_mEERKNSt7__cxx1112basic_stringIcSt11char_traitsIcESaIcEEE
FNDA:0,_ZN7testing8internal14FunctionMockerIFmvEE17AddNewExpectationEPKciRKNSt7__cxx1112basic_stringIcSt11char_traitsIcESaIcEEERKSt5tupleIJEE
FNDA:0,_ZNK7testing8internal16TypedExpectationIFvmEE16GetCurrentActionEPKNS0_14FunctionMockerIS2_EERKSt5tupleIJmEE
FNDA:0,_ZNK7testing8internal16TypedExpectationIFvthEE15repeated_actionEv
FNDA:0,_ZNK7testing8internal14FunctionMockerIFNSt7__cxx1112basic_stringIcSt11char_traitsIcESaIcEEEvEE23DescribeDefaultActionToERKSt5tupleIJEEPSo
FNDA:1,_ZN7testing8internal8MockSpecIFmhEEC2EPNS0_14FunctionMockerIS2_EERKSt5tupleIJNS_7MatcherIhEEEE
FNDA:0,_ZNK7testing8internal15ExpectationBase4fileEv
FNDA:0,_ZNK7testing8internal14FunctionMockerIFlvEE32UntypedDescribeUninterestingCallEPKvPSo
FNDA:0,_ZNK7testing8internal14FunctionMockerIFvtsEE20PerformDefaultActionEOSt5tupleIJtsEERKNSt7__cxx1112basic_stringIcSt11char_traitsIcESaIcEEE
FNDA:0,_ZNK7testing8internal14FunctionMockerIFvmEE32UntypedDescribeUninterestingCallEPKvPSo
FNDA:64,_ZN7testing8internal14FunctionMockerIFvhhhhhEE4WithENS_7MatcherIhEES5_S5_S5_S5_
FNDA:7,_ZN7testing8internal14FunctionMockerIFlvEE4WithEv
FNDA:0,_ZNK7testing8internal16TypedExpectationIFivEE20ExplainMatchResultToERKSt5tupleIJEEPSo
FNDA:0,_ZN7testing8internal14FunctionMockerIFvP26BLECharacteristicCallbacksEED0Ev
FNDA:26,_ZN7testing8internal16TypedExpectationIFvhEEC2EPNS0_14FunctionMockerIS2_EEPKciRKNSt7__cxx1112basic_stringIcSt11char_traitsIcESaIcEEERKSt5tupleIJNS_7MatcherIhEEEE
FNDA:1,_ZN7testing8internal16TypedExpectationIFmhEED2Ev
FNDA:0,_ZNK7testing8internal14FunctionMockerIFvthEE29FindMatchingExpectationLockedERKSt5tupleIJthEE
FNDA:64,_ZN7testing8internal8MockSpecIFvhhhhhEE18InternalExpectedAtEPKciS5_S5_
FNDA:0,_ZNK7testing8internal16TypedExpectationIF11MIDI_read_tvEE20ExplainMatchResultToERKSt5tupleIJEEPSo
FNDA:0,_ZN7testing8internal18ActionResultHolderIvE13PerformActionIFvmEEEPS2_RKNS_6ActionIT_EEONS0_8FunctionIS7_E13ArgumentTupleE
FNDA:0,_ZN7testing8internal16TypedExpectationIFvhiEE21GetActionForArgumentsEPKNS0_14FunctionMockerIS2_EERKSt5tupleIJhiEEPSoSC_
FNDA:0,_ZN7testing8internal23ReferenceOrValueWrapperI11MIDI_read_tEC2ES2_
FNDA:0,_ZN7testing8internal14FunctionMockerIFmhEE17AddNewExpectationEPKciRKNSt7__cxx1112basic_stringIcSt11char_traitsIcESaIcEEERKSt5tupleIJNS_7MatcherIhEEEE
FNDA:2,_ZN7testing8internal14FunctionMockerIFvhhEED2Ev
FNDA:0,_ZNK7testing8internal14FunctionMockerIFvhhhhEE29FindMatchingExpectationLockedERKSt5tupleIJhhhhEE
FNDA:8,_ZN7testing8internal14FunctionMockerIFstEE25ClearDefaultActionsLockedEv
FNDA:10,_ZN7testing8internal8MockSpecIFvP18BLEServerCallbacksP26BLECharacteristicCallbacksEEC2EPNS0_14FunctionMockerIS6_EERKSt5tupleIJNS_7MatcherIS3_EENSC_IS5_EEEE
FNDA:4,_ZN7testing8internal8MockSpecIFitEEclERKNS0_15WithoutMatchersEPv
FNDA:0,_ZNK7testing8internal14FunctionMockerIFvthEE14FindOnCallSpecERKSt5tupleIJthEE
FNDA:0,_ZNK7testing8internal14FunctionMockerIFvthEE20PerformDefaultActionEOSt5tupleIJthEERKNSt7__cxx1112basic_stringIcSt11char_traitsIcESaIcEEE
FNDA:0,_ZN7testing8internal14FunctionMockerIFmhEED0Ev
FNDA:0,_ZNK7testing8internal16TypedExpectationIFvP26BLECharacteristicCallbacksEE16GetCurrentActionEPKNS0_14FunctionMockerIS4_EERKSt5tupleIJS3_EE
FNDA:85,_ZNK7testing8internal16TypedExpectationIFmvEE15repeated_actionEv
FNDA:4,_ZNK7testing8internal16TypedExpectationIFitEE15repeated_actionEv
FNDA:0,_ZNK7testing8internal14FunctionMockerIFmPKhmEE32UntypedDescribeUninterestingCallEPKvPSo
FNDA:0,_ZN7testing8internal16TypedExpectationIFmhEE27MaybeDescribeExtraMatcherToEPSo
FNDA:189,_ZNK7testing8internal16TypedExpectationIFmvEE7MatchesERKSt5tupleIJEE
FNDA:4,_ZNK7testing8internal14FunctionMockerIFitEE27UntypedPerformDefaultActionEPvRKNSt7__cxx1112basic_stringIcSt11char_traitsIcESaIcEEE
FNDA:0,_ZNK7testing8internal14FunctionMockerIFvPhmEE33FormatUnexpectedCallMessageLockedERKSt5tupleIJS2_mEEPSoS9_
FNDA:0,_ZNK7testing8internal14FunctionMockerIFvvEE32UntypedDescribeUninterestingCallEPKvPSo
FNDA:26,_ZN7testing8internal8MockSpecIFvhEEclERKNS0_15WithoutMatchersEPv
FNDA:0,_ZN7testing8internal14FunctionMockerIFvhhEED0Ev
FNDA:10,_ZN7testing8internal18ActionResultHolderIvE20PerformDefaultActionIFvP18BLEServerCallbacksP26BLECharacteristicCallbacksEEEPS2_PKNS0_14FunctionMockerIT_EEONS0_8FunctionISB_E13ArgumentTupleERKNSt7__cxx1112basic_stringIcSt11char_traitsIcESaIcEEE
FNDA:0,_ZN7testing8internal14FunctionMockerIFvP18BLEServerCallbacksP26BLECharacteristicCallbacksEED0Ev
FNDA:0,_ZNK7testing8internal16TypedExpectationIFvtsEE20ExplainMatchResultToERKSt5tupleIJtsEEPSo
FNDA:0,_ZNK7testing8internal14FunctionMockerIFvthEE16UntypedPrintArgsEPKvPSo
FNDA:10,_ZN7testing8internal14FunctionMockerIFvP18BLEServerCallbacksEED2Ev
FNDA:5,_ZNK7testing8internal16TypedExpectationIFvvEE21ShouldHandleArgumentsERKSt5tupleIJEE
FNDA:66,_ZN7testing8internal14FunctionMockerIFvhhhhhEE6InvokeEhhhhh
FNDA:26,_ZN7testing8internal16TypedExpectationIFvhEED2Ev
FNDA:26,_ZNK7testing8internal16TypedExpectationIFvhEE16GetCurrentActionEPKNS0_14FunctionMockerIS2_EERKSt5tupleIJhEE
FNDA:0,_ZNK7testing8internal10OnCallSpecIFvPhmEE9GetActionEv
FNDA:0,_ZNK7testing8internal16TypedExpectationIFvPKhmhEE16GetCurrentActionEPKNS0_14FunctionMockerIS4_EERKSt5tupleIJS3_mhEE
FNDA:0,_ZNK7testing8internal14FunctionMockerIFvP18BLEServerCallbacksEE29FindMatchingExpectationLockedERKSt5tupleIJS3_EE
FNDA:0,_ZN7testing8internal14FunctionMockerIFvhiEE30UntypedFindMatchingExpectationEPKvPS5_PbPSoS8_
FNDA:23,_ZN7testing8internal14FunctionMockerIFvPKhmhEEC2Ev
FNDA:0,_ZNK7testing8internal14FunctionMockerIFmvEE27UntypedPerformDefaultActionEPvRKNSt7__cxx1112basic_stringIcSt11char_traitsIcESaIcEEE
FNDA:0,_ZN7testing8internal18ActionResultHolderIvE13PerformActionIFvhhhhhEEEPS2_RKNS_6ActionIT_EEONS0_8FunctionIS7_E13ArgumentTupleE
FNDA:0,_ZNK7testing8internal14FunctionMockerIFvP18BLEServerCallbacksEE27UntypedPerformDefaultActionEPvRKNSt7__cxx1112basic_stringIcSt11char_traitsIcESaIcEEE
FNDA:0,_ZNK7testing8internal10OnCallSpecIFvPKhmhEE7MatchesERKSt5tupleIJS3_mhEE
FNDA:5,_ZNK7testing8internal16TypedExpectationIFvvEE16GetCurrentActionEPKNS0_14FunctionMockerIS2_EERKSt5tupleIJEE
FNDA:175,_ZN7testing8internal14FunctionMockerIFvhhEE30UntypedFindMatchingExpectationEPKvPS5_PbPSoS8_
FNDA:0,_ZNK7testing8internal14FunctionMockerIFihEE23DescribeDefaultActionToERKSt5tupleIJhEEPSo
FNDA:0,_ZN7testing8internal16TypedExpectationIFvP18BLEServerCallbacksP26BLECharacteristicCallbacksEE9GetHandleEv
FNDA:229,_ZNK7testing8internal14FunctionMockerIFihEE29FindMatchingExpectationLockedERKSt5tupleIJhEE
FNDA:0,_ZNK7testing8internal14FunctionMockerIFvP26BLECharacteristicCallbacksEE20PerformDefaultActionEOSt5tupleIJS3_EERKNSt7__cxx1112basic_stringIcSt11char_traitsIcESaIcEEE
FNDA:0,_ZNK7testing8internal16TypedExpectationIFstEE7MatchesERKSt5tupleIJtEE
FNDA:0,_ZN7testing8internal14FunctionMockerIFvPhmEED0Ev
FNDA:4,_ZNK7testing8internal14FunctionMockerIFitEE29FindMatchingExpectationLockedERKSt5tupleIJtEE
FNDA:0,_ZN7testing8internal14FunctionMockerIFvtsEE30UntypedFindMatchingExpectationEPKvPS5_PbPSoS8_
FNDA:0,_ZNK7testing8internal14FunctionMockerIFvP18BLEServerCallbacksEE20PerformDefaultActionEOSt5tupleIJS3_EERKNSt7__cxx1112basic_stringIcSt11char_traitsIcESaIcEEE
FNDA:0,_ZNK7testing8internal10OnCallSpecIFstEE7MatchesERKSt5tupleIJtEE
FNDA:0,_ZNK7testing8internal14FunctionMockerIFvP26BLECharacteristicCallbacksEE27UntypedPerformDefaultActionEPvRKNSt7__cxx1112basic_stringIcSt11char_traitsIcESaIcEEE
FNDA:0,_ZNK7testing8internal14FunctionMockerIF11MIDI_read_tvEE20PerformDefaultActionEOSt5tupleIJEERKNSt7__cxx1112basic_stringIcSt11char_traitsIcESaIcEEE
FNDA:1,_ZNK7testing8internal16TypedExpectationIFmhEE16GetCurrentActionEPKNS0_14FunctionMockerIS2_EERKSt5tupleIJhEE
FNDA:0,_ZNK7testing8internal14FunctionMockerIFmPKhmEE16UntypedPrintArgsEPKvPSo
FNDA:16,_ZN7testing8internal14FunctionMockerIFvthEED2Ev
FNDA:0,_ZNK7testing8internal14FunctionMockerIFstEE28PrintTriedExpectationsLockedERKSt5tupleIJtEEPSo
FNDA:64,_ZN7testing8internal16TypedExpectationIFvhhhhhEED0Ev
FNDA:64,_ZN7testing8internal8MockSpecIFvhhhhhEEclERKNS0_15WithoutMatchersEPv
FNDA:10,_ZNK7testing8internal14FunctionMockerIFlvEE29FindMatchingExpectationLockedERKSt5tupleIJEE
FNDA:0,_ZNK7testing8internal14FunctionMockerIFvhhEE23DescribeDefaultActionToERKSt5tupleIJhhEEPSo
FNDA:10,_ZNK7testing8internal14FunctionMockerIFvP18BLEServerCallbacksP26BLECharacteristicCallbacksEE27UntypedPerformDefaultActionEPvRKNSt7__cxx1112basic_stringIcSt11char_traitsIcESaIcEEE
FNDA:4,_ZN7testing8internal8MockSpecIFitEE18InternalExpectedAtEPKciS5_S5_
FNDA:0,_ZNK7testing8internal14FunctionMockerIFihEE16UntypedPrintArgsEPKvPSo
FNDA:27,_ZN7testing8internal14FunctionMockerIFvhhhhhEE25ClearDefaultActionsLockedEv
FNDA:0,_ZNK7testing8internal14FunctionMockerIFvmEE14FindOnCallSpecERKSt5tupleIJmEE
FNDA:0,_ZNK7testing8internal16TypedExpectationIFivEE15repeated_actionEv
FNDA:0,_ZN7testing8internal14FunctionMockerIFmhEE6InvokeEh
FNDA:198,_ZN7testing8internal8MockSpecIFihEEC2EPNS0_14FunctionMockerIS2_EERKSt5tupleIJNS_7MatcherIhEEEE
FNDA:4,_ZN7testing8internal8MockSpecIFmPKhmEEC2EPNS0_14FunctionMockerIS4_EERKSt5tupleIJNS_7MatcherIS3_EENSA_ImEEEE
FNDA:0,_ZNK7testing8internal10OnCallSpecIFvP18BLEServerCallbacksEE7MatchesERKSt5tupleIJS3_EE
FNDA:0,_ZN7testing8internal14FunctionMockerIFvmEE6InvokeEm
FNDA:0,_ZNK7testing8internal14FunctionMockerIFivEE20UntypedPerformActionEPKvPv
FNDA:0,_ZN7testing8internal16TypedExpectationIFstEE21GetActionForArgumentsEPKNS0_14FunctionMockerIS2_EERKSt5tupleIJtEEPSoSC_
FNDA:0,_ZNK7testing8internal14FunctionMockerIFvtsEE28PrintTriedExpectationsLockedERKSt5tupleIJtsEEPSo
FNDA:0,_ZNK7testing8internal10OnCallSpecIFvhEE7MatchesERKSt5tupleIJhEE
FNDA:0,_ZN7testing8internal18ActionResultHolderIsE20PerformDefaultActionIFstEEEPS2_PKNS0_14FunctionMockerIT_EEONS0_8FunctionIS7_E13ArgumentTupleERKNSt7__cxx1112basic_stringIcSt11char_traitsIcESaIcEEE
FNDA:0,_ZNK7testing8internal14FunctionMockerIFlvEE33FormatUnexpectedCallMessageLockedERKSt5tupleIJEEPSoS8_
FNDA:145,_ZN7testing8internal8MockSpecIFmvEEC2EPNS0_14FunctionMockerIS2_EERKSt5tupleIJEE
FNDA:639,_ZN7testing14ExpectationSetC2Ev
FNDA:0,_ZNK7testing8internal16TypedExpectationIFNSt7__cxx1112basic_stringIcSt11char_traitsIcESaIcEEEvEE16GetCurrentActionEPKNS0_14FunctionMockerIS8_EERKSt5tupleIJEE
FNDA:0,_ZNK7testing8internal16TypedExpectationIFmhEE20ExplainMatchResultToERKSt5tupleIJhEEPSo
FNDA:10,_ZNK7testing8internal14FunctionMockerIFlvEE20UntypedPerformActionEPKvPv
FNDA:23,_ZN7testing8internal14FunctionMockerIF11MIDI_read_tvEEC2Ev
FNDA:145,_ZN7testing8internal16TypedExpectationIFmvEEC2EPNS0_14FunctionMockerIS2_EEPKciRKNSt7__cxx1112basic_stringIcSt11char_traitsIcESaIcEEERKSt5tupleIJEE
FNDA:0,_ZNK7testing8internal14FunctionMockerIFmhEE20UntypedPerformActionEPKvPv
FNDA:0,_ZNK7testing8internal16TypedExpectationIFvtsEE21ShouldHandleArgumentsERKSt5tupleIJtsEE
FNDA:1,_ZN7testing8internal16TypedExpectationIFmhEEC2EPNS0_14FunctionMockerIS2_EEPKciRKNSt7__cxx1112basic_stringIcSt11char_traitsIcESaIcEEERKSt5tupleIJNS_7MatcherIhEEEE
FNDA:0,_ZN7testing8internal18ActionResultHolderIvE13PerformActionIFvP18BLEServerCallbacksP26BLECharacteristicCallbacksEEEPS2_RKNS_6ActionIT_EEONS0_8FunctionISB_E13ArgumentTupleE
FNDA:0,_ZNK7testing8internal16TypedExpectationIFivEE16GetCurrentActionEPKNS0_14FunctionMockerIS2_EERKSt5tupleIJEE
FNDA:0,_ZNK7testing8internal18ActionResultHolderIiE19PrintAsActionResultEPSo
FNDA:0,_ZNK7testing8internal14FunctionMockerIFvthEE27UntypedPerformDefaultActionEPvRKNSt7__cxx1112basic_stringIcSt11char_traitsIcESaIcEEE
FNDA:0,_ZNK7testing8internal14FunctionMockerIFvhEE28PrintTriedExpectationsLockedERKSt5tupleIJhEEPSo
FNDA:0,_ZNK7testing8internal10OnCallSpecIFmPKhmEE9GetActionEv
FNDA:10,_ZN7testing8internal14FunctionMockerIFvP18BLEServerCallbacksP26BLECharacteristicCallbacksEED2Ev
FNDA:1,_ZN7testing8internal16TypedExpectationIFmhEED0Ev
FNDA:0,_ZNK7testing8internal14FunctionMockerIFlvEE27UntypedPerformDefaultActionEPvRKNSt7__cxx1112basic_stringIcSt11char_traitsIcESaIcEEE
FNDA:0,_ZN7testing8internal18ActionResultHolderIsEC2ENS0_23ReferenceOrValueWrapperIsEE
FNDA:8,_ZN7testing8internal14FunctionMockerIFvtsEEC2Ev
FNDA:5,_ZN7testing8internal14FunctionMockerIFvvEE30UntypedFindMatchingExpectationEPKvPS5_PbPSoS8_
FNDA:0,_ZN7testing8internal16TypedExpectationIFvPhmEE21GetActionForArgumentsEPKNS0_14FunctionMockerIS3_EERKSt5tupleIJS2_mEEPSoSD_
FNDA:0,_ZNK7testing8internal10OnCallSpecIFitEE9GetActionEv
FNDA:0,_ZN7testing8internal16TypedExpectationIFivEE21GetActionForArgumentsEPKNS0_14FunctionMockerIS2_EERKSt5tupleIJEEPSoSC_
FNDA:4,_ZN7testing8internal18ActionResultHolderIiE20PerformDefaultActionIFitEEEPS2_PKNS0_14FunctionMockerIT_EEONS0_8FunctionIS7_E13ArgumentTupleERKNSt7__cxx1112basic_stringIcSt11char_traitsIcESaIcEEE
FNDA:0,_ZNK7testing8internal14FunctionMockerIFlvEE23DescribeDefaultActionToERKSt5tupleIJEEPSo
FNDA:66,_ZN7testing8internal18ActionResultHolderIvE20PerformDefaultActionIFvhhhhhEEEPS2_PKNS0_14FunctionMockerIT_EEONS0_8FunctionIS7_E13ArgumentTupleERKNSt7__cxx1112basic_stringIcSt11char_traitsIcESaIcEEE
FNDA:0,_ZNK7testing8internal14FunctionMockerIFvhhhhEE28PrintTriedExpectationsLockedERKSt5tupleIJhhhhEEPSo
FNDA:0,_ZNK7testing8internal14FunctionMockerIFvP18BLEServerCallbacksP26BLECharacteristicCallbacksEE23DescribeDefaultActionToERKSt5tupleIJS3_S5_EEPSo
FNDA:145,_ZN7testing8internal16TypedExpectationIFmvEED0Ev
FNDA:0,_ZN7testing8internal18ActionResultHolderI11MIDI_read_tEC2ENS0_23ReferenceOrValueWrapperIS2_EE
FNDA:0,_ZNK7testing8internal14FunctionMockerIFvhiEE20PerformDefaultActionEOSt5tupleIJhiEERKNSt7__cxx1112basic_stringIcSt11char_traitsIcESaIcEEE
FNDA:0,_ZN7testing8internal18ActionResultHolderINSt7__cxx1112basic_stringIcSt11char_traitsIcESaIcEEEE13PerformActionIFS7_vEEEPS8_RKNS_6ActionIT_EEONS0_8FunctionISD_E13ArgumentTupleE
FNDA:0,_ZNK7testing8internal14FunctionMockerIFmvEE32UntypedDescribeUninterestingCallEPKvPSo
FNDA:0,_ZNK7testing8internal16TypedExpectationIFvP26BLECharacteristicCallbacksEE15repeated_actionEv
FNDA:0,_ZNK7testing8internal14FunctionMockerIFivEE20PerformDefaultActionEOSt5tupleIJEERKNSt7__cxx1112basic_stringIcSt11char_traitsIcESaIcEEE
FNDA:175,_ZN7testing8internal18ActionResultHolderIvE20PerformDefaultActionIFvhhEEEPS2_PKNS0_14FunctionMockerIT_EEONS0_8FunctionIS7_E13ArgumentTupleERKNSt7__cxx1112basic_stringIcSt11char_traitsIcESaIcEEE
FNDA:0,_ZNK7testing8internal14FunctionMockerIFvhiEE20UntypedPerformActionEPKvPv
FNDA:0,_ZNK7testing8internal21UntypedOnCallSpecBase4lineEv
FNDA:0,_ZNK7testing8internal10OnCallSpecIFivEE9GetActionEv
FNDA:66,_ZNK7testing8internal14FunctionMockerIFvhhhhhEE29FindMatchingExpectationLockedERKSt5tupleIJhhhhhEE
FNDA:0,_ZN7testing8internal16TypedExpectationIF11MIDI_read_tvEE21GetActionForArgumentsEPKNS0_14FunctionMockerIS3_EERKSt5tupleIJEEPSoSD_
FNDA:0,_ZNK7testing8internal16TypedExpectationIFvmEE21ShouldHandleArgumentsERKSt5tupleIJmEE
FNDA:719,_ZNK7testing8internal15ExpectationBase10call_countEv
FNDA:0,_ZNK7testing8internal10OnCallSpecIFihEE7MatchesERKSt5tupleIJhEE
FNDA:0,_ZN7testing8internal14FunctionMockerIF11MIDI_read_tvEE6InvokeEv
FNDA:436,_ZNK7testing8internal16TypedExpectationIFvhhEE21ShouldHandleArgumentsERKSt5tupleIJhhEE
FNDA:189,_ZN7testing8internal18ActionResultHolderImE13PerformActionIFmvEEEPS2_RKNS_6ActionIT_EEONS0_8FunctionIS7_E13ArgumentTupleE
FNDA:0,_ZNK7testing8internal21UntypedOnCallSpecBase18AssertSpecPropertyEbRKNSt7__cxx1112basic_stringIcSt11char_traitsIcESaIcEEE
FNDA:0,_ZN7testing8internal18ActionResultHolderIsE13PerformActionIFstEEEPS2_RKNS_6ActionIT_EEONS0_8FunctionIS7_E13ArgumentTupleE
FNDA:0,_ZNK7testing8internal10OnCallSpecIFmPKhmEE7MatchesERKSt5tupleIJS3_mEE
FNDA:193,_ZNK7testing11Expectation16expectation_baseEv
FNDA:5,_ZN7testing8internal16TypedExpectationIFvvEEC2EPNS0_14FunctionMockerIS2_EEPKciRKNSt7__cxx1112basic_stringIcSt11char_traitsIcESaIcEEERKSt5tupleIJEE
FNDA:289,_ZN7testing8internal15ExpectationBase15set_cardinalityERKNS_11CardinalityE
FNDA:145,_ZN7testing8internal14FunctionMockerIFmvEE4WithEv
FNDA:0,_ZNK7testing8internal14FunctionMockerIFvP18BLEServerCallbacksEE20UntypedPerformActionEPKvPv
FNDA:18,_ZN7testing8internal15ExpectationBase6RetireEv
FNDA:5,_ZN7testing8internal14FunctionMockerIFvvEE6InvokeEv
FNDA:0,_ZNK7testing8internal14FunctionMockerIFstEE29FindMatchingExpectationLockedERKSt5tupleIJtEE
FNDA:10,_ZNK7testing8internal16TypedExpectationIFlvEE16GetCurrentActionEPKNS0_14FunctionMockerIS2_EERKSt5tupleIJEE
FNDA:0,_ZNK7testing8internal14FunctionMockerIFvhiEE33FormatUnexpectedCallMessageLockedERKSt5tupleIJhiEEPSoS8_
FNDA:5,_ZN7testing8internal16TypedExpectationIFvvEED2Ev
FNDA:10,_ZN7testing8internal18ActionResultHolderIlEC2ENS0_23ReferenceOrValueWrapperIlEE
FNDA:6,_ZN7testing8internal16TypedExpectationIFihEE10InSequenceERKNS_8SequenceE
FNDA:0,_ZNK7testing8internal23ReferenceOrValueWrapperIsE4PeekEv
FNDA:0,_ZN7testing8internal16TypedExpectationIFmPKhmEE27MaybeDescribeExtraMatcherToEPSo
FNDA:0,_ZN7testing8internal14FunctionMockerIFmPKhmEE17AddNewExpectationEPKciRKNSt7__cxx1112basic_stringIcSt11char_traitsIcESaIcEEERKSt5tupleIJNS_7MatcherIS3_EENSH_ImEEEE
FNDA:0,_ZNK7testing8internal10OnCallSpecIFvP18BLEServerCallbacksEE9GetActionEv
FNDA:0,_ZNK7testing8internal16TypedExpectationIFvhhhhEE15repeated_actionEv
FNDA:10,_ZN7testing8internal14FunctionMockerIFNSt7__cxx1112basic_stringIcSt11char_traitsIcESaIcEEEvEED2Ev
FNDA:0,_ZNK7testing8internal14FunctionMockerIFvmEE29FindMatchingExpectationLockedERKSt5tupleIJmEE
FNDA:0,_ZNK7testing8internal16TypedExpectationIF11MIDI_read_tvEE21ShouldHandleArgumentsERKSt5tupleIJEE
FNDA:10,_ZN7testing8internal14FunctionMockerIFvP26BLECharacteristicCallbacksEE25ClearDefaultActionsLockedEv
FNDA:0,_ZNK7testing8internal23ReferenceOrValueWrapperINSt7__cxx1112basic_stringIcSt11char_traitsIcESaIcEEEE4PeekEv
FNDA:0,_ZNK7testing8internal14FunctionMockerIFmPKhmEE20UntypedPerformActionEPKvPv
FNDA:0,_ZNK7testing8internal14FunctionMockerIFvthEE28PrintTriedExpectationsLockedERKSt5tupleIJthEEPSo
FNDA:10,_ZNK7testing8internal14FunctionMockerIFvP18BLEServerCallbacksP26BLECharacteristicCallbacksEE29FindMatchingExpectationLockedERKSt5tupleIJS3_S5_EE
FNDA:0,_ZN7testing8internal18ActionResultHolderIvE13PerformActionIFvP26BLECharacteristicCallbacksEEEPS2_RKNS_6ActionIT_EEONS0_8FunctionIS9_E13ArgumentTupleE
FNDA:189,_ZN7testing8internal16TypedExpectationIFmvEE21GetActionForArgumentsEPKNS0_14FunctionMockerIS2_EERKSt5tupleIJEEPSoSC_
FNDA:0,_ZN7testing8internal16TypedExpectationIFNSt7__cxx1112basic_stringIcSt11char_traitsIcESaIcEEEvEE21GetActionForArgumentsEPKNS0_14FunctionMockerIS8_EERKSt5tupleIJEEPSoSI_
FNDA:0,_ZNK7testing8internal14FunctionMockerIF11MIDI_read_tvEE27UntypedPerformDefaultActionEPvRKNSt7__cxx1112basic_stringIcSt11char_traitsIcESaIcEEE
FNDA:1,_ZN7testing8internal14FunctionMockerIFvmEE25ClearDefaultActionsLockedEv
FNDA:0,_ZNK7testing8internal10OnCallSpecIFvhhEE7MatchesERKSt5tupleIJhhEE
FNDA:10,_ZN7testing8internal16TypedExpectationIFvP18BLEServerCallbacksP26BLECharacteristicCallbacksEEC2EPNS0_14FunctionMockerIS6_EEPKciRKNSt7__cxx1112basic_stringIcSt11char_traitsIcESaIcEEERKSt5tupleIJNS_7MatcherIS3_EENSM_IS5_EEEE
FNDA:0,_ZNK7testing8internal14FunctionMockerIFvP18BLEServerCallbacksP26BLECharacteristicCallbacksEE32UntypedDescribeUninterestingCallEPKvPSo
FNDA:0,_ZN7testing8internal14FunctionMockerIFitEED0Ev
FNDA:23,_ZN7testing8internal14FunctionMockerIFvPKhmhEED2Ev
FNDA:0,_ZNK7testing8internal16TypedExpectationIF11MIDI_read_tvEE7MatchesERKSt5tupleIJEE
FNDA:8,_ZN7testing8internal14FunctionMockerIFitEE25ClearDefaultActionsLockedEv
FNDA:0,_ZNK7testing8internal14FunctionMockerIFvhEE33FormatUnexpectedCallMessageLockedERKSt5tupleIJhEEPSoS8_
FNDA:0,_ZN7testing8internal16TypedExpectationIFvtsEE21GetActionForArgumentsEPKNS0_14FunctionMockerIS2_EERKSt5tupleIJtsEEPSoSC_
FNDA:229,_ZN7testing8internal14FunctionMockerIFihEE30UntypedFindMatchingExpectationEPKvPS5_PbPSoS8_
FNDA:0,_ZNK7testing8internal14FunctionMockerIFvPhmEE20UntypedPerformActionEPKvPv
FNDA:0,_ZNK7testing8internal14FunctionMockerIFitEE28PrintTriedExpectationsLockedERKSt5tupleIJtEEPSo
FNDA:5,_ZNK7testing8internal16TypedExpectationIFvvEE7MatchesERKSt5tupleIJEE
FNDA:0,_ZNK7testing8internal14FunctionMockerIFvhiEE14FindOnCallSpecERKSt5tupleIJhiEE
FNDA:0,_ZNK7testing8internal14FunctionMockerIFvP26BLECharacteristicCallbacksEE32UntypedDescribeUninterestingCallEPKvPSo
FNDA:0,_ZN7testing8internal14FunctionMockerIFivEE6InvokeEv
FNDA:0,_ZN7testing8internal14FunctionMockerIFihEE17AddNewExpectationEPKciRKNSt7__cxx1112basic_stringIcSt11char_traitsIcESaIcEEERKSt5tupleIJNS_7MatcherIhEEEE
FNDA:2,_ZN7testing8internal14FunctionMockerIFihEEC2Ev
FNDA:0,_ZNK7testing8internal10OnCallSpecIFvhhEE9GetActionEv
FNDA:26,_ZNK7testing8internal16TypedExpectationIFvhEE7MatchesERKSt5tupleIJhEE
FNDA:0,_ZNK7testing8internal14FunctionMockerIFmhEE33FormatUnexpectedCallMessageLockedERKSt5tupleIJhEEPSoS8_
FNDA:4,_ZN7testing8internal16TypedExpectationIFitEE10InSequenceERKNS_8SequenceE
FNDA:0,_ZNK7testing8internal14FunctionMockerIFvmEE28PrintTriedExpectationsLockedERKSt5tupleIJmEEPSo
FNDA:1,_ZN7testing8internal14FunctionMockerIFmPKhmEEC2Ev
FNDA:189,_ZNK7testing8internal16TypedExpectationIFmvEE21ShouldHandleArgumentsERKSt5tupleIJEE
FNDA:7,_ZN7testing8internal8MockSpecIFlvEEC2EPNS0_14FunctionMockerIS2_EERKSt5tupleIJEE
FNDA:0,_ZNK7testing8internal16TypedExpectationIFvPKhmhEE7MatchesERKSt5tupleIJS3_mhEE
FNDA:0,_ZN7testing8internal16TypedExpectationIFmPKhmEE9GetHandleEv
FNDA:0,_ZN7testing8internal14FunctionMockerIFihEE6InvokeEh
FNDA:0,_ZNK7testing8internal16TypedExpectationIFvP26BLECharacteristicCallbacksEE21ShouldHandleArgumentsERKSt5tupleIJS3_EE
FNDA:0,_ZNK7testing8internal14FunctionMockerIFvthEE32UntypedDescribeUninterestingCallEPKvPSo
FNDA:0,_ZNK7testing8internal14FunctionMockerIFvmEE23DescribeDefaultActionToERKSt5tupleIJmEEPSo
FNDA:0,_ZN7testing8internal14FunctionMockerIFvmEE30UntypedFindMatchingExpectationEPKvPS5_PbPSoS8_
FNDA:0,_ZN7testing8internal18ActionResultHolderIsE6UnwrapEv
FNDA:0,_ZNK7testing8internal14FunctionMockerIFvP26BLECharacteristicCallbacksEE16UntypedPrintArgsEPKvPSo
FNDA:1,_ZN7testing8internal16TypedExpectationIFmhEE21GetActionForArgumentsEPKNS0_14FunctionMockerIS2_EERKSt5tupleIJhEEPSoSC_
FNDA:0,_ZNK7testing8internal14FunctionMockerIFvhhhhhEE23DescribeDefaultActionToERKSt5tupleIJhhhhhEEPSo
FNDA:0,_ZNK7testing8internal10OnCallSpecIFvtsEE7MatchesERKSt5tupleIJtsEE
FNDA:0,_ZNK7testing8internal18ActionResultHolderINSt7__cxx1112basic_stringIcSt11char_traitsIcESaIcEEEE19PrintAsActionResultEPSo
FNDA:4,_ZN7testing8internal14FunctionMockerIFitEE30UntypedFindMatchingExpectationEPKvPS5_PbPSoS8_
FNDA:10,_ZN7testing8internal14FunctionMockerIFvP26BLECharacteristicCallbacksEED2Ev
FNDA:4,_ZN7testing8internal18ActionResultHolderImE20PerformDefaultActionIFmPKhmEEEPS2_PKNS0_14FunctionMockerIT_EEONS0_8FunctionIS9_E13ArgumentTupleERKNSt7__cxx1112basic_stringIcSt11char_traitsIcESaIcEEE
FNDA:0,_ZNK7testing8internal16TypedExpectationIFvthEE16GetCurrentActionEPKNS0_14FunctionMockerIS2_EERKSt5tupleIJthEE
FNDA:0,_ZN7testing8internal14FunctionMockerIFmPKhmEE6InvokeES3_m
FNDA:0,_ZNK7testing8internal14FunctionMockerIFNSt7__cxx1112basic_stringIcSt11char_traitsIcESaIcEEEvEE14FindOnCallSpecERKSt5tupleIJEE
FNDA:10,_ZN7testing8internal16TypedExpectationIFvP18BLEServerCallbacksP26BLECharacteristicCallbacksEE21GetActionForArgumentsEPKNS0_14FunctionMockerIS6_EERKSt5tupleIJS3_S5_EEPSoSG_
FNDA:0,_ZNK7testing8internal14FunctionMockerIF11MIDI_read_tvEE23DescribeDefaultActionToERKSt5tupleIJEEPSo
FNDA:229,_ZNK7testing8internal16TypedExpectationIFihEE16GetCurrentActionEPKNS0_14FunctionMockerIS2_EERKSt5tupleIJhEE
FNDA:0,_ZNK7testing8internal14FunctionMockerIFvPKhmhEE33FormatUnexpectedCallMessageLockedERKSt5tupleIJS3_mhEEPSoSA_
FNDA:0,_ZN7testing8internal14FunctionMockerIFvhhhhEE30UntypedFindMatchingExpectationEPKvPS5_PbPSoS8_
FNDA:10,_ZNK7testing8internal16TypedExpectationIFlvEE7MatchesERKSt5tupleIJEE
FNDA:10,_ZNK7testing8internal16TypedExpectationIFvP18BLEServerCallbacksP26BLECharacteristicCallbacksEE16GetCurrentActionEPKNS0_14FunctionMockerIS6_EERKSt5tupleIJS3_S5_EE
FNDA:19,_ZN7testing8internal16TypedExpectationIFihEE5TimesEi
FNDA:66,_ZNK7testing8internal14FunctionMockerIFvhhhhhEE27UntypedPerformDefaultActionEPvRKNSt7__cxx1112basic_stringIcSt11char_traitsIcESaIcEEE
FNDA:0,_ZN7testing8internal14FunctionMockerIFvhhhhEE6InvokeEhhhh
FNDA:4,_ZNK7testing8internal14FunctionMockerIFitEE20PerformDefaultActionEOSt5tupleIJtEERKNSt7__cxx1112basic_stringIcSt11char_traitsIcESaIcEEE
FNDA:13,_ZN7testing8internal16TypedExpectationIFvhhEE9GetHandleEv
FNDA:8,_ZN7testing8internal14FunctionMockerIFvtsEED2Ev
FNDA:0,_ZNK7testing8internal14FunctionMockerIFvPhmEE28PrintTriedExpectationsLockedERKSt5tupleIJS2_mEEPSo
FNDA:10,_ZN7testing8internal16TypedExpectationIFlvEE8WillOnceERKNS_6ActionIS2_EE
FNDA:0,_ZNK7testing8internal14FunctionMockerIFvP18BLEServerCallbacksEE16UntypedPrintArgsEPKvPSo
FNDA:0,_ZN7testing8internal18ActionResultHolderIvE20PerformDefaultActionIFvmEEEPS2_PKNS0_14FunctionMockerIT_EEONS0_8FunctionIS7_E13ArgumentTupleERKNSt7__cxx1112basic_stringIcSt11char_traitsIcESaIcEEE
FNDA:189,_ZNK7testing8internal14FunctionMockerIFmvEE29FindMatchingExpectationLockedERKSt5tupleIJEE
FNDA:233,_ZN7testing8internal23ReferenceOrValueWrapperIiE6UnwrapEv
FNDA:0,_ZNK7testing8internal14FunctionMockerIFstEE23DescribeDefaultActionToERKSt5tupleIJtEEPSo
FNDA:0,_ZNK7testing8internal14FunctionMockerIFNSt7__cxx1112basic_stringIcSt11char_traitsIcESaIcEEEvEE16UntypedPrintArgsEPKvPSo
FNDA:0,_ZNK7testing8internal14FunctionMockerIFitEE32UntypedDescribeUninterestingCallEPKvPSo
FNDA:0,_ZN7testing8internal18ActionResultHolderI11MIDI_read_tE6UnwrapEv
FNDA:175,_ZN7testing8internal16TypedExpectationIFvhhEE21GetActionForArgumentsEPKNS0_14FunctionMockerIS2_EERKSt5tupleIJhhEEPSoSC_
FNDA:0,_ZNK7testing8internal14FunctionMockerIFvP26BLECharacteristicCallbacksEE29FindMatchingExpectationLockedERKSt5tupleIJS3_EE
FNDA:0,_ZN7testing8internal18ActionResultHolderIvE20PerformDefaultActionIFvtsEEEPS2_PKNS0_14FunctionMockerIT_EEONS0_8FunctionIS7_E13ArgumentTupleERKNSt7__cxx1112basic_stringIcSt11char_traitsIcESaIcEEE
FNDA:198,_ZN7testing8internal16TypedExpectationIFihEED0Ev
FNDA:0,_ZNK7testing8internal16TypedExpectationIFvP18BLEServerCallbacksEE21ShouldHandleArgumentsERKSt5tupleIJS3_EE
FNDA:0,_ZNK7testing8internal16TypedExpectationIFstEE15repeated_actionEv
FNDA:0,_ZNK7testing8internal16TypedExpectationIFvP18BLEServerCallbacksP26BLECharacteristicCallbacksEE20ExplainMatchResultToERKSt5tupleIJS3_S5_EEPSo
FNDA:0,_ZN7testing8internal18ActionResultHolderINSt7__cxx1112basic_stringIcSt11char_traitsIcESaIcEEEEC2ENS0_23ReferenceOrValueWrapperIS7_EE
FNDA:0,_ZN7testing8internal14FunctionMockerIFmPKhmEED0Ev
FNDA:16,_ZN7testing8internal14FunctionMockerIFvthEE25ClearDefaultActionsLockedEv
FNDA:194,_ZN7testing8internal23ReferenceOrValueWrapperImE6UnwrapEv
FNDA:0,_ZN7testing8internal14FunctionMockerIFivEE30UntypedFindMatchingExpectationEPKvPS5_PbPSoS8_
FNDA:0,_ZNK7testing8internal14FunctionMockerIFvP18BLEServerCallbacksEE28PrintTriedExpectationsLockedERKSt5tupleIJS3_EEPSo
FNDA:0,_ZNK7testing8internal16TypedExpectationIFvPhmEE15repeated_actionEv
FNDA:0,_ZN7testing8internal18ActionResultHolderIvE20PerformDefaultActionIFvPhmEEEPS2_PKNS0_14FunctionMockerIT_EEONS0_8FunctionIS8_E13ArgumentTupleERKNSt7__cxx1112basic_stringIcSt11char_traitsIcESaIcEEE
FNDA:26,_ZNK7testing8internal14FunctionMockerIFvhEE20PerformDefaultActionEOSt5tupleIJhEERKNSt7__cxx1112basic_stringIcSt11char_traitsIcESaIcEEE
FNDA:719,_ZN7testing8internal15ExpectationBase18IncrementCallCountEv
FNDA:0,_ZNK7testing8internal14FunctionMockerIFmvEE14FindOnCallSpecERKSt5tupleIJEE
FNDA:0,_ZNK7testing8internal16TypedExpectationIFvhhhhEE16GetCurrentActionEPKNS0_14FunctionMockerIS2_EERKSt5tupleIJhhhhEE
FNDA:0,_ZN7testing8internal23ReferenceOrValueWrapperIsEC2Es
FNDA:5,_ZNK7testing8internal14FunctionMockerIFvvEE27UntypedPerformDefaultActionEPvRKNSt7__cxx1112basic_stringIcSt11char_traitsIcESaIcEEE
FNDA:0,_ZNK7testing8internal10OnCallSpecIFvtsEE9GetActionEv
FNDA:0,_ZNK7testing8internal14FunctionMockerIFvPKhmhEE27UntypedPerformDefaultActionEPvRKNSt7__cxx1112basic_stringIcSt11char_traitsIcESaIcEEE
FNDA:1,_ZNK7testing8internal16TypedExpectationIFmhEE15repeated_actionEv
FNDA:10,_ZN7testing8internal14FunctionMockerIFvP18BLEServerCallbacksP26BLECharacteristicCallbacksEEC2Ev
FNDA:0,_ZNK7testing8internal14FunctionMockerIFitEE33FormatUnexpectedCallMessageLockedERKSt5tupleIJtEEPSoS8_
FNDA:0,_ZN7testing8internal18ActionResultHolderIvE13PerformActionIFvPKhmhEEEPS2_RKNS_6ActionIT_EEONS0_8FunctionIS9_E13ArgumentTupleE
FNDA:10,_ZN7testing8internal14FunctionMockerIFvPhmEE25ClearDefaultActionsLockedEv
FNDA:0,_ZNK7testing8internal21UntypedOnCallSpecBase4fileEv
FNDA:1,_ZN7testing8internal14FunctionMockerIFmhEE4WithENS_7MatcherIhEE
FNDA:0,_ZNK7testing8internal16TypedExpectationIFvPhmEE21ShouldHandleArgumentsERKSt5tupleIJS2_mEE
FNDA:0,_ZNK7testing8internal16TypedExpectationIFitEE20ExplainMatchResultToERKSt5tupleIJtEEPSo
FNDA:0,_ZN7testing8internal23ReferenceOrValueWrapperINSt7__cxx1112basic_stringIcSt11char_traitsIcESaIcEEEEC2ES7_
FNDA:0,_ZNK7testing8internal14FunctionMockerIFitEE16UntypedPrintArgsEPKvPSo
FNDA:145,_ZN7testing8internal8MockSpecIFmvEE18InternalExpectedAtEPKciS5_S5_
FNDA:0,_ZNK7testing8internal14FunctionMockerIFvhhEE33FormatUnexpectedCallMessageLockedERKSt5tupleIJhhEEPSoS8_
FNDA:10,_ZNK7testing8internal16TypedExpectationIFvP18BLEServerCallbacksP26BLECharacteristicCallbacksEE15repeated_actionEv
FNDA:0,_ZNK7testing8internal10OnCallSpecIFmhEE9GetActionEv
FNDA:0,_ZNK7testing8internal16TypedExpectationIFvhEE20ExplainMatchResultToERKSt5tupleIJhEEPSo
FNDA:26,_ZNK7testing8internal14FunctionMockerIFvhEE27UntypedPerformDefaultActionEPvRKNSt7__cxx1112basic_stringIcSt11char_traitsIcESaIcEEE
FNDA:0,_ZN7testing8internal14FunctionMockerIFvP18BLEServerCallbacksEED0Ev
FNDA:369,_ZNK7testing8internal15ExpectationBase21cardinality_specifiedEv
FNDA:0,_ZNK7testing8internal14FunctionMockerIFvP18BLEServerCallbacksEE23DescribeDefaultActionToERKSt5tupleIJS3_EEPSo
FNDA:0,_ZN7testing8internal14FunctionMockerIFvhiEE6InvokeEhi
FNDA:1,_ZN7testing8internal14FunctionMockerIFmhEE25ClearDefaultActionsLockedEv
FNDA:10,_ZN7testing8internal14FunctionMockerIFvP18BLEServerCallbacksP26BLECharacteristicCallbacksEE6InvokeES3_S5_
FNDA:26,_ZN7testing8internal8MockSpecIFvhEEC2EPNS0_14FunctionMockerIS2_EERKSt5tupleIJNS_7MatcherIhEEEE
FNDA:1,_ZN7testing8internal8MockSpecIFmhEE18InternalExpectedAtEPKciS5_S5_
FNDA:194,_ZN7testing8internal23ReferenceOrValueWrapperImEC2Em
FNDA:212,_ZN7testing8internal16TypedExpectationIFihEE8WillOnceERKNS_6ActionIS2_EE
FNDA:1,_ZN7testing8internal14FunctionMockerIFmPKhmEE25ClearDefaultActionsLockedEv
FNDA:414,_ZNK7testing8internal16TypedExpectationIFvhhEE7MatchesERKSt5tupleIJhhEE
FNDA:5,_ZN7testing8internal8MockSpecIFvvEEclERKNS0_15WithoutMatchersEPv
FNDA:64,_ZN7testing8internal14FunctionMockerIFvhhhhhEE17AddNewExpectationEPKciRKNSt7__cxx1112basic_stringIcSt11char_traitsIcESaIcEEERKSt5tupleIJNS_7MatcherIhEESG_SG_SG_SG_EE
FNDA:1,_ZNK7testing8internal14FunctionMockerIFmhEE14FindOnCallSpecERKSt5tupleIJhEE
FNDA:2965,_ZNK7testing8internal15ExpectationBase11cardinalityEv
FNDA:4,_ZNK7testing8internal16TypedExpectationIFitEE16GetCurrentActionEPKNS0_14FunctionMockerIS2_EERKSt5tupleIJtEE
FNDA:0,_ZNK7testing8internal10OnCallSpecIFlvEE9GetActionEv
FNDA:0,_ZN7testing8internal18ActionResultHolderIvE20PerformDefaultActionIFvPKhmhEEEPS2_PKNS0_14FunctionMockerIT_EEONS0_8FunctionIS9_E13ArgumentTupleERKNSt7__cxx1112basic_stringIcSt11char_traitsIcESaIcEEE
FNDA:0,_ZNK7testing8internal16TypedExpectationIFvPKhmhEE15repeated_actionEv
FNDA:0,_ZNK7testing8internal16TypedExpectationIFivEE21ShouldHandleArgumentsERKSt5tupleIJEE
FNDA:0,_ZN7testing8internal14FunctionMockerIFvthEE30UntypedFindMatchingExpectationEPKvPS5_PbPSoS8_
FNDA:0,_ZN7testing8internal23ReferenceOrValueWrapperIsE6UnwrapEv
FNDA:4,_ZN7testing8internal16TypedExpectationIFmPKhmEEC2EPNS0_14FunctionMockerIS4_EEPKciRKNSt7__cxx1112basic_stringIcSt11char_traitsIcESaIcEEERKSt5tupleIJNS_7MatcherIS3_EENSK_ImEEEE
FNDA:23,_ZN7testing8internal14FunctionMockerIFvhhhhEE25ClearDefaultActionsLockedEv
FNDA:4,_ZNK7testing8internal14FunctionMockerIFmPKhmEE27UntypedPerformDefaultActionEPvRKNSt7__cxx1112basic_stringIcSt11char_traitsIcESaIcEEE
FNDA:0,_ZNK7testing8internal14FunctionMockerIFvP26BLECharacteristicCallbacksEE23DescribeDefaultActionToERKSt5tupleIJS3_EEPSo
FNDA:0,_ZNK7testing8internal16TypedExpectationIFNSt7__cxx1112basic_stringIcSt11char_traitsIcESaIcEEEvEE20ExplainMatchResultToERKSt5tupleIJEEPSo
FNDA:189,_ZNK7testing8internal14FunctionMockerIFmvEE20UntypedPerformActionEPKvPv
FNDA:0,_ZNK7testing8internal14FunctionMockerIFvtsEE20UntypedPerformActionEPKvPv
FNDA:0,_ZNK7testing8internal14FunctionMockerIFivEE27UntypedPerformDefaultActionEPvRKNSt7__cxx1112basic_stringIcSt11char_traitsIcESaIcEEE
FNDA:0,_ZNK7testing8internal14FunctionMockerIFvP26BLECharacteristicCallbacksEE28PrintTriedExpectationsLockedERKSt5tupleIJS3_EEPSo
FNDA:10,_ZN7testing8internal14FunctionMockerIFvP18BLEServerCallbacksP26BLECharacteristicCallbacksEE4WithENS_7MatcherIS3_EENS8_IS5_EE
FNDA:0,_ZN7testing8internal16TypedExpectationIFlvEE27MaybeDescribeExtraMatcherToEPSo
FNDA:0,_ZN7testing8internal16TypedExpectationIFvhEE27MaybeDescribeExtraMatcherToEPSo
FNDA:17,_ZN7testing8internal18ActionResultHolderIiE20PerformDefaultActionIFihEEEPS2_PKNS0_14FunctionMockerIT_EEONS0_8FunctionIS7_E13ArgumentTupleERKNSt7__cxx1112basic_stringIcSt11char_traitsIcESaIcEEE
FNDA:43,_ZN7testing8internal16TypedExpectationIFmvEE14WillRepeatedlyERKNS_6ActionIS2_EE
FNDA:0,_ZNK7testing8internal16TypedExpectationIFvmEE7MatchesERKSt5tupleIJmEE
FNDA:4,_ZN7testing8internal14FunctionMockerIFitEE4WithENS_7MatcherItEE
FNDA:0,_ZN7testing8internal14FunctionMockerIFvP18BLEServerCallbacksEE30UntypedFindMatchingExpectationEPKvPS7_PbPSoSA_
FNDA:5,_ZN7testing8SequenceC2Ev
FNDA:4,_ZN7testing8internal8MockSpecIFmPKhmEE18InternalExpectedAtEPKciS7_S7_
FNDA:26,_ZNK7testing8internal14FunctionMockerIFvhEE14FindOnCallSpecERKSt5tupleIJhEE
FNDA:145,_ZN7testing8internal16TypedExpectationIFmvEED2Ev
FNDA:0,_ZNK7testing8internal23ReferenceOrValueWrapperIiE4PeekEv
FNDA:295,_ZNK7testing8internal16TypedExpectationIFihEE7MatchesERKSt5tupleIJhEE
FNDA:0,_ZNK7testing8internal14FunctionMockerIFvPKhmhEE32UntypedDescribeUninterestingCallEPKvPSo
FNDA:0,_ZNK7testing8internal14FunctionMockerIFvthEE23DescribeDefaultActionToERKSt5tupleIJthEEPSo
FNDA:0,_ZNK7testing8internal16TypedExpectationIFvhhEE20ExplainMatchResultToERKSt5tupleIJhhEEPSo
FNDA:0,_ZNK7testing8internal14FunctionMockerIF11MIDI_read_tvEE29FindMatchingExpectationLockedERKSt5tupleIJEE
FNDA:3,_ZN7testing8internal14FunctionMockerIFivEE25ClearDefaultActionsLockedEv
FNDA:26,_ZNK7testing8internal16TypedExpectationIFvhEE15repeated_actionEv
FNDA:0,_ZNK7testing8internal14FunctionMockerIFvP18BLEServerCallbacksP26BLECharacteristicCallbacksEE16UntypedPrintArgsEPKvPSo
FNDA:0,_ZNK7testing8internal16TypedExpectationIFNSt7__cxx1112basic_stringIcSt11char_traitsIcESaIcEEEvEE7MatchesERKSt5tupleIJEE
FNDA:43,_ZN7testing8internal16TypedExpectationIFmvEE5TimesEi
FNDA:26,_ZN7testing8internal8MockSpecIFvhEE18InternalExpectedAtEPKciS5_S5_
FNDA:189,_ZNK7testing8internal16TypedExpectationIFmvEE16GetCurrentActionEPKNS0_14FunctionMockerIS2_EERKSt5tupleIJEE
FNDA:23,_ZN7testing8internal14FunctionMockerIFvPKhmhEE25ClearDefaultActionsLockedEv
FNDA:0,_ZN7testing8internal18ActionResultHolderIiE20PerformDefaultActionIFivEEEPS2_PKNS0_14FunctionMockerIT_EEONS0_8FunctionIS7_E13ArgumentTupleERKNSt7__cxx1112basic_stringIcSt11char_traitsIcESaIcEEE
FNDA:23,_ZN7testing8internal14FunctionMockerIFvhhhhEEC2Ev
FNDA:0,_ZNK7testing8internal16TypedExpectationIFstEE20ExplainMatchResultToERKSt5tupleIJtEEPSo
FNDA:194,_ZN7testing8internal18ActionResultHolderImE6UnwrapEv
FNDA:20,_ZN7testing8internal14FunctionMockerIFvvEEC2Ev
FNDA:0,_ZN7testing8internal14FunctionMockerIF11MIDI_read_tvEED0Ev
FNDA:0,_ZN7testing8internal14FunctionMockerIFmvEED0Ev
FNDA:7,_ZN7testing8internal8MockSpecIFlvEEclERKNS0_15WithoutMatchersEPv
FNDA:0,_ZNK7testing8internal18ActionResultHolderIvE19PrintAsActionResultEPSo
FNDA:2021,_ZNK7testing14ExpectationSet3endEv
FNDA:0,_ZNK7testing8internal14FunctionMockerIFmhEE23DescribeDefaultActionToERKSt5tupleIJhEEPSo
FNDA:26,_ZN7testing8internal18ActionResultHolderIvE20PerformDefaultActionIFvhEEEPS2_PKNS0_14FunctionMockerIT_EEONS0_8FunctionIS7_E13ArgumentTupleERKNSt7__cxx1112basic_stringIcSt11char_traitsIcESaIcEEE
FNDA:175,_ZNK7testing8internal14FunctionMockerIFvhhEE29FindMatchingExpectationLockedERKSt5tupleIJhhEE
FNDA:0,_ZN7testing8internal14FunctionMockerIFvthEE6InvokeEth
FNDA:233,_ZN7testing8internal23ReferenceOrValueWrapperIiEC2Ei
FNDA:0,_ZN7testing8internal16TypedExpectationIFmvEE27MaybeDescribeExtraMatcherToEPSo
FNDA:175,_ZNK7testing8internal16TypedExpectationIFvhhEE15repeated_actionEv
FNDA:0,_ZNK7testing8internal14FunctionMockerIFvhhEE16UntypedPrintArgsEPKvPSo
FNDA:66,_ZNK7testing8internal16TypedExpectationIFvhhhhhEE15repeated_actionEv
FNDA:8,_ZN7testing8internal14FunctionMockerIFvhEEC2Ev
FNDA:4,_ZN7testing8internal14FunctionMockerIFmPKhmEE4WithENS_7MatcherIS3_EENS6_ImEE
FNDA:0,_ZNK7testing8internal10OnCallSpecIFNSt7__cxx1112basic_stringIcSt11char_traitsIcESaIcEEEvEE9GetActionEv
FNDA:0,_ZNK7testing8internal16TypedExpectationIFvPKhmhEE20ExplainMatchResultToERKSt5tupleIJS3_mhEEPSo
FNDA:0,_ZNK7testing8internal10OnCallSpecIFmvEE7MatchesERKSt5tupleIJEE
FNDA:113,_ZN7testing8internal14FunctionMockerIFihEE25ClearDefaultActionsLockedEv
FNDA:5,_ZN7testing8internal8MockSpecIFvvEE18InternalExpectedAtEPKciS5_S5_
FNDA:0,_ZN7testing8internal14FunctionMockerIFNSt7__cxx1112basic_stringIcSt11char_traitsIcESaIcEEEvEE30UntypedFindMatchingExpectationEPKvPSB_PbPSoSE_
FNDA:0,_ZN7testing8internal18ActionResultHolderINSt7__cxx1112basic_stringIcSt11char_traitsIcESaIcEEEE6UnwrapEv
FNDA:175,_ZN7testing8internal16TypedExpectationIFvhhEED2Ev
FNDA:0,_ZNK7testing8internal14FunctionMockerIFvmEE20UntypedPerformActionEPKvPv
FNDA:0,_ZNK7testing8internal14FunctionMockerIFihEE33FormatUnexpectedCallMessageLockedERKSt5tupleIJhEEPSoS8_
FNDA:198,_ZN7testing8internal8MockSpecIFihEE18InternalExpectedAtEPKciS5_S5_
FNDA:0,_ZNK7testing8internal16TypedExpectationIFvhiEE21ShouldHandleArgumentsERKSt5tupleIJhiEE
FNDA:4,_ZNK7testing8internal16TypedExpectationIFmPKhmEE15repeated_actionEv
FNDA:229,_ZN7testing8internal16TypedExpectationIFihEE21GetActionForArgumentsEPKNS0_14FunctionMockerIS2_EERKSt5tupleIJhEEPSoSC_
FNDA:0,_ZNK7testing8internal14FunctionMockerIFstEE27UntypedPerformDefaultActionEPvRKNSt7__cxx1112basic_stringIcSt11char_traitsIcESaIcEEE
FNDA:0,_ZNK7testing8internal16TypedExpectationIFvhiEE20ExplainMatchResultToERKSt5tupleIJhiEEPSo
FNDA:1,_ZNK7testing8internal16TypedExpectationIFmhEE21ShouldHandleArgumentsERKSt5tupleIJhEE
FNDA:0,_ZN7testing8internal29UntypedActionResultHolderBaseD0Ev
FNDA:0,_ZN7testing8internal16TypedExpectationIFvmEE21GetActionForArgumentsEPKNS0_14FunctionMockerIS2_EERKSt5tupleIJmEEPSoSC_
FNDA:0,_ZN7testing8internal18ActionResultHolderIvE13PerformActionIFvhhhhEEEPS2_RKNS_6ActionIT_EEONS0_8FunctionIS7_E13ArgumentTupleE
FNDA:0,_ZN7testing8internal14FunctionMockerIFvhhhhEED0Ev
FNDA:719,_ZNK7testing8internal15ExpectationBase11source_textEv
FNDA:0,_ZN7testing8internal16TypedExpectationIFitEE27MaybeDescribeExtraMatcherToEPSo
FNDA:0,_ZNK7testing8internal16TypedExpectationIFvhhhhEE21ShouldHandleArgumentsERKSt5tupleIJhhhhEE
FNDA:5,_ZN7testing8internal16TypedExpectationIFvvEED0Ev
FNDA:10,_ZN7testing8internal14FunctionMockerIFvP26BLECharacteristicCallbacksEEC2Ev
FNDA:2,_ZN7testing8internal14FunctionMockerIFihEED2Ev
FNDA:175,_ZNK7testing8internal16TypedExpectationIFvhhEE16GetCurrentActionEPKNS0_14FunctionMockerIS2_EERKSt5tupleIJhhEE
FNDA:0,_ZNK7testing8internal16TypedExpectationIFvmEE20ExplainMatchResultToERKSt5tupleIJmEEPSo
FNDA:4,_ZN7testing8internal16TypedExpectationIFmPKhmEED2Ev
FNDA:5,_ZN7testing8internal14FunctionMockerIFvvEE4WithEv
FNDA:0,_ZNK7testing8internal14FunctionMockerIFvP18BLEServerCallbacksP26BLECharacteristicCallbacksEE20UntypedPerformActionEPKvPv
FNDA:175,_ZN7testing8internal8MockSpecIFvhhEE18InternalExpectedAtEPKciS5_S5_
FNDA:0,_ZNK7testing8internal16TypedExpectationIFvtsEE7MatchesERKSt5tupleIJtsEE
FNDA:0,_ZNK7testing8internal14FunctionMockerIF11MIDI_read_tvEE32UntypedDescribeUninterestingCallEPKvPSo
FNDA:1,_ZN7testing8internal8MockSpecIFmhEEclERKNS0_15WithoutMatchersEPv
FNDA:0,_ZN7testing8internal18ActionResultHolderIvE20PerformDefaultActionIFvthEEEPS2_PKNS0_14FunctionMockerIT_EEONS0_8FunctionIS7_E13ArgumentTupleERKNSt7__cxx1112basic_stringIcSt11char_traitsIcESaIcEEE
FNDA:4,_ZN7testing8internal16TypedExpectationIFitEE21GetActionForArgumentsEPKNS0_14FunctionMockerIS2_EERKSt5tupleIJtEEPSoSC_
FNDA:0,_ZNK7testing8internal16TypedExpectationIFvPhmEE16GetCurrentActionEPKNS0_14FunctionMockerIS3_EERKSt5tupleIJS2_mEE
FNDA:0,_ZNK7testing8internal14FunctionMockerIFvhhhhEE20PerformDefaultActionEOSt5tupleIJhhhhEERKNSt7__cxx1112basic_stringIcSt11char_traitsIcESaIcEEE
FNDA:0,_ZNK7testing8internal18ActionResultHolderI11MIDI_read_tE19PrintAsActionResultEPSo
FNDA:0,_ZNK7testing8internal14FunctionMockerIFvhhhhEE27UntypedPerformDefaultActionEPvRKNSt7__cxx1112basic_stringIcSt11char_traitsIcESaIcEEE
FNDA:0,_ZN7testing8internal14FunctionMockerIFmvEE6InvokeEv
FNDA:4,_ZN7testing8internal8MockSpecIFmPKhmEEclERKNS0_15WithoutMatchersEPv
FNDA:4,_ZN7testing8internal16TypedExpectationIFitEED2Ev
FNDA:0,_ZNK7testing8internal14FunctionMockerIFvPKhmhEE16UntypedPrintArgsEPKvPSo
FNDA:2,_ZN7testing8internal14FunctionMockerIFmvEED2Ev
FNDA:0,_ZN7testing8internal14FunctionMockerIFNSt7__cxx1112basic_stringIcSt11char_traitsIcESaIcEEEvEE6InvokeEv
FNDA:0,_ZNK7testing8internal15ExpectationBase18DescribeLocationToEPSo
FNDA:0,_ZNK7testing8internal14FunctionMockerIFvPKhmhEE14FindOnCallSpecERKSt5tupleIJS3_mhEE
FNDA:0,_ZNK7testing8internal16TypedExpectationIFvhiEE16GetCurrentActionEPKNS0_14FunctionMockerIS2_EERKSt5tupleIJhiEE
FNDA:0,_ZNK7testing8internal14FunctionMockerIFmPKhmEE33FormatUnexpectedCallMessageLockedERKSt5tupleIJS3_mEEPSoSA_
FNDA:66,_ZNK7testing8internal14FunctionMockerIFvhhhhhEE20PerformDefaultActionEOSt5tupleIJhhhhhEERKNSt7__cxx1112basic_stringIcSt11char_traitsIcESaIcEEE
FNDA:0,_ZNK7testing8internal14FunctionMockerIFvhiEE16UntypedPrintArgsEPKvPSo
FNDA:0,_ZNK7testing8internal10OnCallSpecIFvP18BLEServerCallbacksP26BLECharacteristicCallbacksEE9GetActionEv
FNDA:0,_ZNK7testing8internal10OnCallSpecIFvhhhhEE7MatchesERKSt5tupleIJhhhhEE
FNDA:6,_ZN7testing8internal14FunctionMockerIFlvEEC2Ev
FNDA:0,_ZN7testing8internal16TypedExpectationIFmvEE9GetHandleEv
FNDA:26,_ZN7testing8internal14FunctionMockerIFvhEE4WithENS_7MatcherIhEE
FNDA:0,_ZN7testing8internal18ActionResultHolderINSt7__cxx1112basic_stringIcSt11char_traitsIcESaIcEEEE20PerformDefaultActionIFS7_vEEEPS8_PKNS0_14FunctionMockerIT_EEONS0_8FunctionISD_E13ArgumentTupleERKS7_
FNDA:0,_ZNK7testing8internal10OnCallSpecIFvhiEE7MatchesERKSt5tupleIJhiEE
FNDA:0,_ZN7testing8internal18ActionResultHolderI11MIDI_read_tE20PerformDefaultActionIFS2_vEEEPS3_PKNS0_14FunctionMockerIT_EEONS0_8FunctionIS8_E13ArgumentTupleERKNSt7__cxx1112basic_stringIcSt11char_traitsIcESaIcEEE
FNDA:0,_ZNK7testing8internal14FunctionMockerIFvP26BLECharacteristicCallbacksEE33FormatUnexpectedCallMessageLockedERKSt5tupleIJS3_EEPSoSA_
FNDA:0,_ZNK7testing8internal14FunctionMockerIFstEE14FindOnCallSpecERKSt5tupleIJtEE
FNDA:10,_ZNK7testing8internal16TypedExpectationIFlvEE21ShouldHandleArgumentsERKSt5tupleIJEE
FNDA:1438,_ZNK7testing8internal15ExpectationBase11IsSaturatedEv
FNDA:0,_ZN7testing8internal14FunctionMockerIF11MIDI_read_tvEE30UntypedFindMatchingExpectationEPKvPS6_PbPSoS9_
FNDA:1,_ZN7testing8internal14FunctionMockerIFmhEEC2Ev
FNDA:0,_ZNK7testing8internal14FunctionMockerIFvhhhhEE20UntypedPerformActionEPKvPv
FNDA:0,_ZN7testing8internal14FunctionMockerIFvtsEE6InvokeEts
FNDA:175,_ZN7testing8internal16TypedExpectationIFvhhEEC2EPNS0_14FunctionMockerIS2_EEPKciRKNSt7__cxx1112basic_stringIcSt11char_traitsIcESaIcEEERKSt5tupleIJNS_7MatcherIhEESJ_EE
FNDA:26,_ZN7testing8internal14FunctionMockerIFvhEE30UntypedFindMatchingExpectationEPKvPS5_PbPSoS8_
FNDA:4,_ZN7testing8internal16TypedExpectationIFvhhhhhEE5TimesEi
FNDA:0,_ZN7testing8internal18ActionResultHolderIvE13PerformActionIFvP18BLEServerCallbacksEEEPS2_RKNS_6ActionIT_EEONS0_8FunctionIS9_E13ArgumentTupleE
FNDA:0,_ZNK7testing8internal14FunctionMockerIFstEE16UntypedPrintArgsEPKvPSo
FNDA:1,_ZN7testing8internal14FunctionMockerIFvhiEEC2Ev
FNDA:4,_ZN7testing8internal14FunctionMockerIFitEE6InvokeEt
FNDA:0,_ZNK7testing8internal14FunctionMockerIFvhiEE29FindMatchingExpectationLockedERKSt5tupleIJhiEE
FNDA:0,_ZNK7testing8internal14FunctionMockerIFvPhmEE32UntypedDescribeUninterestingCallEPKvPSo
FNDA:17,_ZNK7testing8internal16TypedExpectationIFihEE15repeated_actionEv
FNDA:0,_ZN7testing8internal16TypedExpectationIFvhhEE27MaybeDescribeExtraMatcherToEPSo
FNDA:0,_ZNK7testing8internal14FunctionMockerIFNSt7__cxx1112basic_stringIcSt11char_traitsIcESaIcEEEvEE33FormatUnexpectedCallMessageLockedERKSt5tupleIJEEPSoSE_
FNDA:5,_ZN7testing8internal8MockSpecIFvvEEC2EPNS0_14FunctionMockerIS2_EERKSt5tupleIJEE
FNDA:0,_ZNK7testing8internal14FunctionMockerIFmhEE32UntypedDescribeUninterestingCallEPKvPSo
FNDA:0,_ZN7testing8internal18ActionResultHolderIiE13PerformActionIFivEEEPS2_RKNS_6ActionIT_EEONS0_8FunctionIS7_E13ArgumentTupleE
FNDA:66,_ZNK7testing8internal16TypedExpectationIFvhhhhhEE16GetCurrentActionEPKNS0_14FunctionMockerIS2_EERKSt5tupleIJhhhhhEE
FNDA:0,_ZNK7testing8internal16TypedExpectationIFvhiEE15repeated_actionEv
FNDA:0,_ZNK7testing8internal23ReferenceOrValueWrapperI11MIDI_read_tE4PeekEv
FNDA:0,_ZNK7testing8internal14FunctionMockerIFNSt7__cxx1112basic_stringIcSt11char_traitsIcESaIcEEEvEE32UntypedDescribeUninterestingCallEPKvPSo
FNDA:1,_ZNK7testing8internal14FunctionMockerIFmhEE20PerformDefaultActionEOSt5tupleIJhEERKNSt7__cxx1112basic_stringIcSt11char_traitsIcESaIcEEE
FNDA:26,_ZN7testing8internal14FunctionMockerIFvhEE6InvokeEh
FNDA:0,_ZNK7testing8internal16TypedExpectationIFmvEE20ExplainMatchResultToERKSt5tupleIJEEPSo
FNDA:0,_ZNK7testing8internal14FunctionMockerIFvPhmEE27UntypedPerformDefaultActionEPvRKNSt7__cxx1112basic_stringIcSt11char_traitsIcESaIcEEE
FNDA:0,_ZN7testing8internal16TypedExpectationIFvthEE21GetActionForArgumentsEPKNS0_14FunctionMockerIS2_EERKSt5tupleIJthEEPSoSC_
FNDA:0,_ZN7testing8internal16TypedExpectationIFvvEE9GetHandleEv
FNDA:0,_ZN7testing8internal14FunctionMockerIFvPKhmhEE6InvokeES3_mh
FNDA:0,_ZNK7testing8internal16TypedExpectationIFvthEE21ShouldHandleArgumentsERKSt5tupleIJthEE
FNDA:0,_ZNK7testing8internal16TypedExpectationIFvP18BLEServerCallbacksEE16GetCurrentActionEPKNS0_14FunctionMockerIS4_EERKSt5tupleIJS3_EE
FNDA:0,_ZNK7testing8internal14FunctionMockerIFNSt7__cxx1112basic_stringIcSt11char_traitsIcESaIcEEEvEE20PerformDefaultActionEOSt5tupleIJEERKS7_
FNDA:0,_ZNK7testing8internal14FunctionMockerIFivEE29FindMatchingExpectationLockedERKSt5tupleIJEE
FNDA:10,_ZN7testing8internal8MockSpecIFvP18BLEServerCallbacksP26BLECharacteristicCallbacksEEclERKNS0_15WithoutMatchersEPv
FNDA:4,_ZNK7testing8internal14FunctionMockerIFitEE14FindOnCallSpecERKSt5tupleIJtEE
FNDA:0,_ZNK7testing8internal16TypedExpectationIFstEE21ShouldHandleArgumentsERKSt5tupleIJtEE
FNDA:0,_ZN7testing8internal16TypedExpectationIFvP26BLECharacteristicCallbacksEE21GetActionForArgumentsEPKNS0_14FunctionMockerIS4_EERKSt5tupleIJS3_EEPSoSE_
FNDA:0,_ZNK7testing8internal16TypedExpectationIFvP26BLECharacteristicCallbacksEE7MatchesERKSt5tupleIJS3_EE
FNDA:16,_ZN7testing8internal14FunctionMockerIFvthEEC2Ev
FNDA:0,_ZNK7testing8internal14FunctionMockerIF11MIDI_read_tvEE28PrintTriedExpectationsLockedERKSt5tupleIJEEPSo
FNDA:0,_ZNK7testing8internal14FunctionMockerIFmvEE28PrintTriedExpectationsLockedERKSt5tupleIJEEPSo
FNDA:0,_ZNK7testing8internal16TypedExpectationIFivEE7MatchesERKSt5tupleIJEE
FNDA:0,_ZNK7testing8internal10OnCallSpecIFstEE9GetActionEv
FNDA:4,_ZNK7testing8internal16TypedExpectationIFitEE21ShouldHandleArgumentsERKSt5tupleIJtEE
FNDA:0,_ZN7testing8internal14FunctionMockerIFvvEED0Ev
FNDA:0,_ZN7testing8internal14FunctionMockerIFvhhEE6InvokeEhh
FNDA:8,_ZN7testing8internal14FunctionMockerIFitEEC2Ev
FNDA:0,_ZNK7testing8internal14FunctionMockerIFvmEE16UntypedPrintArgsEPKvPSo
FNDA:0,_ZN7testing8internal14FunctionMockerIFihEED0Ev
FNDA:719,_ZN7testing8internal29UntypedActionResultHolderBaseD2Ev
FNDA:0,_ZNK7testing8internal16TypedExpectationIFvhhhhEE7MatchesERKSt5tupleIJhhhhEE
FNDA:0,_ZNK7testing8internal10OnCallSpecIFvhhhhEE9GetActionEv
FNDA:0,_ZNK7testing8internal14FunctionMockerIFvhEE32UntypedDescribeUninterestingCallEPKvPSo
FNDA:0,_ZNK7testing8internal14FunctionMockerIFivEE33FormatUnexpectedCallMessageLockedERKSt5tupleIJEEPSoS8_
FNDA:0,_ZNK7testing8internal16TypedExpectationIFvhiEE7MatchesERKSt5tupleIJhiEE
FNDA:0,_ZNK7testing8internal14FunctionMockerIFlvEE28PrintTriedExpectationsLockedERKSt5tupleIJEEPSo
FNDA:0,_ZNK7testing8internal14FunctionMockerIFvtsEE23DescribeDefaultActionToERKSt5tupleIJtsEEPSo
FNDA:0,_ZNK7testing8internal14FunctionMockerIFvPKhmhEE28PrintTriedExpectationsLockedERKSt5tupleIJS3_mhEEPSo
FNDA:0,_ZNK7testing8internal14FunctionMockerIFstEE33FormatUnexpectedCallMessageLockedERKSt5tupleIJtEEPSoS8_
FNDA:0,_ZNK7testing8internal16TypedExpectationIFvP18BLEServerCallbacksEE20ExplainMatchResultToERKSt5tupleIJS3_EEPSo
FNDA:175,_ZN7testing8internal8MockSpecIFvhhEEclERKNS0_15WithoutMatchersEPv
FNDA:0,_ZNK7testing8internal10OnCallSpecIFitEE7MatchesERKSt5tupleIJtEE
FNDA:0,_ZN7testing8internal14FunctionMockerIFlvEED0Ev
FNDA:0,_ZNK7testing8internal14FunctionMockerIFvhhhhEE16UntypedPrintArgsEPKvPSo
FNDA:1,_ZN7testing8internal14FunctionMockerIFmhEE30UntypedFindMatchingExpectationEPKvPS5_PbPSoS8_
FNDA:0,_ZNK7testing8internal14FunctionMockerIF11MIDI_read_tvEE16UntypedPrintArgsEPKvPSo
FNDA:189,_ZN7testing8internal14FunctionMockerIFmvEE30UntypedFindMatchingExpectationEPKvPS5_PbPSoS8_
FNDA:1891,_ZNK7testing14ExpectationSet5beginEv
FNDA:10,_ZNK7testing8internal14FunctionMockerIFvP18BLEServerCallbacksP26BLECharacteristicCallbacksEE14FindOnCallSpecERKSt5tupleIJS3_S5_EE
FNDA:0,_ZNK7testing8internal14FunctionMockerIFivEE32UntypedDescribeUninterestingCallEPKvPSo
FNDA:0,_ZN7testing8internal14FunctionMockerIFvtsEED0Ev
FNDA:10,_ZN7testing8internal18ActionResultHolderIlE6UnwrapEv
FNDA:462,_ZNK7testing8internal15ExpectationBase18ExpectSpecPropertyEbRKNSt7__cxx1112basic_stringIcSt11char_traitsIcESaIcEEE
FNDA:0,_ZNK7testing8internal10OnCallSpecIFvPKhmhEE9GetActionEv
FNDA:0,_ZNK7testing8internal16TypedExpectationIFvP18BLEServerCallbacksEE15repeated_actionEv
FNF:808
FNH:326
DA:257,0
DA:258,0
DA:271,0
DA:273,0
DA:274,0
DA:334,0
DA:335,0
DA:339,0
DA:340,0
DA:343,0
DA:550,193
DA:551,193
DA:580,639
DA:616,1891
DA:617,2021
DA:630,5
DA:703,0
DA:704,0
DA:705,719
DA:707,2965
DA:710,0
DA:711,0
DA:712,0
DA:752,462
DA:754,462
DA:755,462
DA:763,369
DA:766,289
DA:767,289
DA:768,289
DA:779,1813
DA:781,1813
DA:782,1813
DA:786,18
DA:788,18
DA:789,18
DA:790,18
DA:800,1438
DA:802,1438
DA:803,1438
DA:822,719
DA:824,719
DA:825,719
DA:829,719
DA:831,719
DA:832,719
DA:833,719
DA:890,639
DA:900,639
DA:902,1278
DA:905,639
DA:906,965
DA:907,1291
DA:908,326
DA:910,1917
DA:913,4
DA:914,4
DA:915,0
DA:919,4
DA:923,4
DA:925,4
DA:926,4
DA:927,4
DA:931,66
DA:932,66
DA:933,66
DA:937,66
DA:938,66
DA:942,23
DA:943,23
DA:947,23
DA:949,23
DA:950,23
DA:1000,326
DA:1001,326
DA:1004,326
DA:1006,326
DA:1007,326
DA:1008,289
DA:1010,326
DA:1014,43
DA:1015,43
DA:1016,0
DA:1020,43
DA:1024,43
DA:1025,43
DA:1027,43
DA:1028,43
DA:1029,0
DA:1034,43
DA:1035,43
DA:1064,393
DA:1068,0
DA:1069,0
DA:1070,0
DA:1071,0
DA:1072,0
DA:1074,0
DA:1082,23
DA:1089,1037
DA:1091,1037
DA:1092,1037
DA:1096,1059
DA:1098,1059
DA:1104,1059
DA:1105,1059
DA:1110,0
DA:1114,0
DA:1116,0
DA:1118,0
DA:1119,0
DA:1120,0
DA:1121,0
DA:1123,0
DA:1124,0
DA:1125,0
DA:1126,0
DA:1127,0
DA:1129,0
DA:1130,0
DA:1132,0
DA:1135,0
DA:1136,0
DA:1137,0
DA:1138,0
DA:1139,0
DA:1140,0
DA:1141,0
DA:1142,0
DA:1144,0
DA:1150,0
DA:1152,0
DA:1155,719
DA:1158,719
DA:1159,719
DA:1160,719
DA:1164,719
DA:1165,719
DA:1169,0
DA:1170,0
DA:1172,0
DA:1174,0
DA:1175,0
DA:1176,0
DA:1180,1045
DA:1181,326
DA:1182,719
DA:1192,719
DA:1197,719
DA:1198,719
DA:1200,0
DA:1201,0
DA:1202,0
DA:1203,0
DA:1205,0
DA:1208,719
DA:1209,719
DA:1211,719
DA:1212,0
DA:1216,719
DA:1217,719
DA:1254,639
DA:1256,639
DA:1269,639
DA:1271,1278
DA:1273,639
DA:1274,639
DA:1275,1278
DA:1281,639
DA:1282,639
DA:1310,437
DA:1311,437
DA:1312,437
DA:1317,437
DA:1323,0
DA:1324,0
DA:1365,719
DA:1376,437
DA:1377,437
DA:1381,0
DA:1382,0
DA:1384,0
DA:1385,0
DA:1390,26
DA:1394,26
DA:1395,52
DA:1401,411
DA:1403,411
DA:1404,822
DA:1410,437
DA:1411,437
DA:1412,437
DA:1423,282
DA:1425,0
DA:1430,282
DA:1434,282
DA:1435,282
DA:1441,0
DA:1443,0
DA:1444,0
DA:1448,282
DA:1464,229
DA:1484,229
DA:1485,229
DA:1486,229
DA:1487,229
DA:1488,229
DA:1489,458
DA:1494,308
DA:1496,308
DA:1498,308
DA:1499,0
DA:1500,0
DA:1501,0
DA:1504,308
DA:1514,308
DA:1516,308
DA:1518,308
DA:1519,0
DA:1521,616
DA:1526,308
DA:1527,0
DA:1532,308
DA:1540,308
DA:1543,308
DA:1544,308
DA:1545,308
DA:1552,411
DA:1556,822
DA:1557,411
DA:1558,822
DA:1563,504
DA:1565,504
DA:1574,1008
DA:1575,504
DA:1577,504
DA:1578,504
DA:1579,1008
DA:1580,504
DA:1581,0
DA:1586,504
DA:1587,504
DA:1592,719
DA:1593,515
DA:1594,1001
DA:1596,1438
DA:1599,639
DA:1600,639
DA:1621,639
DA:1625,639
DA:1626,639
DA:1627,639
DA:1628,639
DA:1631,639
DA:1634,639
DA:1635,639
DA:1636,0
DA:1639,1278
DA:1650,0
DA:1652,0
DA:1654,0
DA:1655,0
DA:1660,0
DA:1662,0
DA:1667,0
DA:1670,0
DA:1672,0
DA:1673,0
DA:1674,0
DA:1675,0
DA:1676,0
DA:1694,719
DA:1698,719
DA:1700,1438
DA:1701,719
DA:1702,719
DA:1703,0
DA:1704,0
DA:1710,719
DA:1711,719
DA:1712,719
DA:1713,308
DA:1714,719
DA:1715,719
DA:1719,0
DA:1721,0
DA:1723,0
DA:1724,0
DA:1728,719
DA:1731,719
DA:1734,1059
DA:1736,1399
DA:1738,1059
DA:1739,1059
DA:1740,719
DA:1743,0
DA:1747,0
DA:1752,0
DA:1753,0
DA:1754,0
DA:1755,0
DA:1756,0
DA:1760,0
DA:1764,0
DA:1765,0
DA:1766,0
DA:1769,0
DA:1770,0
DA:1772,0
DA:1773,0
DA:1774,0
DA:1775,0
DA:1776,0
DA:1778,0
DA:1779,0
DA:1780,0
DA:1782,0
LF:317
LH:197
end_of_record
TN:
SF:/home/pieter/GitHub/Control-Surface/build/googletest/googletest-src/googlemock/include/gmock/internal/gmock-internal-utils.h
FN:285,_ZN7testing8internal6AssertEbPKciRKNSt7__cxx1112basic_stringIcSt11char_traitsIcESaIcEEE
FN:298,_ZN7testing8internal6ExpectEbPKciRKNSt7__cxx1112basic_stringIcSt11char_traitsIcESaIcEEE
FN:469,_ZN7testing8internal16StlContainerViewISt5tupleIJPKhmEEE14ConstReferenceERKS5_
FN:518,_ZN7testing8internal9ApplyImplIRKSt8functionIF11MIDI_read_tvEESt5tupleIJEEJEEEDTclcl7forwardIT_Efp_Espcl3getIXT1_EEcl7forwardIT0_Efp0_EEEEOSA_OSB_NS0_8int_packIJXspT1_EEEE
FN:518,_ZN7testing8internal9ApplyImplIRKSt8functionIFvhhhhhEESt5tupleIJhhhhhEEJLm0ELm1ELm2ELm3ELm4EEEEDTclcl7forwardIT_Efp_Espcl3getIXT1_EEcl7forwardIT0_Efp0_EEEEOS9_OSA_NS0_8int_packIJXspT1_EEEE
FN:518,_ZN7testing8internal9ApplyImplIRKSt8functionIFvP18BLEServerCallbacksP26BLECharacteristicCallbacksEESt5tupleIJS4_S6_EEJLm0ELm1EEEEDTclcl7forwardIT_Efp_Espcl3getIXT1_EEcl7forwardIT0_Efp0_EEEEOSD_OSE_NS0_8int_packIJXspT1_EEEE
FN:518,_ZN7testing8internal9ApplyImplIRKSt8functionIFitEESt5tupleIJtEEJLm0EEEEDTclcl7forwardIT_Efp_Espcl3getIXT1_EEcl7forwardIT0_Efp0_EEEEOS9_OSA_NS0_8int_packIJXspT1_EEEE
FN:518,_ZN7testing8internal9ApplyImplIRKSt8functionIFlvEESt5tupleIJEEJEEEDTclcl7forwardIT_Efp_Espcl3getIXT1_EEcl7forwardIT0_Efp0_EEEEOS9_OSA_NS0_8int_packIJXspT1_EEEE
FN:518,_ZN7testing8internal9ApplyImplIRKSt8functionIFmvEESt5tupleIJEEJEEEDTclcl7forwardIT_Efp_Espcl3getIXT1_EEcl7forwardIT0_Efp0_EEEEOS9_OSA_NS0_8int_packIJXspT1_EEEE
FN:518,_ZN7testing8internal9ApplyImplIRKSt8functionIFmPKhmEESt5tupleIJS4_mEEJLm0ELm1EEEEDTclcl7forwardIT_Efp_Espcl3getIXT1_EEcl7forwardIT0_Efp0_EEEEOSB_OSC_NS0_8int_packIJXspT1_EEEE
FN:518,_ZN7testing8internal9ApplyImplIRKSt8functionIFmhEESt5tupleIJhEEJLm0EEEEDTclcl7forwardIT_Efp_Espcl3getIXT1_EEcl7forwardIT0_Efp0_EEEEOS9_OSA_NS0_8int_packIJXspT1_EEEE
FN:518,_ZN7testing8internal9ApplyImplIRKSt8functionIFvP26BLECharacteristicCallbacksEESt5tupleIJS4_EEJLm0EEEEDTclcl7forwardIT_Efp_Espcl3getIXT1_EEcl7forwardIT0_Efp0_EEEEOSB_OSC_NS0_8int_packIJXspT1_EEEE
FN:518,_ZN7testing8internal9ApplyImplIRKSt8functionIFvP18BLEServerCallbacksEESt5tupleIJS4_EEJLm0EEEEDTclcl7forwardIT_Efp_Espcl3getIXT1_EEcl7forwardIT0_Efp0_EEEEOSB_OSC_NS0_8int_packIJXspT1_EEEE
FN:518,_ZN7testing8internal9ApplyImplIRKSt8functionIFvvEESt5tupleIJEEJEEEDTclcl7forwardIT_Efp_Espcl3getIXT1_EEcl7forwardIT0_Efp0_EEEEOS9_OSA_NS0_8int_packIJXspT1_EEEE
FN:518,_ZN7testing8internal9ApplyImplIRKSt8functionIFvPKhmhEESt5tupleIJS4_mhEEJLm0ELm1ELm2EEEEDTclcl7forwardIT_Efp_Espcl3getIXT1_EEcl7forwardIT0_Efp0_EEEEOSB_OSC_NS0_8int_packIJXspT1_EEEE
FN:518,_ZN7testing8internal9ApplyImplIRKSt8functionIFvPhmEESt5tupleIJS3_mEEJLm0ELm1EEEEDTclcl7forwardIT_Efp_Espcl3getIXT1_EEcl7forwardIT0_Efp0_EEEEOSA_OSB_NS0_8int_packIJXspT1_EEEE
FN:518,_ZN7testing8internal9ApplyImplIRKSt8functionIFvhhEESt5tupleIJhhEEJLm0ELm1EEEEDTclcl7forwardIT_Efp_Espcl3getIXT1_EEcl7forwardIT0_Efp0_EEEEOS9_OSA_NS0_8int_packIJXspT1_EEEE
FN:518,_ZN7testing8internal9ApplyImplIRKSt8functionIFvtsEESt5tupleIJtsEEJLm0ELm1EEEEDTclcl7forwardIT_Efp_Espcl3getIXT1_EEcl7forwardIT0_Efp0_EEEEOS9_OSA_NS0_8int_packIJXspT1_EEEE
FN:518,_ZN7testing8internal9ApplyImplIRKSt8functionIFvthEESt5tupleIJthEEJLm0ELm1EEEEDTclcl7forwardIT_Efp_Espcl3getIXT1_EEcl7forwardIT0_Efp0_EEEEOS9_OSA_NS0_8int_packIJXspT1_EEEE
FN:518,_ZN7testing8internal9ApplyImplIRKSt8functionIFihEESt5tupleIJhEEJLm0EEEEDTclcl7forwardIT_Efp_Espcl3getIXT1_EEcl7forwardIT0_Efp0_EEEEOS9_OSA_NS0_8int_packIJXspT1_EEEE
FN:518,_ZN7testing8internal9ApplyImplIRKSt8functionIFvhEESt5tupleIJhEEJLm0EEEEDTclcl7forwardIT_Efp_Espcl3getIXT1_EEcl7forwardIT0_Efp0_EEEEOS9_OSA_NS0_8int_packIJXspT1_EEEE
FN:518,_ZN7testing8internal9ApplyImplIRKSt8functionIFNSt7__cxx1112basic_stringIcSt11char_traitsIcESaIcEEEvEESt5tupleIJEEJEEEDTclcl7forwardIT_Efp_Espcl3getIXT1_EEcl7forwardIT0_Efp0_EEEEOSF_OSG_NS0_8int_packIJXspT1_EEEE
FN:518,_ZN7testing8internal9ApplyImplIRKSt8functionIFvhhhhEESt5tupleIJhhhhEEJLm0ELm1ELm2ELm3EEEEDTclcl7forwardIT_Efp_Espcl3getIXT1_EEcl7forwardIT0_Efp0_EEEEOS9_OSA_NS0_8int_packIJXspT1_EEEE
FN:518,_ZN7testing8internal9ApplyImplIRKSt8functionIFvhiEESt5tupleIJhiEEJLm0ELm1EEEEDTclcl7forwardIT_Efp_Espcl3getIXT1_EEcl7forwardIT0_Efp0_EEEEOS9_OSA_NS0_8int_packIJXspT1_EEEE
FN:518,_ZN7testing8internal9ApplyImplIRKSt8functionIFstEESt5tupleIJtEEJLm0EEEEDTclcl7forwardIT_Efp_Espcl3getIXT1_EEcl7forwardIT0_Efp0_EEEEOS9_OSA_NS0_8int_packIJXspT1_EEEE
FN:518,_ZN7testing8internal9ApplyImplIRKSt8functionIFvmEESt5tupleIJmEEJLm0EEEEDTclcl7forwardIT_Efp_Espcl3getIXT1_EEcl7forwardIT0_Efp0_EEEEOS9_OSA_NS0_8int_packIJXspT1_EEEE
FN:518,_ZN7testing8internal9ApplyImplIRKSt8functionIFivEESt5tupleIJEEJEEEDTclcl7forwardIT_Efp_Espcl3getIXT1_EEcl7forwardIT0_Efp0_EEEEOS9_OSA_NS0_8int_packIJXspT1_EEEE
FN:525,_ZN7testing8internal5ApplyIRKSt8functionIFivEESt5tupleIJEEEEDTcl9ApplyImplcl7forwardIT_Efp_Ecl7forwardIT0_Efp0_EcvNS0_13make_int_packIXsrSt10tuple_sizeISA_E5valueEEE_EEEOS9_OSA_
FN:525,_ZN7testing8internal5ApplyIRKSt8functionIFvhiEESt5tupleIJhiEEEEDTcl9ApplyImplcl7forwardIT_Efp_Ecl7forwardIT0_Efp0_EcvNS0_13make_int_packIXsrSt10tuple_sizeISA_E5valueEEE_EEEOS9_OSA_
FN:525,_ZN7testing8internal5ApplyIRKSt8functionIFvP18BLEServerCallbacksEESt5tupleIJS4_EEEEDTcl9ApplyImplcl7forwardIT_Efp_Ecl7forwardIT0_Efp0_EcvNS0_13make_int_packIXsrSt10tuple_sizeISC_E5valueEEE_EEEOSB_OSC_
FN:525,_ZN7testing8internal5ApplyIRKSt8functionIFvP26BLECharacteristicCallbacksEESt5tupleIJS4_EEEEDTcl9ApplyImplcl7forwardIT_Efp_Ecl7forwardIT0_Efp0_EcvNS0_13make_int_packIXsrSt10tuple_sizeISC_E5valueEEE_EEEOSB_OSC_
FN:525,_ZN7testing8internal5ApplyIRKSt8functionIF11MIDI_read_tvEESt5tupleIJEEEEDTcl9ApplyImplcl7forwardIT_Efp_Ecl7forwardIT0_Efp0_EcvNS0_13make_int_packIXsrSt10tuple_sizeISB_E5valueEEE_EEEOSA_OSB_
FN:525,_ZN7testing8internal5ApplyIRKSt8functionIFvthEESt5tupleIJthEEEEDTcl9ApplyImplcl7forwardIT_Efp_Ecl7forwardIT0_Efp0_EcvNS0_13make_int_packIXsrSt10tuple_sizeISA_E5valueEEE_EEEOS9_OSA_
FN:525,_ZN7testing8internal5ApplyIRKSt8functionIFitEESt5tupleIJtEEEEDTcl9ApplyImplcl7forwardIT_Efp_Ecl7forwardIT0_Efp0_EcvNS0_13make_int_packIXsrSt10tuple_sizeISA_E5valueEEE_EEEOS9_OSA_
FN:525,_ZN7testing8internal5ApplyIRKSt8functionIFvhhEESt5tupleIJhhEEEEDTcl9ApplyImplcl7forwardIT_Efp_Ecl7forwardIT0_Efp0_EcvNS0_13make_int_packIXsrSt10tuple_sizeISA_E5valueEEE_EEEOS9_OSA_
FN:525,_ZN7testing8internal5ApplyIRKSt8functionIFvvEESt5tupleIJEEEEDTcl9ApplyImplcl7forwardIT_Efp_Ecl7forwardIT0_Efp0_EcvNS0_13make_int_packIXsrSt10tuple_sizeISA_E5valueEEE_EEEOS9_OSA_
FN:525,_ZN7testing8internal5ApplyIRKSt8functionIFvPKhmhEESt5tupleIJS4_mhEEEEDTcl9ApplyImplcl7forwardIT_Efp_Ecl7forwardIT0_Efp0_EcvNS0_13make_int_packIXsrSt10tuple_sizeISC_E5valueEEE_EEEOSB_OSC_
FN:525,_ZN7testing8internal5ApplyIRKSt8functionIFvtsEESt5tupleIJtsEEEEDTcl9ApplyImplcl7forwardIT_Efp_Ecl7forwardIT0_Efp0_EcvNS0_13make_int_packIXsrSt10tuple_sizeISA_E5valueEEE_EEEOS9_OSA_
FN:525,_ZN7testing8internal5ApplyIRKSt8functionIFvhhhhhEESt5tupleIJhhhhhEEEEDTcl9ApplyImplcl7forwardIT_Efp_Ecl7forwardIT0_Efp0_EcvNS0_13make_int_packIXsrSt10tuple_sizeISA_E5valueEEE_EEEOS9_OSA_
FN:525,_ZN7testing8internal5ApplyIRKSt8functionIFvPhmEESt5tupleIJS3_mEEEEDTcl9ApplyImplcl7forwardIT_Efp_Ecl7forwardIT0_Efp0_EcvNS0_13make_int_packIXsrSt10tuple_sizeISB_E5valueEEE_EEEOSA_OSB_
FN:525,_ZN7testing8internal5ApplyIRKSt8functionIFmvEESt5tupleIJEEEEDTcl9ApplyImplcl7forwardIT_Efp_Ecl7forwardIT0_Efp0_EcvNS0_13make_int_packIXsrSt10tuple_sizeISA_E5valueEEE_EEEOS9_OSA_
FN:525,_ZN7testing8internal5ApplyIRKSt8functionIFmhEESt5tupleIJhEEEEDTcl9ApplyImplcl7forwardIT_Efp_Ecl7forwardIT0_Efp0_EcvNS0_13make_int_packIXsrSt10tuple_sizeISA_E5valueEEE_EEEOS9_OSA_
FN:525,_ZN7testing8internal5ApplyIRKSt8functionIFvP18BLEServerCallbacksP26BLECharacteristicCallbacksEESt5tupleIJS4_S6_EEEEDTcl9ApplyImplcl7forwardIT_Efp_Ecl7forwardIT0_Efp0_EcvNS0_13make_int_packIXsrSt10tuple_sizeISE_E5valueEEE_EEEOSD_OSE_
FN:525,_ZN7testing8internal5ApplyIRKSt8functionIFstEESt5tupleIJtEEEEDTcl9ApplyImplcl7forwardIT_Efp_Ecl7forwardIT0_Efp0_EcvNS0_13make_int_packIXsrSt10tuple_sizeISA_E5valueEEE_EEEOS9_OSA_
FN:525,_ZN7testing8internal5ApplyIRKSt8functionIFlvEESt5tupleIJEEEEDTcl9ApplyImplcl7forwardIT_Efp_Ecl7forwardIT0_Efp0_EcvNS0_13make_int_packIXsrSt10tuple_sizeISA_E5valueEEE_EEEOS9_OSA_
FN:525,_ZN7testing8internal5ApplyIRKSt8functionIFvmEESt5tupleIJmEEEEDTcl9ApplyImplcl7forwardIT_Efp_Ecl7forwardIT0_Efp0_EcvNS0_13make_int_packIXsrSt10tuple_sizeISA_E5valueEEE_EEEOS9_OSA_
FN:525,_ZN7testing8internal5ApplyIRKSt8functionIFvhEESt5tupleIJhEEEEDTcl9ApplyImplcl7forwardIT_Efp_Ecl7forwardIT0_Efp0_EcvNS0_13make_int_packIXsrSt10tuple_sizeISA_E5valueEEE_EEEOS9_OSA_
FN:525,_ZN7testing8internal5ApplyIRKSt8functionIFvhhhhEESt5tupleIJhhhhEEEEDTcl9ApplyImplcl7forwardIT_Efp_Ecl7forwardIT0_Efp0_EcvNS0_13make_int_packIXsrSt10tuple_sizeISA_E5valueEEE_EEEOS9_OSA_
FN:525,_ZN7testing8internal5ApplyIRKSt8functionIFihEESt5tupleIJhEEEEDTcl9ApplyImplcl7forwardIT_Efp_Ecl7forwardIT0_Efp0_EcvNS0_13make_int_packIXsrSt10tuple_sizeISA_E5valueEEE_EEEOS9_OSA_
FN:525,_ZN7testing8internal5ApplyIRKSt8functionIFNSt7__cxx1112basic_stringIcSt11char_traitsIcESaIcEEEvEESt5tupleIJEEEEDTcl9ApplyImplcl7forwardIT_Efp_Ecl7forwardIT0_Efp0_EcvNS0_13make_int_packIXsrSt10tuple_sizeISG_E5valueEEE_EEEOSF_OSG_
FN:525,_ZN7testing8internal5ApplyIRKSt8functionIFmPKhmEESt5tupleIJS4_mEEEEDTcl9ApplyImplcl7forwardIT_Efp_Ecl7forwardIT0_Efp0_EcvNS0_13make_int_packIXsrSt10tuple_sizeISC_E5valueEEE_EEEOSB_OSC_
FNDA:0,_ZN7testing8internal9ApplyImplIRKSt8functionIFivEESt5tupleIJEEJEEEDTclcl7forwardIT_Efp_Espcl3getIXT1_EEcl7forwardIT0_Efp0_EEEEOS9_OSA_NS0_8int_packIJXspT1_EEEE
FNDA:0,_ZN7testing8internal5ApplyIRKSt8functionIFmPKhmEESt5tupleIJS4_mEEEEDTcl9ApplyImplcl7forwardIT_Efp_Ecl7forwardIT0_Efp0_EcvNS0_13make_int_packIXsrSt10tuple_sizeISC_E5valueEEE_EEEOSB_OSC_
FNDA:0,_ZN7testing8internal9ApplyImplIRKSt8functionIFvmEESt5tupleIJmEEJLm0EEEEDTclcl7forwardIT_Efp_Espcl3getIXT1_EEcl7forwardIT0_Efp0_EEEEOS9_OSA_NS0_8int_packIJXspT1_EEEE
FNDA:0,_ZN7testing8internal9ApplyImplIRKSt8functionIFstEESt5tupleIJtEEJLm0EEEEDTclcl7forwardIT_Efp_Espcl3getIXT1_EEcl7forwardIT0_Efp0_EEEEOS9_OSA_NS0_8int_packIJXspT1_EEEE
FNDA:0,_ZN7testing8internal5ApplyIRKSt8functionIFihEESt5tupleIJhEEEEDTcl9ApplyImplcl7forwardIT_Efp_Ecl7forwardIT0_Efp0_EcvNS0_13make_int_packIXsrSt10tuple_sizeISA_E5valueEEE_EEEOS9_OSA_
FNDA:0,_ZN7testing8internal5ApplyIRKSt8functionIFNSt7__cxx1112basic_stringIcSt11char_traitsIcESaIcEEEvEESt5tupleIJEEEEDTcl9ApplyImplcl7forwardIT_Efp_Ecl7forwardIT0_Efp0_EcvNS0_13make_int_packIXsrSt10tuple_sizeISG_E5valueEEE_EEEOSF_OSG_
FNDA:0,_ZN7testing8internal5ApplyIRKSt8functionIFvhEESt5tupleIJhEEEEDTcl9ApplyImplcl7forwardIT_Efp_Ecl7forwardIT0_Efp0_EcvNS0_13make_int_packIXsrSt10tuple_sizeISA_E5valueEEE_EEEOS9_OSA_
FNDA:0,_ZN7testing8internal5ApplyIRKSt8functionIFvhhhhEESt5tupleIJhhhhEEEEDTcl9ApplyImplcl7forwardIT_Efp_Ecl7forwardIT0_Efp0_EcvNS0_13make_int_packIXsrSt10tuple_sizeISA_E5valueEEE_EEEOS9_OSA_
FNDA:0,_ZN7testing8internal9ApplyImplIRKSt8functionIFNSt7__cxx1112basic_stringIcSt11char_traitsIcESaIcEEEvEESt5tupleIJEEJEEEDTclcl7forwardIT_Efp_Espcl3getIXT1_EEcl7forwardIT0_Efp0_EEEEOSF_OSG_NS0_8int_packIJXspT1_EEEE
FNDA:1358,_ZN7testing8internal6AssertEbPKciRKNSt7__cxx1112basic_stringIcSt11char_traitsIcESaIcEEE
FNDA:0,_ZN7testing8internal9ApplyImplIRKSt8functionIFvhhhhEESt5tupleIJhhhhEEJLm0ELm1ELm2ELm3EEEEDTclcl7forwardIT_Efp_Espcl3getIXT1_EEcl7forwardIT0_Efp0_EEEEOS9_OSA_NS0_8int_packIJXspT1_EEEE
FNDA:0,_ZN7testing8internal9ApplyImplIRKSt8functionIFvhiEESt5tupleIJhiEEJLm0ELm1EEEEDTclcl7forwardIT_Efp_Espcl3getIXT1_EEcl7forwardIT0_Efp0_EEEEOS9_OSA_NS0_8int_packIJXspT1_EEEE
FNDA:0,_ZN7testing8internal5ApplyIRKSt8functionIFvmEESt5tupleIJmEEEEDTcl9ApplyImplcl7forwardIT_Efp_Ecl7forwardIT0_Efp0_EcvNS0_13make_int_packIXsrSt10tuple_sizeISA_E5valueEEE_EEEOS9_OSA_
FNDA:0,_ZN7testing8internal9ApplyImplIRKSt8functionIFvhEESt5tupleIJhEEJLm0EEEEDTclcl7forwardIT_Efp_Espcl3getIXT1_EEcl7forwardIT0_Efp0_EEEEOS9_OSA_NS0_8int_packIJXspT1_EEEE
FNDA:212,_ZN7testing8internal9ApplyImplIRKSt8functionIFihEESt5tupleIJhEEJLm0EEEEDTclcl7forwardIT_Efp_Espcl3getIXT1_EEcl7forwardIT0_Efp0_EEEEOS9_OSA_NS0_8int_packIJXspT1_EEEE
FNDA:0,_ZN7testing8internal5ApplyIRKSt8functionIFstEESt5tupleIJtEEEEDTcl9ApplyImplcl7forwardIT_Efp_Ecl7forwardIT0_Efp0_EcvNS0_13make_int_packIXsrSt10tuple_sizeISA_E5valueEEE_EEEOS9_OSA_
FNDA:0,_ZN7testing8internal5ApplyIRKSt8functionIFlvEESt5tupleIJEEEEDTcl9ApplyImplcl7forwardIT_Efp_Ecl7forwardIT0_Efp0_EcvNS0_13make_int_packIXsrSt10tuple_sizeISA_E5valueEEE_EEEOS9_OSA_
FNDA:0,_ZN7testing8internal5ApplyIRKSt8functionIFvP18BLEServerCallbacksP26BLECharacteristicCallbacksEESt5tupleIJS4_S6_EEEEDTcl9ApplyImplcl7forwardIT_Efp_Ecl7forwardIT0_Efp0_EcvNS0_13make_int_packIXsrSt10tuple_sizeISE_E5valueEEE_EEEOSD_OSE_
FNDA:0,_ZN7testing8internal9ApplyImplIRKSt8functionIFvthEESt5tupleIJthEEJLm0ELm1EEEEDTclcl7forwardIT_Efp_Espcl3getIXT1_EEcl7forwardIT0_Efp0_EEEEOS9_OSA_NS0_8int_packIJXspT1_EEEE
FNDA:462,_ZN7testing8internal6ExpectEbPKciRKNSt7__cxx1112basic_stringIcSt11char_traitsIcESaIcEEE
FNDA:0,_ZN7testing8internal9ApplyImplIRKSt8functionIFvtsEESt5tupleIJtsEEJLm0ELm1EEEEDTclcl7forwardIT_Efp_Espcl3getIXT1_EEcl7forwardIT0_Efp0_EEEEOS9_OSA_NS0_8int_packIJXspT1_EEEE
FNDA:0,_ZN7testing8internal9ApplyImplIRKSt8functionIFvhhEESt5tupleIJhhEEJLm0ELm1EEEEDTclcl7forwardIT_Efp_Espcl3getIXT1_EEcl7forwardIT0_Efp0_EEEEOS9_OSA_NS0_8int_packIJXspT1_EEEE
FNDA:0,_ZN7testing8internal9ApplyImplIRKSt8functionIFvPhmEESt5tupleIJS3_mEEJLm0ELm1EEEEDTclcl7forwardIT_Efp_Espcl3getIXT1_EEcl7forwardIT0_Efp0_EEEEOSA_OSB_NS0_8int_packIJXspT1_EEEE
FNDA:0,_ZN7testing8internal5ApplyIRKSt8functionIFmhEESt5tupleIJhEEEEDTcl9ApplyImplcl7forwardIT_Efp_Ecl7forwardIT0_Efp0_EcvNS0_13make_int_packIXsrSt10tuple_sizeISA_E5valueEEE_EEEOS9_OSA_
FNDA:0,_ZN7testing8internal5ApplyIRKSt8functionIFvPhmEESt5tupleIJS3_mEEEEDTcl9ApplyImplcl7forwardIT_Efp_Ecl7forwardIT0_Efp0_EcvNS0_13make_int_packIXsrSt10tuple_sizeISB_E5valueEEE_EEEOSA_OSB_
FNDA:0,_ZN7testing8internal9ApplyImplIRKSt8functionIFvPKhmhEESt5tupleIJS4_mhEEJLm0ELm1ELm2EEEEDTclcl7forwardIT_Efp_Espcl3getIXT1_EEcl7forwardIT0_Efp0_EEEEOSB_OSC_NS0_8int_packIJXspT1_EEEE
FNDA:0,_ZN7testing8internal5ApplyIRKSt8functionIFmvEESt5tupleIJEEEEDTcl9ApplyImplcl7forwardIT_Efp_Ecl7forwardIT0_Efp0_EcvNS0_13make_int_packIXsrSt10tuple_sizeISA_E5valueEEE_EEEOS9_OSA_
FNDA:0,_ZN7testing8internal9ApplyImplIRKSt8functionIFvP18BLEServerCallbacksEESt5tupleIJS4_EEJLm0EEEEDTclcl7forwardIT_Efp_Espcl3getIXT1_EEcl7forwardIT0_Efp0_EEEEOSB_OSC_NS0_8int_packIJXspT1_EEEE
FNDA:0,_ZN7testing8internal5ApplyIRKSt8functionIFvvEESt5tupleIJEEEEDTcl9ApplyImplcl7forwardIT_Efp_Ecl7forwardIT0_Efp0_EcvNS0_13make_int_packIXsrSt10tuple_sizeISA_E5valueEEE_EEEOS9_OSA_
FNDA:0,_ZN7testing8internal9ApplyImplIRKSt8functionIFvvEESt5tupleIJEEJEEEDTclcl7forwardIT_Efp_Espcl3getIXT1_EEcl7forwardIT0_Efp0_EEEEOS9_OSA_NS0_8int_packIJXspT1_EEEE
FNDA:0,_ZN7testing8internal5ApplyIRKSt8functionIFvhhhhhEESt5tupleIJhhhhhEEEEDTcl9ApplyImplcl7forwardIT_Efp_Ecl7forwardIT0_Efp0_EcvNS0_13make_int_packIXsrSt10tuple_sizeISA_E5valueEEE_EEEOS9_OSA_
FNDA:0,_ZN7testing8internal5ApplyIRKSt8functionIFvtsEESt5tupleIJtsEEEEDTcl9ApplyImplcl7forwardIT_Efp_Ecl7forwardIT0_Efp0_EcvNS0_13make_int_packIXsrSt10tuple_sizeISA_E5valueEEE_EEEOS9_OSA_
FNDA:0,_ZN7testing8internal5ApplyIRKSt8functionIFvPKhmhEESt5tupleIJS4_mhEEEEDTcl9ApplyImplcl7forwardIT_Efp_Ecl7forwardIT0_Efp0_EcvNS0_13make_int_packIXsrSt10tuple_sizeISC_E5valueEEE_EEEOSB_OSC_
FNDA:0,_ZN7testing8internal9ApplyImplIRKSt8functionIFvP26BLECharacteristicCallbacksEESt5tupleIJS4_EEJLm0EEEEDTclcl7forwardIT_Efp_Espcl3getIXT1_EEcl7forwardIT0_Efp0_EEEEOSB_OSC_NS0_8int_packIJXspT1_EEEE
FNDA:0,_ZN7testing8internal9ApplyImplIRKSt8functionIFmhEESt5tupleIJhEEJLm0EEEEDTclcl7forwardIT_Efp_Espcl3getIXT1_EEcl7forwardIT0_Efp0_EEEEOS9_OSA_NS0_8int_packIJXspT1_EEEE
FNDA:0,_ZN7testing8internal9ApplyImplIRKSt8functionIFmPKhmEESt5tupleIJS4_mEEJLm0ELm1EEEEDTclcl7forwardIT_Efp_Espcl3getIXT1_EEcl7forwardIT0_Efp0_EEEEOSB_OSC_NS0_8int_packIJXspT1_EEEE
FNDA:0,_ZN7testing8internal5ApplyIRKSt8functionIFvhhEESt5tupleIJhhEEEEDTcl9ApplyImplcl7forwardIT_Efp_Ecl7forwardIT0_Efp0_EcvNS0_13make_int_packIXsrSt10tuple_sizeISA_E5valueEEE_EEEOS9_OSA_
FNDA:10,_ZN7testing8internal9ApplyImplIRKSt8functionIFlvEESt5tupleIJEEJEEEDTclcl7forwardIT_Efp_Espcl3getIXT1_EEcl7forwardIT0_Efp0_EEEEOS9_OSA_NS0_8int_packIJXspT1_EEEE
FNDA:0,_ZN7testing8internal5ApplyIRKSt8functionIFvthEESt5tupleIJthEEEEDTcl9ApplyImplcl7forwardIT_Efp_Ecl7forwardIT0_Efp0_EcvNS0_13make_int_packIXsrSt10tuple_sizeISA_E5valueEEE_EEEOS9_OSA_
FNDA:0,_ZN7testing8internal9ApplyImplIRKSt8functionIFitEESt5tupleIJtEEJLm0EEEEDTclcl7forwardIT_Efp_Espcl3getIXT1_EEcl7forwardIT0_Efp0_EEEEOS9_OSA_NS0_8int_packIJXspT1_EEEE
FNDA:189,_ZN7testing8internal9ApplyImplIRKSt8functionIFmvEESt5tupleIJEEJEEEDTclcl7forwardIT_Efp_Espcl3getIXT1_EEcl7forwardIT0_Efp0_EEEEOS9_OSA_NS0_8int_packIJXspT1_EEEE
FNDA:0,_ZN7testing8internal5ApplyIRKSt8functionIFitEESt5tupleIJtEEEEDTcl9ApplyImplcl7forwardIT_Efp_Ecl7forwardIT0_Efp0_EcvNS0_13make_int_packIXsrSt10tuple_sizeISA_E5valueEEE_EEEOS9_OSA_
FNDA:0,_ZN7testing8internal9ApplyImplIRKSt8functionIF11MIDI_read_tvEESt5tupleIJEEJEEEDTclcl7forwardIT_Efp_Espcl3getIXT1_EEcl7forwardIT0_Efp0_EEEEOSA_OSB_NS0_8int_packIJXspT1_EEEE
FNDA:0,_ZN7testing8internal5ApplyIRKSt8functionIFvP26BLECharacteristicCallbacksEESt5tupleIJS4_EEEEDTcl9ApplyImplcl7forwardIT_Efp_Ecl7forwardIT0_Efp0_EcvNS0_13make_int_packIXsrSt10tuple_sizeISC_E5valueEEE_EEEOSB_OSC_
FNDA:0,_ZN7testing8internal5ApplyIRKSt8functionIF11MIDI_read_tvEESt5tupleIJEEEEDTcl9ApplyImplcl7forwardIT_Efp_Ecl7forwardIT0_Efp0_EcvNS0_13make_int_packIXsrSt10tuple_sizeISB_E5valueEEE_EEEOSA_OSB_
FNDA:0,_ZN7testing8internal9ApplyImplIRKSt8functionIFvP18BLEServerCallbacksP26BLECharacteristicCallbacksEESt5tupleIJS4_S6_EEJLm0ELm1EEEEDTclcl7forwardIT_Efp_Espcl3getIXT1_EEcl7forwardIT0_Efp0_EEEEOSD_OSE_NS0_8int_packIJXspT1_EEEE
FNDA:0,_ZN7testing8internal9ApplyImplIRKSt8functionIFvhhhhhEESt5tupleIJhhhhhEEJLm0ELm1ELm2ELm3ELm4EEEEDTclcl7forwardIT_Efp_Espcl3getIXT1_EEcl7forwardIT0_Efp0_EEEEOS9_OSA_NS0_8int_packIJXspT1_EEEE
FNDA:0,_ZN7testing8internal5ApplyIRKSt8functionIFvP18BLEServerCallbacksEESt5tupleIJS4_EEEEDTcl9ApplyImplcl7forwardIT_Efp_Ecl7forwardIT0_Efp0_EcvNS0_13make_int_packIXsrSt10tuple_sizeISC_E5valueEEE_EEEOSB_OSC_
FNDA:0,_ZN7testing8internal5ApplyIRKSt8functionIFvhiEESt5tupleIJhiEEEEDTcl9ApplyImplcl7forwardIT_Efp_Ecl7forwardIT0_Efp0_EcvNS0_13make_int_packIXsrSt10tuple_sizeISA_E5valueEEE_EEEOS9_OSA_
FNDA:0,_ZN7testing8internal5ApplyIRKSt8functionIFivEESt5tupleIJEEEEDTcl9ApplyImplcl7forwardIT_Efp_Ecl7forwardIT0_Efp0_EcvNS0_13make_int_packIXsrSt10tuple_sizeISA_E5valueEEE_EEEOS9_OSA_
FNDA:5,_ZN7testing8internal16StlContainerViewISt5tupleIJPKhmEEE14ConstReferenceERKS5_
FNF:51
FNH:6
DA:285,1358
DA:287,1358
DA:288,0
DA:289,0
DA:291,1358
DA:298,462
DA:300,462
DA:301,0
DA:302,0
DA:304,462
DA:469,5
DA:471,5
DA:472,5
DA:518,411
DA:520,411
DA:525,411
DA:528,822
DA:529,822
LF:18
LH:14
end_of_record
TN:
SF:/home/pieter/GitHub/Control-Surface/build/googletest/googletest-src/googletest/include/gtest/gtest-matchers.h
FN:84,_ZN7testing19MatchResultListenerC2EPSo
FN:90,_ZN7testing19MatchResultListenerlsIA11_cEERS0_RKT_
FN:90,_ZN7testing19MatchResultListenerlsINSt7__cxx1112basic_stringIcSt11char_traitsIcESaIcEEEEERS0_RKT_
FN:90,_ZN7testing19MatchResultListenerlsImEERS0_RKT_
FN:90,_ZN7testing19MatchResultListenerlsIA7_cEERS0_RKT_
FN:90,_ZN7testing19MatchResultListenerlsIA16_cEERS0_RKT_
FN:90,_ZN7testing19MatchResultListenerlsINS_7MessageEEERS0_RKT_
FN:90,_ZN7testing19MatchResultListenerlsIA5_cEERS0_RKT_
FN:90,_ZN7testing19MatchResultListenerlsIA15_cEERS0_RKT_
FN:96,_ZN7testing19MatchResultListener6streamEv
FN:102,_ZNK7testing19MatchResultListener12IsInterestedEv
FN:110,_ZN7testing19MatchResultListenerD0Ev
FN:110,_ZN7testing19MatchResultListenerD2Ev
FN:117,_ZN7testing25MatcherDescriberInterfaceD2Ev
FN:117,_ZN7testing25MatcherDescriberInterfaceD0Ev
FN:132,_ZNK7testing25MatcherDescriberInterface18DescribeNegationToEPSo
FN:210,_ZNK7testing8internal5AnyEqclIhhEEbRKT_RKT0_
FN:210,_ZNK7testing8internal5AnyEqclIP26BLECharacteristicCallbacksS4_EEbRKT_RKT0_
FN:210,_ZNK7testing8internal5AnyEqclIP18BLEServerCallbacksS4_EEbRKT_RKT0_
FN:210,_ZNK7testing8internal5AnyEqclIttEEbRKT_RKT0_
FN:236,_ZN7testing8internal24DummyMatchResultListenerC2Ev
FN:258,_ZN7testing8internal11MatcherBaseIP26BLECharacteristicCallbacksEaSEOS4_
FN:258,_ZN7testing8internal11MatcherBaseItEaSEOS2_
FN:258,_ZN7testing8internal11MatcherBaseIRKSt5tupleIJPKhmEEEaSERKS8_
FN:258,_ZN7testing8internal11MatcherBaseIhEaSEOS2_
FN:258,_ZN7testing8internal11MatcherBaseIP18BLEServerCallbacksEaSEOS4_
FN:258,_ZN7testing8internal11MatcherBaseIRKhEaSEOS4_
FN:262,_ZNK7testing8internal11MatcherBaseIP18BLEServerCallbacksE15MatchAndExplainERKS3_PNS_19MatchResultListenerE
FN:262,_ZNK7testing8internal11MatcherBaseIRKSt5tupleIJhiEEE15MatchAndExplainES5_PNS_19MatchResultListenerE
FN:262,_ZNK7testing8internal11MatcherBaseIRKSt5tupleIJP18BLEServerCallbacksP26BLECharacteristicCallbacksEEE15MatchAndExplainES9_PNS_19MatchResultListenerE
FN:262,_ZNK7testing8internal11MatcherBaseIRKSt5tupleIJEEE15MatchAndExplainES5_PNS_19MatchResultListenerE
FN:262,_ZNK7testing8internal11MatcherBaseIRKSt5tupleIJPKhmEEE15MatchAndExplainES7_PNS_19MatchResultListenerE
FN:262,_ZNK7testing8internal11MatcherBaseIRKSt5tupleIJP18BLEServerCallbacksEEE15MatchAndExplainES7_PNS_19MatchResultListenerE
FN:262,_ZNK7testing8internal11MatcherBaseIRKSt5tupleIJmEEE15MatchAndExplainES5_PNS_19MatchResultListenerE
FN:262,_ZNK7testing8internal11MatcherBaseIPhE15MatchAndExplainERKS2_PNS_19MatchResultListenerE
FN:262,_ZNK7testing8internal11MatcherBaseIRKSt5tupleIJP26BLECharacteristicCallbacksEEE15MatchAndExplainES7_PNS_19MatchResultListenerE
FN:262,_ZNK7testing8internal11MatcherBaseIhE15MatchAndExplainERKhPNS_19MatchResultListenerE
FN:262,_ZNK7testing8internal11MatcherBaseIRKSt5tupleIJtsEEE15MatchAndExplainES5_PNS_19MatchResultListenerE
FN:262,_ZNK7testing8internal11MatcherBaseIRKSt5tupleIJthEEE15MatchAndExplainES5_PNS_19MatchResultListenerE
FN:262,_ZNK7testing8internal11MatcherBaseIiE15MatchAndExplainERKiPNS_19MatchResultListenerE
FN:262,_ZNK7testing8internal11MatcherBaseIP26BLECharacteristicCallbacksE15MatchAndExplainERKS3_PNS_19MatchResultListenerE
FN:262,_ZNK7testing8internal11MatcherBaseImE15MatchAndExplainERKmPNS_19MatchResultListenerE
FN:262,_ZNK7testing8internal11MatcherBaseIRKSt5tupleIJhhhhEEE15MatchAndExplainES5_PNS_19MatchResultListenerE
FN:262,_ZNK7testing8internal11MatcherBaseIRKSt5tupleIJhhhhhEEE15MatchAndExplainES5_PNS_19MatchResultListenerE
FN:262,_ZNK7testing8internal11MatcherBaseIRKSt5tupleIJhEEE15MatchAndExplainES5_PNS_19MatchResultListenerE
FN:262,_ZNK7testing8internal11MatcherBaseIRKSt5tupleIJPKhmhEEE15MatchAndExplainES7_PNS_19MatchResultListenerE
FN:262,_ZNK7testing8internal11MatcherBaseIRKSt5tupleIJPhmEEE15MatchAndExplainES6_PNS_19MatchResultListenerE
FN:262,_ZNK7testing8internal11MatcherBaseIRKSt5tupleIJhhEEE15MatchAndExplainES5_PNS_19MatchResultListenerE
FN:262,_ZNK7testing8internal11MatcherBaseIPKhE15MatchAndExplainERKS3_PNS_19MatchResultListenerE
FN:262,_ZNK7testing8internal11MatcherBaseIsE15MatchAndExplainERKsPNS_19MatchResultListenerE
FN:262,_ZNK7testing8internal11MatcherBaseIRKSt5tupleIJtEEE15MatchAndExplainES5_PNS_19MatchResultListenerE
FN:262,_ZNK7testing8internal11MatcherBaseItE15MatchAndExplainERKtPNS_19MatchResultListenerE
FN:262,_ZNK7testing8internal11MatcherBaseIRKhE15MatchAndExplainES3_PNS_19MatchResultListenerE
FN:267,_ZNK7testing8internal11MatcherBaseIP26BLECharacteristicCallbacksE7MatchesERKS3_
FN:267,_ZNK7testing8internal11MatcherBaseIRKSt5tupleIJhEEE7MatchesES5_
FN:267,_ZNK7testing8internal11MatcherBaseIRKSt5tupleIJhhhhEEE7MatchesES5_
FN:267,_ZNK7testing8internal11MatcherBaseIRKSt5tupleIJEEE7MatchesES5_
FN:267,_ZNK7testing8internal11MatcherBaseIPKhE7MatchesERKS3_
FN:267,_ZNK7testing8internal11MatcherBaseIiE7MatchesERKi
FN:267,_ZNK7testing8internal11MatcherBaseIRKSt5tupleIJPhmEEE7MatchesES6_
FN:267,_ZNK7testing8internal11MatcherBaseImE7MatchesERKm
FN:267,_ZNK7testing8internal11MatcherBaseIRKSt5tupleIJtsEEE7MatchesES5_
FN:267,_ZNK7testing8internal11MatcherBaseIRKSt5tupleIJmEEE7MatchesES5_
FN:267,_ZNK7testing8internal11MatcherBaseIRKSt5tupleIJtEEE7MatchesES5_
FN:267,_ZNK7testing8internal11MatcherBaseIRKSt5tupleIJthEEE7MatchesES5_
FN:267,_ZNK7testing8internal11MatcherBaseIRKSt5tupleIJhhEEE7MatchesES5_
FN:267,_ZNK7testing8internal11MatcherBaseIP18BLEServerCallbacksE7MatchesERKS3_
FN:267,_ZNK7testing8internal11MatcherBaseIRKhE7MatchesES3_
FN:267,_ZNK7testing8internal11MatcherBaseIsE7MatchesERKs
FN:267,_ZNK7testing8internal11MatcherBaseIPhE7MatchesERKS2_
FN:267,_ZNK7testing8internal11MatcherBaseIRKSt5tupleIJPKhmhEEE7MatchesES7_
FN:267,_ZNK7testing8internal11MatcherBaseIRKSt5tupleIJP18BLEServerCallbacksEEE7MatchesES7_
FN:267,_ZNK7testing8internal11MatcherBaseIhE7MatchesERKh
FN:267,_ZNK7testing8internal11MatcherBaseIRKSt5tupleIJhiEEE7MatchesES5_
FN:267,_ZNK7testing8internal11MatcherBaseIRKSt5tupleIJP26BLECharacteristicCallbacksEEE7MatchesES7_
FN:267,_ZNK7testing8internal11MatcherBaseIRKSt5tupleIJPKhmEEE7MatchesES7_
FN:267,_ZNK7testing8internal11MatcherBaseItE7MatchesERKt
FN:267,_ZNK7testing8internal11MatcherBaseIRKSt5tupleIJP18BLEServerCallbacksP26BLECharacteristicCallbacksEEE7MatchesES9_
FN:267,_ZNK7testing8internal11MatcherBaseIRKSt5tupleIJhhhhhEEE7MatchesES5_
FN:273,_ZNK7testing8internal11MatcherBaseIPKhE10DescribeToEPSo
FN:273,_ZNK7testing8internal11MatcherBaseIRKSt5tupleIJhhhhhEEE10DescribeToEPSo
FN:273,_ZNK7testing8internal11MatcherBaseItE10DescribeToEPSo
FN:273,_ZNK7testing8internal11MatcherBaseIRKSt5tupleIJhiEEE10DescribeToEPSo
FN:273,_ZNK7testing8internal11MatcherBaseIRKSt5tupleIJPKhmEEE10DescribeToEPSo
FN:273,_ZNK7testing8internal11MatcherBaseIRKSt5tupleIJP18BLEServerCallbacksP26BLECharacteristicCallbacksEEE10DescribeToEPSo
FN:273,_ZNK7testing8internal11MatcherBaseIPhE10DescribeToEPSo
FN:273,_ZNK7testing8internal11MatcherBaseIRKSt5tupleIJhhEEE10DescribeToEPSo
FN:273,_ZNK7testing8internal11MatcherBaseIRKSt5tupleIJthEEE10DescribeToEPSo
FN:273,_ZNK7testing8internal11MatcherBaseIP26BLECharacteristicCallbacksE10DescribeToEPSo
FN:273,_ZNK7testing8internal11MatcherBaseImE10DescribeToEPSo
FN:273,_ZNK7testing8internal11MatcherBaseIsE10DescribeToEPSo
FN:273,_ZNK7testing8internal11MatcherBaseIRKhE10DescribeToEPSo
FN:273,_ZNK7testing8internal11MatcherBaseIhE10DescribeToEPSo
FN:273,_ZNK7testing8internal11MatcherBaseIRKSt5tupleIJPhmEEE10DescribeToEPSo
FN:273,_ZNK7testing8internal11MatcherBaseIRKSt5tupleIJmEEE10DescribeToEPSo
FN:273,_ZNK7testing8internal11MatcherBaseIRKSt5tupleIJtEEE10DescribeToEPSo
FN:273,_ZNK7testing8internal11MatcherBaseIRKSt5tupleIJP26BLECharacteristicCallbacksEEE10DescribeToEPSo
FN:273,_ZNK7testing8internal11MatcherBaseIRKSt5tupleIJhhhhEEE10DescribeToEPSo
FN:273,_ZNK7testing8internal11MatcherBaseIRKSt5tupleIJPKhmhEEE10DescribeToEPSo
FN:273,_ZNK7testing8internal11MatcherBaseIRKSt5tupleIJEEE10DescribeToEPSo
FN:273,_ZNK7testing8internal11MatcherBaseIP18BLEServerCallbacksE10DescribeToEPSo
FN:273,_ZNK7testing8internal11MatcherBaseIiE10DescribeToEPSo
FN:273,_ZNK7testing8internal11MatcherBaseIRKSt5tupleIJtsEEE10DescribeToEPSo
FN:273,_ZNK7testing8internal11MatcherBaseIRKSt5tupleIJhEEE10DescribeToEPSo
FN:273,_ZNK7testing8internal11MatcherBaseIRKSt5tupleIJP18BLEServerCallbacksEEE10DescribeToEPSo
FN:276,_ZNK7testing8internal11MatcherBaseIRKhE18DescribeNegationToEPSo
FN:276,_ZNK7testing8internal11MatcherBaseIRKSt5tupleIJPKhmEEE18DescribeNegationToEPSo
FN:294,_ZN7testing8internal11MatcherBaseItEC2Ev
FN:294,_ZN7testing8internal11MatcherBaseIhEC2Ev
FN:294,_ZN7testing8internal11MatcherBaseIP26BLECharacteristicCallbacksEC2Ev
FN:294,_ZN7testing8internal11MatcherBaseIP18BLEServerCallbacksEC2Ev
FN:294,_ZN7testing8internal11MatcherBaseIRKhEC2Ev
FN:297,_ZN7testing8internal11MatcherBaseIRKSt5tupleIJP18BLEServerCallbacksP26BLECharacteristicCallbacksEEEC2EPKNS_16MatcherInterfaceIS9_EE
FN:297,_ZN7testing8internal11MatcherBaseImEC2EPKNS_16MatcherInterfaceIRKmEE
FN:297,_ZN7testing8internal11MatcherBaseIhEC2EPKNS_16MatcherInterfaceIRKhEE
FN:297,_ZN7testing8internal11MatcherBaseIRKSt5tupleIJtEEEC2EPKNS_16MatcherInterfaceIS5_EE
FN:297,_ZN7testing8internal11MatcherBaseIRKSt5tupleIJhhEEEC2EPKNS_16MatcherInterfaceIS5_EE
FN:297,_ZN7testing8internal11MatcherBaseItEC2EPKNS_16MatcherInterfaceIRKtEE
FN:297,_ZN7testing8internal11MatcherBaseIP18BLEServerCallbacksEC2EPKNS_16MatcherInterfaceIRKS3_EE
FN:297,_ZN7testing8internal11MatcherBaseIRKSt5tupleIJPKhmEEEC2EPKNS_16MatcherInterfaceIS7_EE
FN:297,_ZN7testing8internal11MatcherBaseIRKSt5tupleIJhEEEC2EPKNS_16MatcherInterfaceIS5_EE
FN:297,_ZN7testing8internal11MatcherBaseIPKhEC2EPKNS_16MatcherInterfaceIRKS3_EE
FN:297,_ZN7testing8internal11MatcherBaseIP26BLECharacteristicCallbacksEC2EPKNS_16MatcherInterfaceIRKS3_EE
FN:297,_ZN7testing8internal11MatcherBaseIRKhEC2EPKNS_16MatcherInterfaceIS3_EE
FN:297,_ZN7testing8internal11MatcherBaseIRKSt5tupleIJEEEC2EPKNS_16MatcherInterfaceIS5_EE
FN:297,_ZN7testing8internal11MatcherBaseIRKSt5tupleIJhhhhhEEEC2EPKNS_16MatcherInterfaceIS5_EE
FN:306,_ZN7testing8internal11MatcherBaseIiEC2ERKS2_
FN:306,_ZN7testing8internal11MatcherBaseIP18BLEServerCallbacksEC2ERKS4_
FN:306,_ZN7testing8internal11MatcherBaseIPhEC2ERKS3_
FN:306,_ZN7testing8internal11MatcherBaseIP26BLECharacteristicCallbacksEC2ERKS4_
FN:306,_ZN7testing8internal11MatcherBaseImEC2ERKS2_
FN:306,_ZN7testing8internal11MatcherBaseItEC2ERKS2_
FN:306,_ZN7testing8internal11MatcherBaseIRKhEC2ERKS4_
FN:306,_ZN7testing8internal11MatcherBaseIPKhEC2ERKS4_
FN:306,_ZN7testing8internal11MatcherBaseIsEC2ERKS2_
FN:306,_ZN7testing8internal11MatcherBaseIhEC2ERKS2_
FN:308,_ZN7testing8internal11MatcherBaseImEC2EOS2_
FN:308,_ZN7testing8internal11MatcherBaseIP18BLEServerCallbacksEC2EOS4_
FN:308,_ZN7testing8internal11MatcherBaseItEC2EOS2_
FN:308,_ZN7testing8internal11MatcherBaseIhEC2EOS2_
FN:308,_ZN7testing8internal11MatcherBaseIPKhEC2EOS4_
FN:308,_ZN7testing8internal11MatcherBaseIP26BLECharacteristicCallbacksEC2EOS4_
FN:308,_ZN7testing8internal11MatcherBaseIRKhEC2EOS4_
FN:311,_ZN7testing8internal11MatcherBaseIRKSt5tupleIJP26BLECharacteristicCallbacksEEED0Ev
FN:311,_ZN7testing8internal11MatcherBaseIRKSt5tupleIJEEED0Ev
FN:311,_ZN7testing8internal11MatcherBaseIRKSt5tupleIJEEED2Ev
FN:311,_ZN7testing8internal11MatcherBaseIiED2Ev
FN:311,_ZN7testing8internal11MatcherBaseIP18BLEServerCallbacksED2Ev
FN:311,_ZN7testing8internal11MatcherBaseIRKSt5tupleIJhhEEED2Ev
FN:311,_ZN7testing8internal11MatcherBaseIPKhED0Ev
FN:311,_ZN7testing8internal11MatcherBaseIRKSt5tupleIJPKhmhEEED0Ev
FN:311,_ZN7testing8internal11MatcherBaseIRKSt5tupleIJmEEED2Ev
FN:311,_ZN7testing8internal11MatcherBaseIRKSt5tupleIJtEEED2Ev
FN:311,_ZN7testing8internal11MatcherBaseIsED2Ev
FN:311,_ZN7testing8internal11MatcherBaseIPhED0Ev
FN:311,_ZN7testing8internal11MatcherBaseIRKSt5tupleIJhhhhhEEED0Ev
FN:311,_ZN7testing8internal11MatcherBaseIRKSt5tupleIJhhhhEEED0Ev
FN:311,_ZN7testing8internal11MatcherBaseIRKSt5tupleIJtsEEED0Ev
FN:311,_ZN7testing8internal11MatcherBaseIRKSt5tupleIJP18BLEServerCallbacksEEED2Ev
FN:311,_ZN7testing8internal11MatcherBaseIRKSt5tupleIJPhmEEED2Ev
FN:311,_ZN7testing8internal11MatcherBaseIRKhED2Ev
FN:311,_ZN7testing8internal11MatcherBaseIP26BLECharacteristicCallbacksED0Ev
FN:311,_ZN7testing8internal11MatcherBaseIRKSt5tupleIJtEEED0Ev
FN:311,_ZN7testing8internal11MatcherBaseIRKSt5tupleIJhhhhEEED2Ev
FN:311,_ZN7testing8internal11MatcherBaseIRKSt5tupleIJhEEED0Ev
FN:311,_ZN7testing8internal11MatcherBaseIP26BLECharacteristicCallbacksED2Ev
FN:311,_ZN7testing8internal11MatcherBaseIRKhED0Ev
FN:311,_ZN7testing8internal11MatcherBaseImED0Ev
FN:311,_ZN7testing8internal11MatcherBaseIRKSt5tupleIJhhEEED0Ev
FN:311,_ZN7testing8internal11MatcherBaseIhED0Ev
FN:311,_ZN7testing8internal11MatcherBaseIRKSt5tupleIJP18BLEServerCallbacksP26BLECharacteristicCallbacksEEED2Ev
FN:311,_ZN7testing8internal11MatcherBaseIRKSt5tupleIJthEEED2Ev
FN:311,_ZN7testing8internal11MatcherBaseIRKSt5tupleIJhhhhhEEED2Ev
FN:311,_ZN7testing8internal11MatcherBaseItED2Ev
FN:311,_ZN7testing8internal11MatcherBaseIRKSt5tupleIJhiEEED0Ev
FN:311,_ZN7testing8internal11MatcherBaseIRKSt5tupleIJP18BLEServerCallbacksP26BLECharacteristicCallbacksEEED0Ev
FN:311,_ZN7testing8internal11MatcherBaseIiED0Ev
FN:311,_ZN7testing8internal11MatcherBaseIRKSt5tupleIJhEEED2Ev
FN:311,_ZN7testing8internal11MatcherBaseIRKSt5tupleIJPKhmEEED0Ev
FN:311,_ZN7testing8internal11MatcherBaseItED0Ev
FN:311,_ZN7testing8internal11MatcherBaseIRKSt5tupleIJPKhmEEED2Ev
FN:311,_ZN7testing8internal11MatcherBaseIsED0Ev
FN:311,_ZN7testing8internal11MatcherBaseIRKSt5tupleIJmEEED0Ev
FN:311,_ZN7testing8internal11MatcherBaseIRKSt5tupleIJtsEEED2Ev
FN:311,_ZN7testing8internal11MatcherBaseIhED2Ev
FN:311,_ZN7testing8internal11MatcherBaseIP18BLEServerCallbacksED0Ev
FN:311,_ZN7testing8internal11MatcherBaseIRKSt5tupleIJP18BLEServerCallbacksEEED0Ev
FN:311,_ZN7testing8internal11MatcherBaseIRKSt5tupleIJPKhmhEEED2Ev
FN:311,_ZN7testing8internal11MatcherBaseIRKSt5tupleIJhiEEED2Ev
FN:311,_ZN7testing8internal11MatcherBaseIRKSt5tupleIJPhmEEED0Ev
FN:311,_ZN7testing8internal11MatcherBaseIPhED2Ev
FN:311,_ZN7testing8internal11MatcherBaseIRKSt5tupleIJP26BLECharacteristicCallbacksEEED2Ev
FN:311,_ZN7testing8internal11MatcherBaseIRKSt5tupleIJthEEED0Ev
FN:311,_ZN7testing8internal11MatcherBaseIPKhED2Ev
FN:311,_ZN7testing8internal11MatcherBaseImED2Ev
FN:332,_ZN7testing7MatcherIP26BLECharacteristicCallbacksEC2EPKNS_16MatcherInterfaceIRKS2_EE
FN:332,_ZN7testing7MatcherIRKSt5tupleIJEEEC2EPKNS_16MatcherInterfaceIS4_EE
FN:332,_ZN7testing7MatcherIRKSt5tupleIJhhEEEC2EPKNS_16MatcherInterfaceIS4_EE
FN:332,_ZN7testing7MatcherIRKSt5tupleIJhEEEC2EPKNS_16MatcherInterfaceIS4_EE
FN:332,_ZN7testing7MatcherIRKSt5tupleIJhhhhhEEEC2EPKNS_16MatcherInterfaceIS4_EE
FN:332,_ZN7testing7MatcherIRKSt5tupleIJtEEEC2EPKNS_16MatcherInterfaceIS4_EE
FN:332,_ZN7testing7MatcherIP18BLEServerCallbacksEC2EPKNS_16MatcherInterfaceIRKS2_EE
FN:332,_ZN7testing7MatcherIPKhEC2EPKNS_16MatcherInterfaceIRKS2_EE
FN:332,_ZN7testing7MatcherIRKSt5tupleIJP18BLEServerCallbacksP26BLECharacteristicCallbacksEEEC2EPKNS_16MatcherInterfaceIS8_EE
FN:332,_ZN7testing7MatcherImEC2EPKNS_16MatcherInterfaceIRKmEE
FN:332,_ZN7testing7MatcherIRKhEC2EPKNS_16MatcherInterfaceIS2_EE
FN:332,_ZN7testing7MatcherIhEC2EPKNS_16MatcherInterfaceIRKhEE
FN:332,_ZN7testing7MatcherIRKSt5tupleIJPKhmEEEC2EPKNS_16MatcherInterfaceIS6_EE
FN:332,_ZN7testing7MatcherItEC2EPKNS_16MatcherInterfaceIRKtEE
FN:499,_ZN7testing11MakeMatcherIRKSt5tupleIJPKhmEEEENS_7MatcherIT_EEPKNS_16MatcherInterfaceIS8_EE
FN:529,_ZN7testing8internal14ComparisonBaseINS0_9EqMatcherIP18BLEServerCallbacksEES4_NS0_5AnyEqEEC2ERKS4_
FN:529,_ZN7testing8internal14ComparisonBaseINS0_9EqMatcherIP26BLECharacteristicCallbacksEES4_NS0_5AnyEqEEC2ERKS4_
FN:529,_ZN7testing8internal14ComparisonBaseINS0_9EqMatcherItEEtNS0_5AnyEqEEC2ERKt
FN:529,_ZN7testing8internal14ComparisonBaseINS0_9EqMatcherIhEEhNS0_5AnyEqEEC2ERKh
FN:531,_ZNK7testing8internal14ComparisonBaseINS0_9EqMatcherItEEtNS0_5AnyEqEEcvNS_7MatcherIT_EEItEEv
FN:531,_ZNK7testing8internal14ComparisonBaseINS0_9EqMatcherIhEEhNS0_5AnyEqEEcvNS_7MatcherIT_EEIhEEv
FN:531,_ZNK7testing8internal14ComparisonBaseINS0_9EqMatcherIP18BLEServerCallbacksEES4_NS0_5AnyEqEEcvNS_7MatcherIT_EEIS4_EEv
FN:531,_ZNK7testing8internal14ComparisonBaseINS0_9EqMatcherIhEEhNS0_5AnyEqEEcvNS_7MatcherIT_EEIRKhEEv
FN:531,_ZNK7testing8internal14ComparisonBaseINS0_9EqMatcherIP26BLECharacteristicCallbacksEES4_NS0_5AnyEqEEcvNS_7MatcherIT_EEIS4_EEv
FN:537,_ZN7testing8internal14ComparisonBaseINS0_9EqMatcherItEEtNS0_5AnyEqEE6UnwrapItEERKT_S9_
FN:537,_ZN7testing8internal14ComparisonBaseINS0_9EqMatcherIP26BLECharacteristicCallbacksEES4_NS0_5AnyEqEE6UnwrapIS4_EERKT_SB_
FN:537,_ZN7testing8internal14ComparisonBaseINS0_9EqMatcherIhEEhNS0_5AnyEqEE6UnwrapIhEERKT_S9_
FN:537,_ZN7testing8internal14ComparisonBaseINS0_9EqMatcherIP18BLEServerCallbacksEES4_NS0_5AnyEqEE6UnwrapIS4_EERKT_SB_
FN:544,_ZN7testing8internal14ComparisonBaseINS0_9EqMatcherItEEtNS0_5AnyEqEE4ImplIRKttEC2ES8_
FN:544,_ZN7testing8internal14ComparisonBaseINS0_9EqMatcherIP18BLEServerCallbacksEES4_NS0_5AnyEqEE4ImplIRKS4_S4_EC2ESA_
FN:544,_ZN7testing8internal14ComparisonBaseINS0_9EqMatcherIhEEhNS0_5AnyEqEE4ImplIRKhhEC2ES8_
FN:544,_ZN7testing8internal14ComparisonBaseINS0_9EqMatcherIP26BLECharacteristicCallbacksEES4_NS0_5AnyEqEE4ImplIRKS4_S4_EC2ESA_
FN:545,_ZNK7testing8internal14ComparisonBaseINS0_9EqMatcherIP18BLEServerCallbacksEES4_NS0_5AnyEqEE4ImplIRKS4_S4_E15MatchAndExplainESA_PNS_19MatchResultListenerE
FN:545,_ZNK7testing8internal14ComparisonBaseINS0_9EqMatcherIP26BLECharacteristicCallbacksEES4_NS0_5AnyEqEE4ImplIRKS4_S4_E15MatchAndExplainESA_PNS_19MatchResultListenerE
FN:545,_ZNK7testing8internal14ComparisonBaseINS0_9EqMatcherIhEEhNS0_5AnyEqEE4ImplIRKhhE15MatchAndExplainES8_PNS_19MatchResultListenerE
FN:545,_ZNK7testing8internal14ComparisonBaseINS0_9EqMatcherItEEtNS0_5AnyEqEE4ImplIRKttE15MatchAndExplainES8_PNS_19MatchResultListenerE
FN:549,_ZNK7testing8internal14ComparisonBaseINS0_9EqMatcherIhEEhNS0_5AnyEqEE4ImplIRKhhE10DescribeToEPSo
FN:549,_ZNK7testing8internal14ComparisonBaseINS0_9EqMatcherIP26BLECharacteristicCallbacksEES4_NS0_5AnyEqEE4ImplIRKS4_S4_E10DescribeToEPSo
FN:549,_ZNK7testing8internal14ComparisonBaseINS0_9EqMatcherIP18BLEServerCallbacksEES4_NS0_5AnyEqEE4ImplIRKS4_S4_E10DescribeToEPSo
FN:549,_ZNK7testing8internal14ComparisonBaseINS0_9EqMatcherItEEtNS0_5AnyEqEE4ImplIRKttE10DescribeToEPSo
FN:553,_ZNK7testing8internal14ComparisonBaseINS0_9EqMatcherIP18BLEServerCallbacksEES4_NS0_5AnyEqEE4ImplIRKS4_S4_E18DescribeNegationToEPSo
FN:553,_ZNK7testing8internal14ComparisonBaseINS0_9EqMatcherItEEtNS0_5AnyEqEE4ImplIRKttE18DescribeNegationToEPSo
FN:553,_ZNK7testing8internal14ComparisonBaseINS0_9EqMatcherIhEEhNS0_5AnyEqEE4ImplIRKhhE18DescribeNegationToEPSo
FN:553,_ZNK7testing8internal14ComparisonBaseINS0_9EqMatcherIP26BLECharacteristicCallbacksEES4_NS0_5AnyEqEE4ImplIRKS4_S4_E18DescribeNegationToEPSo
FN:567,_ZN7testing8internal9EqMatcherIP18BLEServerCallbacksEC2ERKS3_
FN:567,_ZN7testing8internal9EqMatcherIhEC2ERKh
FN:567,_ZN7testing8internal9EqMatcherItEC2ERKt
FN:567,_ZN7testing8internal9EqMatcherIP26BLECharacteristicCallbacksEC2ERKS3_
FN:569,_ZN7testing8internal9EqMatcherItE4DescEv
FN:569,_ZN7testing8internal9EqMatcherIP18BLEServerCallbacksE4DescEv
FN:569,_ZN7testing8internal9EqMatcherIP26BLECharacteristicCallbacksE4DescEv
FN:569,_ZN7testing8internal9EqMatcherIhE4DescEv
FN:570,_ZN7testing8internal9EqMatcherIP26BLECharacteristicCallbacksE11NegatedDescEv
FN:570,_ZN7testing8internal9EqMatcherItE11NegatedDescEv
FN:570,_ZN7testing8internal9EqMatcherIP18BLEServerCallbacksE11NegatedDescEv
FN:570,_ZN7testing8internal9EqMatcherIhE11NegatedDescEv
FN:693,_ZN7testing2EqItEENS_8internal9EqMatcherIT_EES3_
FN:693,_ZN7testing2EqIhEENS_8internal9EqMatcherIT_EES3_
FN:693,_ZN7testing2EqIP18BLEServerCallbacksEENS_8internal9EqMatcherIT_EES5_
FN:693,_ZN7testing2EqIP26BLECharacteristicCallbacksEENS_8internal9EqMatcherIT_EES5_
FN:698,_ZN7testing7MatcherIRKhEC2ES2_
FN:698,_ZN7testing7MatcherIP26BLECharacteristicCallbacksEC2ES2_
FN:698,_ZN7testing7MatcherItEC2Et
FN:698,_ZN7testing7MatcherIhEC2Eh
FN:698,_ZN7testing7MatcherIP18BLEServerCallbacksEC2ES2_
FNDA:0,_ZNK7testing8internal11MatcherBaseIRKSt5tupleIJEEE10DescribeToEPSo
FNDA:0,_ZNK7testing8internal11MatcherBaseIP18BLEServerCallbacksE10DescribeToEPSo
FNDA:0,_ZNK7testing8internal11MatcherBaseIiE10DescribeToEPSo
FNDA:10,_ZNK7testing8internal11MatcherBaseIRKSt5tupleIJPKhmEEE7MatchesES7_
FNDA:14,_ZNK7testing8internal11MatcherBaseIRKhE15MatchAndExplainES3_PNS_19MatchResultListenerE
FNDA:13,_ZN7testing8internal11MatcherBaseIRKhEaSEOS4_
FNDA:10,_ZN7testing8internal9EqMatcherIP26BLECharacteristicCallbacksEC2ERKS3_
FNDA:0,_ZNK7testing8internal11MatcherBaseIRKSt5tupleIJtsEEE10DescribeToEPSo
FNDA:4,_ZNK7testing8internal14ComparisonBaseINS0_9EqMatcherItEEtNS0_5AnyEqEE4ImplIRKttE15MatchAndExplainES8_PNS_19MatchResultListenerE
FNDA:4,_ZNK7testing8internal11MatcherBaseItE7MatchesERKt
FNDA:10,_ZNK7testing8internal11MatcherBaseIRKSt5tupleIJP18BLEServerCallbacksP26BLECharacteristicCallbacksEEE7MatchesES9_
FNDA:66,_ZNK7testing8internal11MatcherBaseIRKSt5tupleIJhhhhhEEE7MatchesES5_
FNDA:10,_ZN7testing2EqIP18BLEServerCallbacksEENS_8internal9EqMatcherIT_EES5_
FNDA:4,_ZN7testing8internal9EqMatcherItEC2ERKt
FNDA:2056,_ZN7testing8internal24DummyMatchResultListenerC2Ev
FNDA:908,_ZN7testing2EqIhEENS_8internal9EqMatcherIT_EES3_
FNDA:10,_ZNK7testing8internal14ComparisonBaseINS0_9EqMatcherIP26BLECharacteristicCallbacksEES4_NS0_5AnyEqEEcvNS_7MatcherIT_EEIS4_EEv
FNDA:2685,_ZN7testing8internal11MatcherBaseIhEC2ERKS2_
FNDA:0,_ZN7testing8internal11MatcherBaseIRKSt5tupleIJthEEED0Ev
FNDA:10,_ZN7testing7MatcherIP18BLEServerCallbacksEC2ES2_
FNDA:20,_ZN7testing8internal11MatcherBaseIPKhED2Ev
FNDA:0,_ZNK7testing8internal11MatcherBaseIRKSt5tupleIJP18BLEServerCallbacksEEE10DescribeToEPSo
FNDA:64,_ZN7testing8internal11MatcherBaseIRKSt5tupleIJhhhhhEEEC2EPKNS_16MatcherInterfaceIS5_EE
FNDA:20,_ZN7testing8internal11MatcherBaseImED2Ev
FNDA:0,_ZN7testing8internal9EqMatcherIhE4DescEv
FNDA:4,_ZN7testing7MatcherItEC2EPKNS_16MatcherInterfaceIRKtEE
FNDA:0,_ZN7testing8internal9EqMatcherIP26BLECharacteristicCallbacksE4DescEv
FNDA:0,_ZNK7testing8internal11MatcherBaseIRKSt5tupleIJhEEE10DescribeToEPSo
FNDA:0,_ZN7testing8internal11MatcherBaseIPhED2Ev
FNDA:0,_ZN7testing8internal11MatcherBaseIRKSt5tupleIJP26BLECharacteristicCallbacksEEED2Ev
FNDA:0,_ZN7testing19MatchResultListenerlsIA15_cEERS0_RKT_
FNDA:10,_ZN7testing2EqIP26BLECharacteristicCallbacksEENS_8internal9EqMatcherIT_EES5_
FNDA:10,_ZN7testing8internal9EqMatcherIP18BLEServerCallbacksEC2ERKS3_
FNDA:0,_ZNK7testing8internal11MatcherBaseIRKSt5tupleIJP26BLECharacteristicCallbacksEEE7MatchesES7_
FNDA:1297,_ZNK7testing8internal14ComparisonBaseINS0_9EqMatcherIhEEhNS0_5AnyEqEE4ImplIRKhhE15MatchAndExplainES8_PNS_19MatchResultListenerE
FNDA:10,_ZN7testing8internal14ComparisonBaseINS0_9EqMatcherIP26BLECharacteristicCallbacksEES4_NS0_5AnyEqEE4ImplIRKS4_S4_EC2ESA_
FNDA:13,_ZN7testing8internal11MatcherBaseIRKhEC2ERKS4_
FNDA:0,_ZNK7testing8internal11MatcherBaseIRKSt5tupleIJPhmEEE10DescribeToEPSo
FNDA:0,_ZNK7testing8internal11MatcherBaseIhE10DescribeToEPSo
FNDA:0,_ZN7testing8internal11MatcherBaseIRKSt5tupleIJPKhmhEEED2Ev
FNDA:0,_ZNK7testing8internal11MatcherBaseIRKSt5tupleIJPKhmhEEE15MatchAndExplainES7_PNS_19MatchResultListenerE
FNDA:10,_ZN7testing8internal11MatcherBaseIP18BLEServerCallbacksEaSEOS4_
FNDA:0,_ZNK7testing8internal11MatcherBaseIRKSt5tupleIJmEEE10DescribeToEPSo
FNDA:5370,_ZN7testing8internal11MatcherBaseIhED2Ev
FNDA:0,_ZN7testing8internal11MatcherBaseIP18BLEServerCallbacksED0Ev
FNDA:0,_ZNK7testing8internal11MatcherBaseIRKSt5tupleIJhiEEE7MatchesES5_
FNDA:13,_ZN7testing7MatcherIRKhEC2EPKNS_16MatcherInterfaceIS2_EE
FNDA:895,_ZN7testing7MatcherIhEC2Eh
FNDA:66,_ZNK7testing8internal11MatcherBaseIRKSt5tupleIJhhhhhEEE15MatchAndExplainES5_PNS_19MatchResultListenerE
FNDA:0,_ZNK7testing8internal11MatcherBaseIRKSt5tupleIJPKhmEEE18DescribeNegationToEPSo
FNDA:0,_ZNK7testing8internal11MatcherBaseIRKhE10DescribeToEPSo
FNDA:0,_ZN7testing8internal11MatcherBaseIRKSt5tupleIJP18BLEServerCallbacksEEED0Ev
FNDA:895,_ZN7testing7MatcherIhEC2EPKNS_16MatcherInterfaceIRKhEE
FNDA:256,_ZNK7testing8internal11MatcherBaseIRKSt5tupleIJhEEE15MatchAndExplainES5_PNS_19MatchResultListenerE
FNDA:12,_ZN7testing8internal11MatcherBaseItEC2ERKS2_
FNDA:0,_ZN7testing8internal11MatcherBaseIRKSt5tupleIJhiEEED2Ev
FNDA:10,_ZN7testing8internal11MatcherBaseIP26BLECharacteristicCallbacksEC2EOS4_
FNDA:13,_ZN7testing8internal11MatcherBaseIRKhEC2Ev
FNDA:0,_ZNK7testing8internal11MatcherBaseIsE15MatchAndExplainERKsPNS_19MatchResultListenerE
FNDA:0,_ZN7testing8internal11MatcherBaseIRKSt5tupleIJPhmEEED0Ev
FNDA:908,_ZN7testing8internal9EqMatcherIhEC2ERKh
FNDA:12,_ZN7testing7MatcherIRKSt5tupleIJPKhmEEEC2EPKNS_16MatcherInterfaceIS6_EE
FNDA:36,_ZN7testing8internal11MatcherBaseIRKhEC2EOS4_
FNDA:4,_ZNK7testing8internal11MatcherBaseIRKSt5tupleIJtEEE15MatchAndExplainES5_PNS_19MatchResultListenerE
FNDA:0,_ZNK7testing8internal11MatcherBaseIRKSt5tupleIJPKhmhEEE10DescribeToEPSo
FNDA:4,_ZNK7testing8internal11MatcherBaseItE15MatchAndExplainERKtPNS_19MatchResultListenerE
FNDA:0,_ZNK7testing8internal11MatcherBaseIRKSt5tupleIJPhmEEE15MatchAndExplainES6_PNS_19MatchResultListenerE
FNDA:175,_ZNK7testing8internal11MatcherBaseIRKSt5tupleIJhhEEE15MatchAndExplainES5_PNS_19MatchResultListenerE
FNDA:4,_ZNK7testing8internal5AnyEqclIttEEbRKT_RKT0_
FNDA:12,_ZN7testing8internal11MatcherBaseIPKhEC2ERKS4_
FNDA:0,_ZNK7testing8internal11MatcherBaseIRKSt5tupleIJtEEE10DescribeToEPSo
FNDA:0,_ZNK7testing8internal11MatcherBaseIRKSt5tupleIJP26BLECharacteristicCallbacksEEE10DescribeToEPSo
FNDA:5,_ZNK7testing8internal11MatcherBaseIPKhE15MatchAndExplainERKS3_PNS_19MatchResultListenerE
FNDA:0,_ZN7testing8internal11MatcherBaseIsEC2ERKS2_
FNDA:0,_ZNK7testing8internal11MatcherBaseIRKSt5tupleIJhhhhEEE10DescribeToEPSo
FNDA:0,_ZNK7testing8internal11MatcherBaseIRKSt5tupleIJPKhmhEEE7MatchesES7_
FNDA:4,_ZN7testing7MatcherIPKhEC2EPKNS_16MatcherInterfaceIRKS2_EE
FNDA:0,_ZN7testing8internal11MatcherBaseItED0Ev
FNDA:908,_ZN7testing8internal14ComparisonBaseINS0_9EqMatcherIhEEhNS0_5AnyEqEEC2ERKh
FNDA:10,_ZN7testing8internal11MatcherBaseIP26BLECharacteristicCallbacksEC2EPKNS_16MatcherInterfaceIRKS3_EE
FNDA:13,_ZN7testing8internal11MatcherBaseIRKhEC2EPKNS_16MatcherInterfaceIS3_EE
FNDA:0,_ZN7testing19MatchResultListenerlsIA5_cEERS0_RKT_
FNDA:12,_ZN7testing8internal11MatcherBaseIRKSt5tupleIJPKhmEEED2Ev
FNDA:13,_ZNK7testing8internal14ComparisonBaseINS0_9EqMatcherIhEEhNS0_5AnyEqEEcvNS_7MatcherIT_EEIRKhEEv
FNDA:0,_ZN7testing19MatchResultListenerlsIA16_cEERS0_RKT_
FNDA:0,_ZN7testing8internal11MatcherBaseIRKSt5tupleIJPKhmEEED0Ev
FNDA:0,_ZN7testing19MatchResultListenerlsINS_7MessageEEERS0_RKT_
FNDA:5,_ZNK7testing8internal11MatcherBaseImE15MatchAndExplainERKmPNS_19MatchResultListenerE
FNDA:0,_ZNK7testing8internal11MatcherBaseIP26BLECharacteristicCallbacksE10DescribeToEPSo
FNDA:10,_ZN7testing8internal14ComparisonBaseINS0_9EqMatcherIP18BLEServerCallbacksEES4_NS0_5AnyEqEE6UnwrapIS4_EERKT_SB_
FNDA:4,_ZN7testing7MatcherImEC2EPKNS_16MatcherInterfaceIRKmEE
FNDA:0,_ZNK7testing8internal11MatcherBaseImE10DescribeToEPSo
FNDA:1283,_ZNK7testing8internal11MatcherBaseIhE7MatchesERKh
FNDA:0,_ZNK7testing8internal11MatcherBaseIRKSt5tupleIJhhhhEEE15MatchAndExplainES5_PNS_19MatchResultListenerE
FNDA:0,_ZNK7testing8internal11MatcherBaseIsE10DescribeToEPSo
FNDA:10,_ZNK7testing8internal5AnyEqclIP18BLEServerCallbacksS4_EEbRKT_RKT0_
FNDA:0,_ZNK7testing8internal11MatcherBaseIRKhE18DescribeNegationToEPSo
FNDA:10,_ZN7testing8internal11MatcherBaseIP18BLEServerCallbacksEC2Ev
FNDA:157,_ZN7testing8internal11MatcherBaseIRKSt5tupleIJEEEC2EPKNS_16MatcherInterfaceIS5_EE
FNDA:2056,_ZN7testing19MatchResultListenerD2Ev
FNDA:0,_ZN7testing8internal11MatcherBaseIRKSt5tupleIJtsEEED2Ev
FNDA:4,_ZN7testing7MatcherItEC2Et
FNDA:895,_ZN7testing8internal11MatcherBaseIhEaSEOS2_
FNDA:0,_ZNK7testing8internal11MatcherBaseIRKSt5tupleIJP18BLEServerCallbacksEEE7MatchesES7_
FNDA:0,_ZN7testing8internal11MatcherBaseIsED0Ev
FNDA:0,_ZN7testing8internal11MatcherBaseIRKSt5tupleIJmEEED0Ev
FNDA:0,_ZNK7testing8internal14ComparisonBaseINS0_9EqMatcherIhEEhNS0_5AnyEqEE4ImplIRKhhE18DescribeNegationToEPSo
FNDA:0,_ZNK7testing8internal14ComparisonBaseINS0_9EqMatcherIP26BLECharacteristicCallbacksEES4_NS0_5AnyEqEE4ImplIRKS4_S4_E18DescribeNegationToEPSo
FNDA:10,_ZN7testing7MatcherIRKSt5tupleIJP18BLEServerCallbacksP26BLECharacteristicCallbacksEEEC2EPKNS_16MatcherInterfaceIS8_EE
FNDA:10,_ZNK7testing8internal14ComparisonBaseINS0_9EqMatcherIP26BLECharacteristicCallbacksEES4_NS0_5AnyEqEE4ImplIRKS4_S4_E15MatchAndExplainESA_PNS_19MatchResultListenerE
FNDA:0,_ZN7testing8internal11MatcherBaseIRKSt5tupleIJP18BLEServerCallbacksP26BLECharacteristicCallbacksEEED0Ev
FNDA:10,_ZN7testing8internal14ComparisonBaseINS0_9EqMatcherIP26BLECharacteristicCallbacksEES4_NS0_5AnyEqEE6UnwrapIS4_EERKT_SB_
FNDA:0,_ZNK7testing8internal11MatcherBaseIiE15MatchAndExplainERKiPNS_19MatchResultListenerE
FNDA:0,_ZN7testing8internal11MatcherBaseIiED0Ev
FNDA:4,_ZN7testing8internal14ComparisonBaseINS0_9EqMatcherItEEtNS0_5AnyEqEEC2ERKt
FNDA:0,_ZN7testing8internal9EqMatcherIhE11NegatedDescEv
FNDA:0,_ZNK7testing8internal11MatcherBaseIRKSt5tupleIJtsEEE15MatchAndExplainES5_PNS_19MatchResultListenerE
FNDA:0,_ZN7testing8internal11MatcherBaseIRKSt5tupleIJhiEEED0Ev
FNDA:30,_ZN7testing8internal11MatcherBaseIP26BLECharacteristicCallbacksEC2ERKS4_
FNDA:0,_ZNK7testing8internal11MatcherBaseIRKSt5tupleIJthEEE15MatchAndExplainES5_PNS_19MatchResultListenerE
FNDA:0,_ZNK7testing8internal14ComparisonBaseINS0_9EqMatcherItEEtNS0_5AnyEqEE4ImplIRKttE18DescribeNegationToEPSo
FNDA:0,_ZN7testing19MatchResultListenerlsIA7_cEERS0_RKT_
FNDA:0,_ZNK7testing8internal11MatcherBaseIPhE7MatchesERKS2_
FNDA:4,_ZN7testing8internal11MatcherBaseIPKhEC2EPKNS_16MatcherInterfaceIRKS3_EE
FNDA:225,_ZN7testing8internal11MatcherBaseIRKSt5tupleIJhEEED2Ev
FNDA:14,_ZNK7testing8internal11MatcherBaseIRKhE7MatchesES3_
FNDA:0,_ZNK7testing8internal11MatcherBaseIsE7MatchesERKs
FNDA:10,_ZNK7testing8internal11MatcherBaseIP26BLECharacteristicCallbacksE15MatchAndExplainERKS3_PNS_19MatchResultListenerE
FNDA:1297,_ZN7testing8internal14ComparisonBaseINS0_9EqMatcherIhEEhNS0_5AnyEqEE6UnwrapIhEERKT_S9_
FNDA:225,_ZN7testing8internal11MatcherBaseIRKSt5tupleIJhEEEC2EPKNS_16MatcherInterfaceIS5_EE
FNDA:0,_ZNK7testing8internal11MatcherBaseIRKSt5tupleIJhhEEE10DescribeToEPSo
FNDA:0,_ZNK7testing8internal11MatcherBaseIRKSt5tupleIJthEEE10DescribeToEPSo
FNDA:12,_ZN7testing8internal11MatcherBaseImEC2ERKS2_
FNDA:10,_ZN7testing7MatcherIP18BLEServerCallbacksEC2EPKNS_16MatcherInterfaceIRKS2_EE
FNDA:0,_ZNK7testing8internal14ComparisonBaseINS0_9EqMatcherItEEtNS0_5AnyEqEE4ImplIRKttE10DescribeToEPSo
FNDA:175,_ZNK7testing8internal11MatcherBaseIRKSt5tupleIJhhEEE7MatchesES5_
FNDA:10,_ZN7testing8internal11MatcherBaseIRKSt5tupleIJP18BLEServerCallbacksP26BLECharacteristicCallbacksEEED2Ev
FNDA:10,_ZNK7testing8internal14ComparisonBaseINS0_9EqMatcherIP18BLEServerCallbacksEES4_NS0_5AnyEqEEcvNS_7MatcherIT_EEIS4_EEv
FNDA:10,_ZN7testing8internal11MatcherBaseIP18BLEServerCallbacksEC2EPKNS_16MatcherInterfaceIRKS3_EE
FNDA:0,_ZN7testing19MatchResultListenerlsImEERS0_RKT_
FNDA:0,_ZN7testing8internal11MatcherBaseIRKSt5tupleIJhEEED0Ev
FNDA:60,_ZN7testing8internal11MatcherBaseIP26BLECharacteristicCallbacksED2Ev
FNDA:0,_ZN7testing8internal11MatcherBaseIRKhED0Ev
FNDA:0,_ZN7testing8internal11MatcherBaseImED0Ev
FNDA:0,_ZN7testing8internal11MatcherBaseIRKSt5tupleIJhhEEED0Ev
FNDA:0,_ZN7testing8internal11MatcherBaseIhED0Ev
FNDA:4,_ZN7testing8internal11MatcherBaseItEC2EPKNS_16MatcherInterfaceIRKtEE
FNDA:0,_ZN7testing8internal11MatcherBaseIRKSt5tupleIJthEEED2Ev
FNDA:0,_ZNK7testing25MatcherDescriberInterface18DescribeNegationToEPSo
FNDA:64,_ZN7testing8internal11MatcherBaseIRKSt5tupleIJhhhhhEEED2Ev
FNDA:10,_ZNK7testing8internal11MatcherBaseIP18BLEServerCallbacksE7MatchesERKS3_
FNDA:12,_ZN7testing8internal11MatcherBaseIRKSt5tupleIJPKhmEEEC2EPKNS_16MatcherInterfaceIS7_EE
FNDA:4,_ZN7testing11MakeMatcherIRKSt5tupleIJPKhmEEEENS_7MatcherIT_EEPKNS_16MatcherInterfaceIS8_EE
FNDA:0,_ZN7testing8internal9EqMatcherIP18BLEServerCallbacksE4DescEv
FNDA:4,_ZN7testing8internal11MatcherBaseIPKhEC2EOS4_
FNDA:24,_ZN7testing8internal11MatcherBaseItED2Ev
FNDA:0,_ZNK7testing8internal11MatcherBaseIPhE10DescribeToEPSo
FNDA:1283,_ZNK7testing8internal11MatcherBaseIhE15MatchAndExplainERKhPNS_19MatchResultListenerE
FNDA:0,_ZN7testing25MatcherDescriberInterfaceD0Ev
FNDA:10,_ZN7testing7MatcherIP26BLECharacteristicCallbacksEC2ES2_
FNDA:908,_ZN7testing8internal14ComparisonBaseINS0_9EqMatcherIhEEhNS0_5AnyEqEE4ImplIRKhhEC2ES8_
FNDA:10,_ZNK7testing8internal5AnyEqclIP26BLECharacteristicCallbacksS4_EEbRKT_RKT0_
FNDA:0,_ZNK7testing8internal11MatcherBaseIRKSt5tupleIJmEEE15MatchAndExplainES5_PNS_19MatchResultListenerE
FNDA:895,_ZNK7testing8internal14ComparisonBaseINS0_9EqMatcherIhEEhNS0_5AnyEqEEcvNS_7MatcherIT_EEIhEEv
FNDA:4,_ZN7testing2EqItEENS_8internal9EqMatcherIT_EES3_
FNDA:0,_ZN7testing8internal11MatcherBaseIRKSt5tupleIJPhmEEED2Ev
FNDA:4,_ZN7testing8internal11MatcherBaseIRKSt5tupleIJPKhmEEEaSERKS8_
FNDA:10,_ZN7testing8internal14ComparisonBaseINS0_9EqMatcherIP18BLEServerCallbacksEES4_NS0_5AnyEqEE4ImplIRKS4_S4_EC2ESA_
FNDA:4,_ZNK7testing8internal11MatcherBaseIRKSt5tupleIJtEEE7MatchesES5_
FNDA:0,_ZNK7testing8internal11MatcherBaseIRKSt5tupleIJthEEE7MatchesES5_
FNDA:0,_ZNK7testing8internal11MatcherBaseIPhE15MatchAndExplainERKS2_PNS_19MatchResultListenerE
FNDA:10,_ZN7testing8internal11MatcherBaseIP18BLEServerCallbacksEC2EOS4_
FNDA:10,_ZN7testing8internal14ComparisonBaseINS0_9EqMatcherIP18BLEServerCallbacksEES4_NS0_5AnyEqEEC2ERKS4_
FNDA:0,_ZN7testing8internal11MatcherBaseIRKSt5tupleIJtsEEED0Ev
FNDA:895,_ZN7testing8internal11MatcherBaseIhEC2EPKNS_16MatcherInterfaceIRKhEE
FNDA:4,_ZN7testing8internal11MatcherBaseItEaSEOS2_
FNDA:0,_ZN7testing8internal11MatcherBaseIRKSt5tupleIJP18BLEServerCallbacksEEED2Ev
FNDA:4,_ZN7testing8internal14ComparisonBaseINS0_9EqMatcherItEEtNS0_5AnyEqEE4ImplIRKttEC2ES8_
FNDA:4,_ZN7testing8internal11MatcherBaseIRKSt5tupleIJtEEEC2EPKNS_16MatcherInterfaceIS5_EE
FNDA:0,_ZNK7testing8internal11MatcherBaseIRKSt5tupleIJmEEE7MatchesES5_
FNDA:13,_ZN7testing7MatcherIRKhEC2ES2_
FNDA:0,_ZN7testing19MatchResultListenerlsINSt7__cxx1112basic_stringIcSt11char_traitsIcESaIcEEEEERS0_RKT_
FNDA:0,_ZNK7testing8internal11MatcherBaseIRKSt5tupleIJPKhmEEE10DescribeToEPSo
FNDA:0,_ZNK7testing8internal11MatcherBaseIRKSt5tupleIJP18BLEServerCallbacksP26BLECharacteristicCallbacksEEE10DescribeToEPSo
FNDA:0,_ZN7testing8internal11MatcherBaseIP26BLECharacteristicCallbacksED0Ev
FNDA:4,_ZN7testing7MatcherIRKSt5tupleIJtEEEC2EPKNS_16MatcherInterfaceIS4_EE
FNDA:64,_ZN7testing7MatcherIRKSt5tupleIJhhhhhEEEC2EPKNS_16MatcherInterfaceIS4_EE
FNDA:0,_ZNK7testing8internal11MatcherBaseIRKSt5tupleIJP26BLECharacteristicCallbacksEEE15MatchAndExplainES7_PNS_19MatchResultListenerE
FNDA:0,_ZN7testing8internal11MatcherBaseIRKSt5tupleIJtEEED0Ev
FNDA:895,_ZN7testing8internal11MatcherBaseIhEC2EOS2_
FNDA:0,_ZN7testing8internal11MatcherBaseIRKSt5tupleIJhhhhEEED2Ev
FNDA:10,_ZN7testing8internal14ComparisonBaseINS0_9EqMatcherIP26BLECharacteristicCallbacksEES4_NS0_5AnyEqEEC2ERKS4_
FNDA:175,_ZN7testing8internal11MatcherBaseIRKSt5tupleIJhhEEEC2EPKNS_16MatcherInterfaceIS5_EE
FNDA:0,_ZNK7testing8internal14ComparisonBaseINS0_9EqMatcherIP18BLEServerCallbacksEES4_NS0_5AnyEqEE4ImplIRKS4_S4_E10DescribeToEPSo
FNDA:0,_ZN7testing8internal11MatcherBaseIPhEC2ERKS3_
FNDA:75,_ZN7testing8internal11MatcherBaseIRKhED2Ev
FNDA:10,_ZN7testing8internal11MatcherBaseIP26BLECharacteristicCallbacksEC2Ev
FNDA:4,_ZN7testing8internal11MatcherBaseItEC2EOS2_
FNDA:1587,_ZN7testing25MatcherDescriberInterfaceD2Ev
FNDA:10,_ZNK7testing8internal11MatcherBaseIRKSt5tupleIJPKhmEEE15MatchAndExplainES7_PNS_19MatchResultListenerE
FNDA:0,_ZN7testing8internal11MatcherBaseIRKSt5tupleIJPKhmhEEED0Ev
FNDA:0,_ZN7testing8internal9EqMatcherItE11NegatedDescEv
FNDA:0,_ZN7testing8internal9EqMatcherIP18BLEServerCallbacksE11NegatedDescEv
FNDA:5,_ZNK7testing8internal11MatcherBaseImE7MatchesERKm
FNDA:0,_ZN7testing8internal11MatcherBaseIRKSt5tupleIJmEEED2Ev
FNDA:225,_ZN7testing7MatcherIRKSt5tupleIJhEEEC2EPKNS_16MatcherInterfaceIS4_EE
FNDA:157,_ZN7testing7MatcherIRKSt5tupleIJEEEC2EPKNS_16MatcherInterfaceIS4_EE
FNDA:0,_ZNK7testing8internal11MatcherBaseIRKSt5tupleIJPhmEEE7MatchesES6_
FNDA:0,_ZNK7testing8internal11MatcherBaseIPKhE10DescribeToEPSo
FNDA:10,_ZNK7testing8internal14ComparisonBaseINS0_9EqMatcherIP18BLEServerCallbacksEES4_NS0_5AnyEqEE4ImplIRKS4_S4_E15MatchAndExplainESA_PNS_19MatchResultListenerE
FNDA:175,_ZN7testing7MatcherIRKSt5tupleIJhhEEEC2EPKNS_16MatcherInterfaceIS4_EE
FNDA:0,_ZNK7testing8internal11MatcherBaseIRKSt5tupleIJhhhhhEEE10DescribeToEPSo
FNDA:0,_ZNK7testing8internal11MatcherBaseIRKSt5tupleIJhiEEE10DescribeToEPSo
FNDA:4,_ZN7testing8internal11MatcherBaseItEC2Ev
FNDA:0,_ZN7testing8internal11MatcherBaseIRKSt5tupleIJhhhhEEED0Ev
FNDA:895,_ZN7testing8internal11MatcherBaseIhEC2Ev
FNDA:4,_ZN7testing8internal11MatcherBaseIRKSt5tupleIJtEEED2Ev
FNDA:0,_ZNK7testing8internal11MatcherBaseIRKSt5tupleIJtsEEE7MatchesES5_
FNDA:0,_ZN7testing8internal11MatcherBaseIsED2Ev
FNDA:0,_ZNK7testing8internal11MatcherBaseIRKSt5tupleIJP18BLEServerCallbacksEEE15MatchAndExplainES7_PNS_19MatchResultListenerE
FNDA:0,_ZNK7testing8internal11MatcherBaseItE10DescribeToEPSo
FNDA:30,_ZN7testing8internal11MatcherBaseIP18BLEServerCallbacksEC2ERKS4_
FNDA:0,_ZNK7testing8internal14ComparisonBaseINS0_9EqMatcherIP26BLECharacteristicCallbacksEES4_NS0_5AnyEqEE4ImplIRKS4_S4_E10DescribeToEPSo
FNDA:0,_ZN7testing8internal11MatcherBaseIPhED0Ev
FNDA:0,_ZN7testing8internal11MatcherBaseIRKSt5tupleIJhhhhhEEED0Ev
FNDA:10,_ZNK7testing19MatchResultListener12IsInterestedEv
FNDA:0,_ZN7testing8internal9EqMatcherItE4DescEv
FNDA:204,_ZNK7testing8internal11MatcherBaseIRKSt5tupleIJEEE7MatchesES5_
FNDA:4,_ZN7testing8internal14ComparisonBaseINS0_9EqMatcherItEEtNS0_5AnyEqEE6UnwrapItEERKT_S9_
FNDA:0,_ZN7testing8internal11MatcherBaseIRKSt5tupleIJEEED0Ev
FNDA:0,_ZNK7testing8internal11MatcherBaseIRKSt5tupleIJhiEEE15MatchAndExplainES5_PNS_19MatchResultListenerE
FNDA:0,_ZN7testing8internal11MatcherBaseIiEC2ERKS2_
FNDA:4,_ZN7testing8internal11MatcherBaseImEC2EOS2_
FNDA:0,_ZN7testing19MatchResultListener6streamEv
FNDA:10,_ZN7testing8internal11MatcherBaseIP26BLECharacteristicCallbacksEaSEOS4_
FNDA:10,_ZNK7testing8internal11MatcherBaseIP26BLECharacteristicCallbacksE7MatchesERKS3_
FNDA:256,_ZNK7testing8internal11MatcherBaseIRKSt5tupleIJhEEE7MatchesES5_
FNDA:1297,_ZNK7testing8internal5AnyEqclIhhEEbRKT_RKT0_
FNDA:10,_ZNK7testing8internal11MatcherBaseIP18BLEServerCallbacksE15MatchAndExplainERKS3_PNS_19MatchResultListenerE
FNDA:0,_ZNK7testing8internal11MatcherBaseIRKSt5tupleIJhhhhEEE7MatchesES5_
FNDA:0,_ZN7testing8internal11MatcherBaseIRKSt5tupleIJP26BLECharacteristicCallbacksEEED0Ev
FNDA:0,_ZNK7testing8internal14ComparisonBaseINS0_9EqMatcherIhEEhNS0_5AnyEqEE4ImplIRKhhE10DescribeToEPSo
FNDA:157,_ZN7testing8internal11MatcherBaseIRKSt5tupleIJEEED2Ev
FNDA:2056,_ZN7testing19MatchResultListenerC2EPSo
FNDA:204,_ZNK7testing8internal11MatcherBaseIRKSt5tupleIJEEE15MatchAndExplainES5_PNS_19MatchResultListenerE
FNDA:0,_ZN7testing19MatchResultListenerlsIA11_cEERS0_RKT_
FNDA:0,_ZN7testing8internal11MatcherBaseIiED2Ev
FNDA:4,_ZN7testing8internal11MatcherBaseImEC2EPKNS_16MatcherInterfaceIRKmEE
FNDA:10,_ZN7testing7MatcherIP26BLECharacteristicCallbacksEC2EPKNS_16MatcherInterfaceIRKS2_EE
FNDA:60,_ZN7testing8internal11MatcherBaseIP18BLEServerCallbacksED2Ev
FNDA:0,_ZNK7testing8internal11MatcherBaseIiE7MatchesERKi
FNDA:4,_ZNK7testing8internal14ComparisonBaseINS0_9EqMatcherItEEtNS0_5AnyEqEEcvNS_7MatcherIT_EEItEEv
FNDA:175,_ZN7testing8internal11MatcherBaseIRKSt5tupleIJhhEEED2Ev
FNDA:0,_ZN7testing8internal11MatcherBaseIPKhED0Ev
FNDA:0,_ZNK7testing8internal14ComparisonBaseINS0_9EqMatcherIP18BLEServerCallbacksEES4_NS0_5AnyEqEE4ImplIRKS4_S4_E18DescribeNegationToEPSo
FNDA:10,_ZN7testing8internal11MatcherBaseIRKSt5tupleIJP18BLEServerCallbacksP26BLECharacteristicCallbacksEEEC2EPKNS_16MatcherInterfaceIS9_EE
FNDA:5,_ZNK7testing8internal11MatcherBaseIPKhE7MatchesERKS3_
FNDA:0,_ZN7testing19MatchResultListenerD0Ev
FNDA:10,_ZNK7testing8internal11MatcherBaseIRKSt5tupleIJP18BLEServerCallbacksP26BLECharacteristicCallbacksEEE15MatchAndExplainES9_PNS_19MatchResultListenerE
FNDA:0,_ZN7testing8internal9EqMatcherIP26BLECharacteristicCallbacksE11NegatedDescEv
FNF:260
FNH:139
DA:84,2056
DA:90,0
DA:91,0
DA:92,0
DA:96,0
DA:102,10
DA:110,2056
DA:111,2056
DA:117,1587
DA:132,0
DA:133,0
DA:134,0
DA:135,0
DA:136,0
DA:210,1321
DA:236,2056
DA:258,936
DA:262,2056
DA:263,2056
DA:267,2056
DA:268,2056
DA:269,4112
DA:273,0
DA:276,0
DA:277,0
DA:278,0
DA:294,932
DA:297,1587
DA:306,2794
DA:308,963
DA:311,6276
DA:332,1587
DA:333,1587
DA:499,4
DA:500,4
DA:529,932
DA:531,932
DA:532,932
DA:537,1321
DA:544,932
DA:545,1321
DA:547,1321
DA:549,0
DA:550,0
DA:551,0
DA:552,0
DA:553,0
DA:554,0
DA:555,0
DA:556,0
DA:567,932
DA:568,932
DA:569,0
DA:570,0
DA:693,932
DA:698,932
LF:56
LH:33
end_of_record
TN:
SF:/home/pieter/GitHub/Control-Surface/build/googletest/googletest-src/googletest/include/gtest/gtest-message.h
FN:101,_ZN7testing7MessageC2ERKS0_
FN:112,_ZN7testing7MessagelsIA3_cEERS0_RKT_
FN:112,_ZN7testing7MessagelsIA12_cEERS0_RKT_
FN:112,_ZN7testing7MessagelsIA5_cEERS0_RKT_
FN:112,_ZN7testing7MessagelsINSt7__cxx1112basic_stringIcSt11char_traitsIcESaIcEEEEERS0_RKT_
FN:112,_ZN7testing7MessagelsImEERS0_RKT_
FN:146,_ZN7testing7MessagelsIKcEERS0_RKPT_
FN:198,_ZN7testinglsERSoRKNS_7MessageE
FNDA:0,_ZN7testing7MessagelsINSt7__cxx1112basic_stringIcSt11char_traitsIcESaIcEEEEERS0_RKT_
FNDA:0,_ZN7testing7MessagelsIA5_cEERS0_RKT_
FNDA:0,_ZN7testing7MessagelsImEERS0_RKT_
FNDA:0,_ZN7testinglsERSoRKNS_7MessageE
FNDA:18,_ZN7testing7MessagelsIKcEERS0_RKPT_
FNDA:0,_ZN7testing7MessagelsIA12_cEERS0_RKT_
FNDA:0,_ZN7testing7MessagelsIA3_cEERS0_RKT_
FNDA:0,_ZN7testing7MessageC2ERKS0_
FNF:8
FNH:1
DA:101,0
DA:102,0
DA:103,0
DA:112,0
DA:128,0
DA:129,0
DA:146,18
DA:147,18
DA:148,0
DA:150,18
DA:152,18
DA:198,0
DA:199,0
LF:13
LH:4
end_of_record
TN:
SF:/home/pieter/GitHub/Control-Surface/build/googletest/googletest-src/googletest/include/gtest/gtest-printers.h
FN:153,_ZN7testing9internal220TypeWithoutFormatterI5ArrayIjLm4EELNS0_8TypeKindE2EE10PrintValueERKS3_PSo
FN:153,_ZN7testing9internal220TypeWithoutFormatterI7ChannelLNS0_8TypeKindE2EE10PrintValueERKS2_PSo
FN:153,_ZN7testing9internal220TypeWithoutFormatterI5ArrayIiLm5EELNS0_8TypeKindE2EE10PrintValueERKS3_PSo
FN:153,_ZN7testing9internal220TypeWithoutFormatterI20MIDICNChannelAddressLNS0_8TypeKindE2EE10PrintValueERKS2_PSo
FN:153,_ZN7testing9internal220TypeWithoutFormatterI12MIDI_messageLNS0_8TypeKindE2EE10PrintValueERKS2_PSo
FN:187,_ZN7testing9internal220TypeWithoutFormatterIN6Button5StateELNS0_8TypeKindE1EE10PrintValueERKS3_PSo
FN:187,_ZN7testing9internal220TypeWithoutFormatterI11MIDI_read_tLNS0_8TypeKindE1EE10PrintValueERKS2_PSo
FN:231,_ZN7testing9internal2lsIcSt11char_traitsIcE5ArrayIiLm5EEEERSt13basic_ostreamIT_T0_ESA_RKT1_
FN:231,_ZN7testing9internal2lsIcSt11char_traitsIcE20MIDICNChannelAddressEERSt13basic_ostreamIT_T0_ES9_RKT1_
FN:231,_ZN7testing9internal2lsIcSt11char_traitsIcE7ChannelEERSt13basic_ostreamIT_T0_ES9_RKT1_
FN:231,_ZN7testing9internal2lsIcSt11char_traitsIcE5ArrayIjLm4EEEERSt13basic_ostreamIT_T0_ESA_RKT1_
FN:231,_ZN7testing9internal2lsIcSt11char_traitsIcE11MIDI_read_tEERSt13basic_ostreamIT_T0_ES9_RKT1_
FN:231,_ZN7testing9internal2lsIcSt11char_traitsIcE12MIDI_messageEERSt13basic_ostreamIT_T0_ES9_RKT1_
FN:231,_ZN7testing9internal2lsIcSt11char_traitsIcEN6Button5StateEEERSt13basic_ostreamIT_T0_ESA_RKT1_
FN:259,_ZN16testing_internal26DefaultPrintNonContainerToItEEvRKT_PSo
FN:259,_ZN16testing_internal26DefaultPrintNonContainerToImEEvRKT_PSo
FN:259,_ZN16testing_internal26DefaultPrintNonContainerToI12MIDI_messageEEvRKT_PSo
FN:259,_ZN16testing_internal26DefaultPrintNonContainerToIiEEvRKT_PSo
FN:259,_ZN16testing_internal26DefaultPrintNonContainerToI11MIDI_read_tEEvRKT_PSo
FN:259,_ZN16testing_internal26DefaultPrintNonContainerToIlEEvRKT_PSo
FN:259,_ZN16testing_internal26DefaultPrintNonContainerToI5ArrayIiLm5EEEEvRKT_PSo
FN:259,_ZN16testing_internal26DefaultPrintNonContainerToIN6Button5StateEEEvRKT_PSo
FN:259,_ZN16testing_internal26DefaultPrintNonContainerToIsEEvRKT_PSo
FN:259,_ZN16testing_internal26DefaultPrintNonContainerToI5ArrayIjLm4EEEEvRKT_PSo
FN:259,_ZN16testing_internal26DefaultPrintNonContainerToI7ChannelEEvRKT_PSo
FN:259,_ZN16testing_internal26DefaultPrintNonContainerToI20MIDICNChannelAddressEEvRKT_PSo
FN:312,_ZN7testing8internal19FormatForComparisonIihE6FormatB5cxx11ERKi
FN:312,_ZN7testing8internal19FormatForComparisonIN6Button5StateES3_E6FormatB5cxx11ERKS3_
FN:312,_ZN7testing8internal19FormatForComparisonIccE6FormatB5cxx11ERKc
FN:312,_ZN7testing8internal19FormatForComparisonIP8TestNodeS3_E6FormatB5cxx11ERKS3_
FN:312,_ZN7testing8internal19FormatForComparisonIbbE6FormatB5cxx11ERKb
FN:312,_ZN7testing8internal19FormatForComparisonIhiE6FormatB5cxx11ERKh
FN:312,_ZN7testing8internal19FormatForComparisonISt6vectorIhSaIhEES4_E6FormatB5cxx11ERKS4_
FN:312,_ZN7testing8internal19FormatForComparisonIP8TestNodeDnE6FormatB5cxx11ERKS3_
FN:312,_ZN7testing8internal19FormatForComparisonI20MIDICNChannelAddressS2_E6FormatB5cxx11ERKS2_
FN:312,_ZN7testing8internal19FormatForComparisonI7ChannelS2_E6FormatB5cxx11ERKS2_
FN:312,_ZN7testing8internal19FormatForComparisonIiiE6FormatB5cxx11ERKi
FN:312,_ZN7testing8internal19FormatForComparisonISt6vectorI12MIDI_messageSaIS3_EES5_E6FormatB5cxx11ERKS5_
FN:312,_ZN7testing8internal19FormatForComparisonIimE6FormatB5cxx11ERKi
FN:312,_ZN7testing8internal19FormatForComparisonI11MIDI_read_tiE6FormatB5cxx11ERKS2_
FN:312,_ZN7testing8internal19FormatForComparisonI5ArrayIiLm5EES3_E6FormatB5cxx11ERKS3_
FN:312,_ZN7testing8internal19FormatForComparisonIDnP8TestNodeE6FormatB5cxx11ERKDn
FN:312,_ZN7testing8internal19FormatForComparisonI11MIDI_read_tS2_E6FormatB5cxx11ERKS2_
FN:312,_ZN7testing8internal19FormatForComparisonIi11MIDI_read_tE6FormatB5cxx11ERKi
FN:312,_ZN7testing8internal19FormatForComparisonI5ArrayIjLm4EES3_E6FormatB5cxx11ERKS3_
FN:312,_ZN7testing8internal19FormatForComparisonISt6vectorIiSaIiEES4_E6FormatB5cxx11ERKS4_
FN:312,_ZN7testing8internal19FormatForComparisonImiE6FormatB5cxx11ERKm
FN:376,_ZN7testing8internal33FormatForComparisonFailureMessageI11MIDI_read_tS2_EENSt7__cxx1112basic_stringIcSt11char_traitsIcESaIcEEERKT_RKT0_
FN:376,_ZN7testing8internal33FormatForComparisonFailureMessageISt6vectorI12MIDI_messageSaIS3_EES5_EENSt7__cxx1112basic_stringIcSt11char_traitsIcESaIcEEERKT_RKT0_
FN:376,_ZN7testing8internal33FormatForComparisonFailureMessageIimEENSt7__cxx1112basic_stringIcSt11char_traitsIcESaIcEEERKT_RKT0_
FN:376,_ZN7testing8internal33FormatForComparisonFailureMessageIhiEENSt7__cxx1112basic_stringIcSt11char_traitsIcESaIcEEERKT_RKT0_
FN:376,_ZN7testing8internal33FormatForComparisonFailureMessageIP8TestNodeS3_EENSt7__cxx1112basic_stringIcSt11char_traitsIcESaIcEEERKT_RKT0_
FN:376,_ZN7testing8internal33FormatForComparisonFailureMessageI7ChannelS2_EENSt7__cxx1112basic_stringIcSt11char_traitsIcESaIcEEERKT_RKT0_
FN:376,_ZN7testing8internal33FormatForComparisonFailureMessageIihEENSt7__cxx1112basic_stringIcSt11char_traitsIcESaIcEEERKT_RKT0_
FN:376,_ZN7testing8internal33FormatForComparisonFailureMessageIDnP8TestNodeEENSt7__cxx1112basic_stringIcSt11char_traitsIcESaIcEEERKT_RKT0_
FN:376,_ZN7testing8internal33FormatForComparisonFailureMessageI5ArrayIiLm5EES3_EENSt7__cxx1112basic_stringIcSt11char_traitsIcESaIcEEERKT_RKT0_
FN:376,_ZN7testing8internal33FormatForComparisonFailureMessageIccEENSt7__cxx1112basic_stringIcSt11char_traitsIcESaIcEEERKT_RKT0_
FN:376,_ZN7testing8internal33FormatForComparisonFailureMessageI20MIDICNChannelAddressS2_EENSt7__cxx1112basic_stringIcSt11char_traitsIcESaIcEEERKT_RKT0_
FN:376,_ZN7testing8internal33FormatForComparisonFailureMessageIi11MIDI_read_tEENSt7__cxx1112basic_stringIcSt11char_traitsIcESaIcEEERKT_RKT0_
FN:376,_ZN7testing8internal33FormatForComparisonFailureMessageI11MIDI_read_tiEENSt7__cxx1112basic_stringIcSt11char_traitsIcESaIcEEERKT_RKT0_
FN:376,_ZN7testing8internal33FormatForComparisonFailureMessageISt6vectorIiSaIiEES4_EENSt7__cxx1112basic_stringIcSt11char_traitsIcESaIcEEERKT_RKT0_
FN:376,_ZN7testing8internal33FormatForComparisonFailureMessageIN6Button5StateES3_EENSt7__cxx1112basic_stringIcSt11char_traitsIcESaIcEEERKT_RKT0_
FN:376,_ZN7testing8internal33FormatForComparisonFailureMessageISt6vectorIhSaIhEES4_EENSt7__cxx1112basic_stringIcSt11char_traitsIcESaIcEEERKT_RKT0_
FN:376,_ZN7testing8internal33FormatForComparisonFailureMessageIbbEENSt7__cxx1112basic_stringIcSt11char_traitsIcESaIcEEERKT_RKT0_
FN:376,_ZN7testing8internal33FormatForComparisonFailureMessageIP8TestNodeDnEENSt7__cxx1112basic_stringIcSt11char_traitsIcESaIcEEERKT_RKT0_
FN:376,_ZN7testing8internal33FormatForComparisonFailureMessageI5ArrayIjLm4EES3_EENSt7__cxx1112basic_stringIcSt11char_traitsIcESaIcEEERKT_RKT0_
FN:376,_ZN7testing8internal33FormatForComparisonFailureMessageIiiEENSt7__cxx1112basic_stringIcSt11char_traitsIcESaIcEEERKT_RKT0_
FN:376,_ZN7testing8internal33FormatForComparisonFailureMessageImiEENSt7__cxx1112basic_stringIcSt11char_traitsIcESaIcEEERKT_RKT0_
FN:405,_ZN7testing8internal14DefaultPrintToISt6vectorI12MIDI_messageSaIS3_EEEEvNS0_15WrapPrinterTypeILNS0_18DefaultPrinterTypeE0EEERKT_PSo
FN:405,_ZN7testing8internal14DefaultPrintToISt6vectorIhSaIhEEEEvNS0_15WrapPrinterTypeILNS0_18DefaultPrinterTypeE0EEERKT_PSo
FN:405,_ZN7testing8internal14DefaultPrintToISt6vectorIiSaIiEEEEvNS0_15WrapPrinterTypeILNS0_18DefaultPrinterTypeE0EEERKT_PSo
FN:438,_ZN7testing8internal14DefaultPrintToIKvEEvNS0_15WrapPrinterTypeILNS0_18DefaultPrinterTypeE1EEEPT_PSo
FN:438,_ZN7testing8internal14DefaultPrintToI8TestNodeEEvNS0_15WrapPrinterTypeILNS0_18DefaultPrinterTypeE1EEEPT_PSo
FN:438,_ZN7testing8internal14DefaultPrintToI26BLECharacteristicCallbacksEEvNS0_15WrapPrinterTypeILNS0_18DefaultPrinterTypeE1EEEPT_PSo
FN:438,_ZN7testing8internal14DefaultPrintToI18BLEServerCallbacksEEvNS0_15WrapPrinterTypeILNS0_18DefaultPrinterTypeE1EEEPT_PSo
FN:465,_ZN7testing8internal14DefaultPrintToImEEvNS0_15WrapPrinterTypeILNS0_18DefaultPrinterTypeE3EEERKT_PSo
FN:465,_ZN7testing8internal14DefaultPrintToIlEEvNS0_15WrapPrinterTypeILNS0_18DefaultPrinterTypeE3EEERKT_PSo
FN:465,_ZN7testing8internal14DefaultPrintToI11MIDI_read_tEEvNS0_15WrapPrinterTypeILNS0_18DefaultPrinterTypeE3EEERKT_PSo
FN:465,_ZN7testing8internal14DefaultPrintToIsEEvNS0_15WrapPrinterTypeILNS0_18DefaultPrinterTypeE3EEERKT_PSo
FN:465,_ZN7testing8internal14DefaultPrintToIN6Button5StateEEEvNS0_15WrapPrinterTypeILNS0_18DefaultPrinterTypeE3EEERKT_PSo
FN:465,_ZN7testing8internal14DefaultPrintToI20MIDICNChannelAddressEEvNS0_15WrapPrinterTypeILNS0_18DefaultPrinterTypeE3EEERKT_PSo
FN:465,_ZN7testing8internal14DefaultPrintToI5ArrayIjLm4EEEEvNS0_15WrapPrinterTypeILNS0_18DefaultPrinterTypeE3EEERKT_PSo
FN:465,_ZN7testing8internal14DefaultPrintToI5ArrayIiLm5EEEEvNS0_15WrapPrinterTypeILNS0_18DefaultPrinterTypeE3EEERKT_PSo
FN:465,_ZN7testing8internal14DefaultPrintToItEEvNS0_15WrapPrinterTypeILNS0_18DefaultPrinterTypeE3EEERKT_PSo
FN:465,_ZN7testing8internal14DefaultPrintToIiEEvNS0_15WrapPrinterTypeILNS0_18DefaultPrinterTypeE3EEERKT_PSo
FN:465,_ZN7testing8internal14DefaultPrintToI12MIDI_messageEEvNS0_15WrapPrinterTypeILNS0_18DefaultPrinterTypeE3EEERKT_PSo
FN:465,_ZN7testing8internal14DefaultPrintToI7ChannelEEvNS0_15WrapPrinterTypeILNS0_18DefaultPrinterTypeE3EEERKT_PSo
FN:482,_ZN7testing8internal7PrintToIiEEvRKT_PSo
FN:482,_ZN7testing8internal7PrintToIP8TestNodeEEvRKT_PSo
FN:482,_ZN7testing8internal7PrintToISt6vectorI12MIDI_messageSaIS3_EEEEvRKT_PSo
FN:482,_ZN7testing8internal7PrintToIsEEvRKT_PSo
FN:482,_ZN7testing8internal7PrintToI7ChannelEEvRKT_PSo
FN:482,_ZN7testing8internal7PrintToI5ArrayIiLm5EEEEvRKT_PSo
FN:482,_ZN7testing8internal7PrintToISt6vectorIhSaIhEEEEvRKT_PSo
FN:482,_ZN7testing8internal7PrintToIlEEvRKT_PSo
FN:482,_ZN7testing8internal7PrintToItEEvRKT_PSo
FN:482,_ZN7testing8internal7PrintToIP18BLEServerCallbacksEEvRKT_PSo
FN:482,_ZN7testing8internal7PrintToIPKvEEvRKT_PSo
FN:482,_ZN7testing8internal7PrintToIP26BLECharacteristicCallbacksEEvRKT_PSo
FN:482,_ZN7testing8internal7PrintToISt6vectorIiSaIiEEEEvRKT_PSo
FN:482,_ZN7testing8internal7PrintToImEEvRKT_PSo
FN:482,_ZN7testing8internal7PrintToI20MIDICNChannelAddressEEvRKT_PSo
FN:482,_ZN7testing8internal7PrintToIN6Button5StateEEEvRKT_PSo
FN:482,_ZN7testing8internal7PrintToI12MIDI_messageEEvRKT_PSo
FN:482,_ZN7testing8internal7PrintToI5ArrayIjLm4EEEEvRKT_PSo
FN:482,_ZN7testing8internal7PrintToI11MIDI_read_tEEvRKT_PSo
FN:522,_ZN7testing8internal7PrintToEcPSo
FN:530,_ZN7testing8internal7PrintToEbPSo
FN:557,_ZN7testing8internal7PrintToEPKhPSo
FN:560,_ZN7testing8internal7PrintToEPhPSo
FN:593,_ZN7testing8internal7PrintToERKNSt7__cxx1112basic_stringIcSt11char_traitsIcESaIcEEEPSo
FN:612,_ZN7testing8internal7PrintToEDnPSo
FN:622,_ZN7testing8internal12PrintTupleToISt5tupleIJP18BLEServerCallbacksEEEEvRKT_St17integral_constantImLm0EEPSo
FN:622,_ZN7testing8internal12PrintTupleToISt5tupleIJhhEEEEvRKT_St17integral_constantImLm0EEPSo
FN:622,_ZN7testing8internal12PrintTupleToISt5tupleIJtEEEEvRKT_St17integral_constantImLm0EEPSo
FN:622,_ZN7testing8internal12PrintTupleToISt5tupleIJP18BLEServerCallbacksP26BLECharacteristicCallbacksEEEEvRKT_St17integral_constantImLm0EEPSo
FN:622,_ZN7testing8internal12PrintTupleToISt5tupleIJPKhmhEEEEvRKT_St17integral_constantImLm0EEPSo
FN:622,_ZN7testing8internal12PrintTupleToISt5tupleIJhhhhhEEEEvRKT_St17integral_constantImLm0EEPSo
FN:622,_ZN7testing8internal12PrintTupleToISt5tupleIJPhmEEEEvRKT_St17integral_constantImLm0EEPSo
FN:622,_ZN7testing8internal12PrintTupleToISt5tupleIJPKhmEEEEvRKT_St17integral_constantImLm0EEPSo
FN:622,_ZN7testing8internal12PrintTupleToISt5tupleIJhhhhEEEEvRKT_St17integral_constantImLm0EEPSo
FN:622,_ZN7testing8internal12PrintTupleToISt5tupleIJEEEEvRKT_St17integral_constantImLm0EEPSo
FN:622,_ZN7testing8internal12PrintTupleToISt5tupleIJtsEEEEvRKT_St17integral_constantImLm0EEPSo
FN:622,_ZN7testing8internal12PrintTupleToISt5tupleIJhiEEEEvRKT_St17integral_constantImLm0EEPSo
FN:622,_ZN7testing8internal12PrintTupleToISt5tupleIJthEEEEvRKT_St17integral_constantImLm0EEPSo
FN:622,_ZN7testing8internal12PrintTupleToISt5tupleIJmEEEEvRKT_St17integral_constantImLm0EEPSo
FN:622,_ZN7testing8internal12PrintTupleToISt5tupleIJhEEEEvRKT_St17integral_constantImLm0EEPSo
FN:622,_ZN7testing8internal12PrintTupleToISt5tupleIJP26BLECharacteristicCallbacksEEEEvRKT_St17integral_constantImLm0EEPSo
FN:626,_ZN7testing8internal12PrintTupleToISt5tupleIJmEELm1EEEvRKT_St17integral_constantImXT0_EEPSo
FN:626,_ZN7testing8internal12PrintTupleToISt5tupleIJP18BLEServerCallbacksP26BLECharacteristicCallbacksEELm1EEEvRKT_St17integral_constantImXT0_EEPSo
FN:626,_ZN7testing8internal12PrintTupleToISt5tupleIJhiEELm1EEEvRKT_St17integral_constantImXT0_EEPSo
FN:626,_ZN7testing8internal12PrintTupleToISt5tupleIJPKhmEELm2EEEvRKT_St17integral_constantImXT0_EEPSo
FN:626,_ZN7testing8internal12PrintTupleToISt5tupleIJP18BLEServerCallbacksP26BLECharacteristicCallbacksEELm2EEEvRKT_St17integral_constantImXT0_EEPSo
FN:626,_ZN7testing8internal12PrintTupleToISt5tupleIJtsEELm2EEEvRKT_St17integral_constantImXT0_EEPSo
FN:626,_ZN7testing8internal12PrintTupleToISt5tupleIJthEELm2EEEvRKT_St17integral_constantImXT0_EEPSo
FN:626,_ZN7testing8internal12PrintTupleToISt5tupleIJhiEELm2EEEvRKT_St17integral_constantImXT0_EEPSo
FN:626,_ZN7testing8internal12PrintTupleToISt5tupleIJPhmEELm1EEEvRKT_St17integral_constantImXT0_EEPSo
FN:626,_ZN7testing8internal12PrintTupleToISt5tupleIJPKhmEELm1EEEvRKT_St17integral_constantImXT0_EEPSo
FN:626,_ZN7testing8internal12PrintTupleToISt5tupleIJhhhhhEELm4EEEvRKT_St17integral_constantImXT0_EEPSo
FN:626,_ZN7testing8internal12PrintTupleToISt5tupleIJhhhhhEELm3EEEvRKT_St17integral_constantImXT0_EEPSo
FN:626,_ZN7testing8internal12PrintTupleToISt5tupleIJhhhhhEELm5EEEvRKT_St17integral_constantImXT0_EEPSo
FN:626,_ZN7testing8internal12PrintTupleToISt5tupleIJPKhmhEELm2EEEvRKT_St17integral_constantImXT0_EEPSo
FN:626,_ZN7testing8internal12PrintTupleToISt5tupleIJP26BLECharacteristicCallbacksEELm1EEEvRKT_St17integral_constantImXT0_EEPSo
FN:626,_ZN7testing8internal12PrintTupleToISt5tupleIJhhhhEELm1EEEvRKT_St17integral_constantImXT0_EEPSo
FN:626,_ZN7testing8internal12PrintTupleToISt5tupleIJhhhhhEELm1EEEvRKT_St17integral_constantImXT0_EEPSo
FN:626,_ZN7testing8internal12PrintTupleToISt5tupleIJhEELm1EEEvRKT_St17integral_constantImXT0_EEPSo
FN:626,_ZN7testing8internal12PrintTupleToISt5tupleIJhhhhEELm4EEEvRKT_St17integral_constantImXT0_EEPSo
FN:626,_ZN7testing8internal12PrintTupleToISt5tupleIJthEELm1EEEvRKT_St17integral_constantImXT0_EEPSo
FN:626,_ZN7testing8internal12PrintTupleToISt5tupleIJtEELm1EEEvRKT_St17integral_constantImXT0_EEPSo
FN:626,_ZN7testing8internal12PrintTupleToISt5tupleIJhhhhhEELm2EEEvRKT_St17integral_constantImXT0_EEPSo
FN:626,_ZN7testing8internal12PrintTupleToISt5tupleIJPKhmhEELm3EEEvRKT_St17integral_constantImXT0_EEPSo
FN:626,_ZN7testing8internal12PrintTupleToISt5tupleIJhhEELm1EEEvRKT_St17integral_constantImXT0_EEPSo
FN:626,_ZN7testing8internal12PrintTupleToISt5tupleIJhhhhEELm2EEEvRKT_St17integral_constantImXT0_EEPSo
FN:626,_ZN7testing8internal12PrintTupleToISt5tupleIJhhhhEELm3EEEvRKT_St17integral_constantImXT0_EEPSo
FN:626,_ZN7testing8internal12PrintTupleToISt5tupleIJhhEELm2EEEvRKT_St17integral_constantImXT0_EEPSo
FN:626,_ZN7testing8internal12PrintTupleToISt5tupleIJPhmEELm2EEEvRKT_St17integral_constantImXT0_EEPSo
FN:626,_ZN7testing8internal12PrintTupleToISt5tupleIJP18BLEServerCallbacksEELm1EEEvRKT_St17integral_constantImXT0_EEPSo
FN:626,_ZN7testing8internal12PrintTupleToISt5tupleIJtsEELm1EEEvRKT_St17integral_constantImXT0_EEPSo
FN:626,_ZN7testing8internal12PrintTupleToISt5tupleIJPKhmhEELm1EEEvRKT_St17integral_constantImXT0_EEPSo
FN:639,_ZN7testing8internal7PrintToIJhiEEEvRKSt5tupleIJDpT_EEPSo
FN:639,_ZN7testing8internal7PrintToIJP26BLECharacteristicCallbacksEEEvRKSt5tupleIJDpT_EEPSo
FN:639,_ZN7testing8internal7PrintToIJhhhhhEEEvRKSt5tupleIJDpT_EEPSo
FN:639,_ZN7testing8internal7PrintToIJP18BLEServerCallbacksEEEvRKSt5tupleIJDpT_EEPSo
FN:639,_ZN7testing8internal7PrintToIJmEEEvRKSt5tupleIJDpT_EEPSo
FN:639,_ZN7testing8internal7PrintToIJP18BLEServerCallbacksP26BLECharacteristicCallbacksEEEvRKSt5tupleIJDpT_EEPSo
FN:639,_ZN7testing8internal7PrintToIJPKhmhEEEvRKSt5tupleIJDpT_EEPSo
FN:639,_ZN7testing8internal7PrintToIJtEEEvRKSt5tupleIJDpT_EEPSo
FN:639,_ZN7testing8internal7PrintToIJhhEEEvRKSt5tupleIJDpT_EEPSo
FN:639,_ZN7testing8internal7PrintToIJPKhmEEEvRKSt5tupleIJDpT_EEPSo
FN:639,_ZN7testing8internal7PrintToIJthEEEvRKSt5tupleIJDpT_EEPSo
FN:639,_ZN7testing8internal7PrintToIJhhhhEEEvRKSt5tupleIJDpT_EEPSo
FN:639,_ZN7testing8internal7PrintToIJPhmEEEvRKSt5tupleIJDpT_EEPSo
FN:639,_ZN7testing8internal7PrintToIJhEEEvRKSt5tupleIJDpT_EEPSo
FN:639,_ZN7testing8internal7PrintToIJEEEvRKSt5tupleIJDpT_EEPSo
FN:639,_ZN7testing8internal7PrintToIJtsEEEvRKSt5tupleIJDpT_EEPSo
FN:669,_ZN7testing8internal16UniversalPrinterISt5tupleIJtsEEE5PrintERKS3_PSo
FN:669,_ZN7testing8internal16UniversalPrinterISt5tupleIJhhhhEEE5PrintERKS3_PSo
FN:669,_ZN7testing8internal16UniversalPrinterISt5tupleIJthEEE5PrintERKS3_PSo
FN:669,_ZN7testing8internal16UniversalPrinterIhE5PrintERKhPSo
FN:669,_ZN7testing8internal16UniversalPrinterISt6vectorI12MIDI_messageSaIS3_EEE5PrintERKS5_PSo
FN:669,_ZN7testing8internal16UniversalPrinterI11MIDI_read_tE5PrintERKS2_PSo
FN:669,_ZN7testing8internal16UniversalPrinterISt5tupleIJEEE5PrintERKS3_PSo
FN:669,_ZN7testing8internal16UniversalPrinterISt5tupleIJtEEE5PrintERKS3_PSo
FN:669,_ZN7testing8internal16UniversalPrinterIcE5PrintERKcPSo
FN:669,_ZN7testing8internal16UniversalPrinterIbE5PrintERKbPSo
FN:669,_ZN7testing8internal16UniversalPrinterIlE5PrintERKlPSo
FN:669,_ZN7testing8internal16UniversalPrinterIPKhE5PrintERKS3_PSo
FN:669,_ZN7testing8internal16UniversalPrinterISt5tupleIJhiEEE5PrintERKS3_PSo
FN:669,_ZN7testing8internal16UniversalPrinterISt5tupleIJhEEE5PrintERKS3_PSo
FN:669,_ZN7testing8internal16UniversalPrinterISt5tupleIJP18BLEServerCallbacksEEE5PrintERKS5_PSo
FN:669,_ZN7testing8internal16UniversalPrinterISt5tupleIJhhEEE5PrintERKS3_PSo
FN:669,_ZN7testing8internal16UniversalPrinterI7ChannelE5PrintERKS2_PSo
FN:669,_ZN7testing8internal16UniversalPrinterIsE5PrintERKsPSo
FN:669,_ZN7testing8internal16UniversalPrinterISt6vectorIhSaIhEEE5PrintERKS4_PSo
FN:669,_ZN7testing8internal16UniversalPrinterISt5tupleIJP18BLEServerCallbacksP26BLECharacteristicCallbacksEEE5PrintERKS7_PSo
FN:669,_ZN7testing8internal16UniversalPrinterImE5PrintERKmPSo
FN:669,_ZN7testing8internal16UniversalPrinterIPhE5PrintERKS2_PSo
FN:669,_ZN7testing8internal16UniversalPrinterIP26BLECharacteristicCallbacksE5PrintERKS3_PSo
FN:669,_ZN7testing8internal16UniversalPrinterIN6Button5StateEE5PrintERKS3_PSo
FN:669,_ZN7testing8internal16UniversalPrinterIiE5PrintERKiPSo
FN:669,_ZN7testing8internal16UniversalPrinterISt5tupleIJhhhhhEEE5PrintERKS3_PSo
FN:669,_ZN7testing8internal16UniversalPrinterIDnE5PrintERKDnPSo
FN:669,_ZN7testing8internal16UniversalPrinterISt5tupleIJmEEE5PrintERKS3_PSo
FN:669,_ZN7testing8internal16UniversalPrinterIP18BLEServerCallbacksE5PrintERKS3_PSo
FN:669,_ZN7testing8internal16UniversalPrinterI5ArrayIiLm5EEE5PrintERKS3_PSo
FN:669,_ZN7testing8internal16UniversalPrinterISt5tupleIJPKhmhEEE5PrintERKS5_PSo
FN:669,_ZN7testing8internal16UniversalPrinterI5ArrayIjLm4EEE5PrintERKS3_PSo
FN:669,_ZN7testing8internal16UniversalPrinterISt5tupleIJP26BLECharacteristicCallbacksEEE5PrintERKS5_PSo
FN:669,_ZN7testing8internal16UniversalPrinterI12MIDI_messageE5PrintERKS2_PSo
FN:669,_ZN7testing8internal16UniversalPrinterIP8TestNodeE5PrintERKS3_PSo
FN:669,_ZN7testing8internal16UniversalPrinterISt6vectorIiSaIiEEE5PrintERKS4_PSo
FN:669,_ZN7testing8internal16UniversalPrinterINSt7__cxx1112basic_stringIcSt11char_traitsIcESaIcEEEE5PrintERKS7_PSo
FN:669,_ZN7testing8internal16UniversalPrinterISt5tupleIJPKhmEEE5PrintERKS5_PSo
FN:669,_ZN7testing8internal16UniversalPrinterISt5tupleIJPhmEEE5PrintERKS4_PSo
FN:669,_ZN7testing8internal16UniversalPrinterItE5PrintERKtPSo
FN:669,_ZN7testing8internal16UniversalPrinterI20MIDICNChannelAddressE5PrintERKS2_PSo
FN:795,_ZN7testing8internal21UniversalTersePrinterISt6vectorIiSaIiEEE5PrintERKS4_PSo
FN:795,_ZN7testing8internal21UniversalTersePrinterISt5tupleIJPKhmEEE5PrintERKS5_PSo
FN:795,_ZN7testing8internal21UniversalTersePrinterI11MIDI_read_tE5PrintERKS2_PSo
FN:795,_ZN7testing8internal21UniversalTersePrinterISt6vectorIhSaIhEEE5PrintERKS4_PSo
FN:795,_ZN7testing8internal21UniversalTersePrinterISt6vectorI12MIDI_messageSaIS3_EEE5PrintERKS5_PSo
FN:795,_ZN7testing8internal21UniversalTersePrinterI7ChannelE5PrintERKS2_PSo
FN:795,_ZN7testing8internal21UniversalTersePrinterI5ArrayIiLm5EEE5PrintERKS3_PSo
FN:795,_ZN7testing8internal21UniversalTersePrinterI5ArrayIjLm4EEE5PrintERKS3_PSo
FN:795,_ZN7testing8internal21UniversalTersePrinterIDnE5PrintERKDnPSo
FN:795,_ZN7testing8internal21UniversalTersePrinterIbE5PrintERKbPSo
FN:795,_ZN7testing8internal21UniversalTersePrinterIhE5PrintERKhPSo
FN:795,_ZN7testing8internal21UniversalTersePrinterIP8TestNodeE5PrintERKS3_PSo
FN:795,_ZN7testing8internal21UniversalTersePrinterImE5PrintERKmPSo
FN:795,_ZN7testing8internal21UniversalTersePrinterIcE5PrintERKcPSo
FN:795,_ZN7testing8internal21UniversalTersePrinterIN6Button5StateEE5PrintERKS3_PSo
FN:795,_ZN7testing8internal21UniversalTersePrinterI20MIDICNChannelAddressE5PrintERKS2_PSo
FN:795,_ZN7testing8internal21UniversalTersePrinterIiE5PrintERKiPSo
FN:864,_ZN7testing8internal14UniversalPrintISt5tupleIJP18BLEServerCallbacksP26BLECharacteristicCallbacksEEEEvRKT_PSo
FN:864,_ZN7testing8internal14UniversalPrintIbEEvRKT_PSo
FN:864,_ZN7testing8internal14UniversalPrintISt5tupleIJtsEEEEvRKT_PSo
FN:864,_ZN7testing8internal14UniversalPrintIiEEvRKT_PSo
FN:864,_ZN7testing8internal14UniversalPrintIDnEEvRKT_PSo
FN:864,_ZN7testing8internal14UniversalPrintI5ArrayIjLm4EEEEvRKT_PSo
FN:864,_ZN7testing8internal14UniversalPrintISt5tupleIJPhmEEEEvRKT_PSo
FN:864,_ZN7testing8internal14UniversalPrintIN6Button5StateEEEvRKT_PSo
FN:864,_ZN7testing8internal14UniversalPrintISt5tupleIJP26BLECharacteristicCallbacksEEEEvRKT_PSo
FN:864,_ZN7testing8internal14UniversalPrintISt5tupleIJP18BLEServerCallbacksEEEEvRKT_PSo
FN:864,_ZN7testing8internal14UniversalPrintISt5tupleIJEEEEvRKT_PSo
FN:864,_ZN7testing8internal14UniversalPrintISt5tupleIJPKhmEEEEvRKT_PSo
FN:864,_ZN7testing8internal14UniversalPrintISt6vectorIiSaIiEEEEvRKT_PSo
FN:864,_ZN7testing8internal14UniversalPrintIcEEvRKT_PSo
FN:864,_ZN7testing8internal14UniversalPrintISt5tupleIJhhhhhEEEEvRKT_PSo
FN:864,_ZN7testing8internal14UniversalPrintISt5tupleIJhhhhEEEEvRKT_PSo
FN:864,_ZN7testing8internal14UniversalPrintISt5tupleIJtEEEEvRKT_PSo
FN:864,_ZN7testing8internal14UniversalPrintISt6vectorIhSaIhEEEEvRKT_PSo
FN:864,_ZN7testing8internal14UniversalPrintISt5tupleIJmEEEEvRKT_PSo
FN:864,_ZN7testing8internal14UniversalPrintIPKhEEvRKT_PSo
FN:864,_ZN7testing8internal14UniversalPrintImEEvRKT_PSo
FN:864,_ZN7testing8internal14UniversalPrintIPhEEvRKT_PSo
FN:864,_ZN7testing8internal14UniversalPrintIsEEvRKT_PSo
FN:864,_ZN7testing8internal14UniversalPrintI20MIDICNChannelAddressEEvRKT_PSo
FN:864,_ZN7testing8internal14UniversalPrintIP18BLEServerCallbacksEEvRKT_PSo
FN:864,_ZN7testing8internal14UniversalPrintIP8TestNodeEEvRKT_PSo
FN:864,_ZN7testing8internal14UniversalPrintIP26BLECharacteristicCallbacksEEvRKT_PSo
FN:864,_ZN7testing8internal14UniversalPrintI12MIDI_messageEEvRKT_PSo
FN:864,_ZN7testing8internal14UniversalPrintISt5tupleIJhEEEEvRKT_PSo
FN:864,_ZN7testing8internal14UniversalPrintISt6vectorI12MIDI_messageSaIS3_EEEEvRKT_PSo
FN:864,_ZN7testing8internal14UniversalPrintI7ChannelEEvRKT_PSo
FN:864,_ZN7testing8internal14UniversalPrintISt5tupleIJPKhmhEEEEvRKT_PSo
FN:864,_ZN7testing8internal14UniversalPrintISt5tupleIJthEEEEvRKT_PSo
FN:864,_ZN7testing8internal14UniversalPrintI11MIDI_read_tEEvRKT_PSo
FN:864,_ZN7testing8internal14UniversalPrintItEEvRKT_PSo
FN:864,_ZN7testing8internal14UniversalPrintI5ArrayIiLm5EEEEvRKT_PSo
FN:864,_ZN7testing8internal14UniversalPrintIhEEvRKT_PSo
FN:864,_ZN7testing8internal14UniversalPrintISt5tupleIJhhEEEEvRKT_PSo
FN:864,_ZN7testing8internal14UniversalPrintISt5tupleIJhiEEEEvRKT_PSo
FN:914,_ZN7testing13PrintToStringImEENSt7__cxx1112basic_stringIcSt11char_traitsIcESaIcEEERKT_
FN:914,_ZN7testing13PrintToStringISt6vectorIiSaIiEEEENSt7__cxx1112basic_stringIcSt11char_traitsIcESaIcEEERKT_
FN:914,_ZN7testing13PrintToStringI11MIDI_read_tEENSt7__cxx1112basic_stringIcSt11char_traitsIcESaIcEEERKT_
FN:914,_ZN7testing13PrintToStringISt6vectorIhSaIhEEEENSt7__cxx1112basic_stringIcSt11char_traitsIcESaIcEEERKT_
FN:914,_ZN7testing13PrintToStringISt6vectorI12MIDI_messageSaIS2_EEEENSt7__cxx1112basic_stringIcSt11char_traitsIcESaIcEEERKT_
FN:914,_ZN7testing13PrintToStringIhEENSt7__cxx1112basic_stringIcSt11char_traitsIcESaIcEEERKT_
FN:914,_ZN7testing13PrintToStringIcEENSt7__cxx1112basic_stringIcSt11char_traitsIcESaIcEEERKT_
FN:914,_ZN7testing13PrintToStringIDnEENSt7__cxx1112basic_stringIcSt11char_traitsIcESaIcEEERKT_
FN:914,_ZN7testing13PrintToStringI20MIDICNChannelAddressEENSt7__cxx1112basic_stringIcSt11char_traitsIcESaIcEEERKT_
FN:914,_ZN7testing13PrintToStringISt5tupleIJPKhmEEEENSt7__cxx1112basic_stringIcSt11char_traitsIcESaIcEEERKT_
FN:914,_ZN7testing13PrintToStringI5ArrayIjLm4EEEENSt7__cxx1112basic_stringIcSt11char_traitsIcESaIcEEERKT_
FN:914,_ZN7testing13PrintToStringIiEENSt7__cxx1112basic_stringIcSt11char_traitsIcESaIcEEERKT_
FN:914,_ZN7testing13PrintToStringIN6Button5StateEEENSt7__cxx1112basic_stringIcSt11char_traitsIcESaIcEEERKT_
FN:914,_ZN7testing13PrintToStringIbEENSt7__cxx1112basic_stringIcSt11char_traitsIcESaIcEEERKT_
FN:914,_ZN7testing13PrintToStringI7ChannelEENSt7__cxx1112basic_stringIcSt11char_traitsIcESaIcEEERKT_
FN:914,_ZN7testing13PrintToStringIP8TestNodeEENSt7__cxx1112basic_stringIcSt11char_traitsIcESaIcEEERKT_
FN:914,_ZN7testing13PrintToStringI5ArrayIiLm5EEEENSt7__cxx1112basic_stringIcSt11char_traitsIcESaIcEEERKT_
FNDA:0,_ZN7testing13PrintToStringIiEENSt7__cxx1112basic_stringIcSt11char_traitsIcESaIcEEERKT_
FNDA:0,_ZN7testing8internal12PrintTupleToISt5tupleIJhhEELm1EEEvRKT_St17integral_constantImXT0_EEPSo
FNDA:0,_ZN7testing8internal14DefaultPrintToIiEEvNS0_15WrapPrinterTypeILNS0_18DefaultPrinterTypeE3EEERKT_PSo
FNDA:0,_ZN7testing8internal14UniversalPrintI12MIDI_messageEEvRKT_PSo
FNDA:0,_ZN7testing8internal14DefaultPrintToItEEvNS0_15WrapPrinterTypeILNS0_18DefaultPrinterTypeE3EEERKT_PSo
FNDA:0,_ZN7testing8internal12PrintTupleToISt5tupleIJhhhhEELm2EEEvRKT_St17integral_constantImXT0_EEPSo
FNDA:0,_ZN7testing8internal7PrintToIJhhhhEEEvRKSt5tupleIJDpT_EEPSo
FNDA:0,_ZN7testing8internal7PrintToItEEvRKT_PSo
FNDA:0,_ZN7testing8internal12PrintTupleToISt5tupleIJhhhhEELm3EEEvRKT_St17integral_constantImXT0_EEPSo
FNDA:0,_ZN7testing8internal12PrintTupleToISt5tupleIJhhEELm2EEEvRKT_St17integral_constantImXT0_EEPSo
FNDA:0,_ZN7testing8internal7PrintToIJPhmEEEvRKSt5tupleIJDpT_EEPSo
FNDA:0,_ZN7testing9internal220TypeWithoutFormatterI7ChannelLNS0_8TypeKindE2EE10PrintValueERKS2_PSo
FNDA:0,_ZN7testing8internal19FormatForComparisonI11MIDI_read_tS2_E6FormatB5cxx11ERKS2_
FNDA:0,_ZN7testing8internal21UniversalTersePrinterIP8TestNodeE5PrintERKS3_PSo
FNDA:0,_ZN7testing8internal7PrintToIlEEvRKT_PSo
FNDA:0,_ZN7testing8internal7PrintToERKNSt7__cxx1112basic_stringIcSt11char_traitsIcESaIcEEEPSo
FNDA:0,_ZN16testing_internal26DefaultPrintNonContainerToI7ChannelEEvRKT_PSo
FNDA:0,_ZN7testing8internal21UniversalTersePrinterImE5PrintERKmPSo
FNDA:0,_ZN7testing8internal14UniversalPrintIP26BLECharacteristicCallbacksEEvRKT_PSo
FNDA:0,_ZN7testing8internal12PrintTupleToISt5tupleIJtsEEEEvRKT_St17integral_constantImLm0EEPSo
FNDA:0,_ZN7testing8internal16UniversalPrinterI5ArrayIiLm5EEE5PrintERKS3_PSo
FNDA:0,_ZN7testing8internal16UniversalPrinterI5ArrayIjLm4EEE5PrintERKS3_PSo
FNDA:0,_ZN7testing8internal16UniversalPrinterISt5tupleIJPKhmhEEE5PrintERKS5_PSo
FNDA:0,_ZN7testing8internal12PrintTupleToISt5tupleIJPKhmhEELm3EEEvRKT_St17integral_constantImXT0_EEPSo
FNDA:0,_ZN7testing8internal19FormatForComparisonIDnP8TestNodeE6FormatB5cxx11ERKDn
FNDA:0,_ZN7testing8internal7PrintToIJthEEEvRKSt5tupleIJDpT_EEPSo
FNDA:0,_ZN7testing8internal16UniversalPrinterISt5tupleIJP26BLECharacteristicCallbacksEEE5PrintERKS5_PSo
FNDA:0,_ZN7testing8internal14UniversalPrintIP8TestNodeEEvRKT_PSo
FNDA:0,_ZN7testing8internal14UniversalPrintIP18BLEServerCallbacksEEvRKT_PSo
FNDA:0,_ZN7testing13PrintToStringI5ArrayIjLm4EEEENSt7__cxx1112basic_stringIcSt11char_traitsIcESaIcEEERKT_
FNDA:0,_ZN7testing8internal14DefaultPrintToI5ArrayIiLm5EEEEvNS0_15WrapPrinterTypeILNS0_18DefaultPrinterTypeE3EEERKT_PSo
FNDA:0,_ZN7testing8internal14UniversalPrintI20MIDICNChannelAddressEEvRKT_PSo
FNDA:0,_ZN7testing8internal7PrintToIJPKhmEEEvRKSt5tupleIJDpT_EEPSo
FNDA:0,_ZN7testing8internal16UniversalPrinterIP18BLEServerCallbacksE5PrintERKS3_PSo
FNDA:0,_ZN7testing8internal12PrintTupleToISt5tupleIJEEEEvRKT_St17integral_constantImLm0EEPSo
FNDA:0,_ZN7testing8internal12PrintTupleToISt5tupleIJhhhhhEELm2EEEvRKT_St17integral_constantImXT0_EEPSo
FNDA:0,_ZN7testing8internal14UniversalPrintIPhEEvRKT_PSo
FNDA:0,_ZN7testing8internal14UniversalPrintImEEvRKT_PSo
FNDA:0,_ZN7testing8internal21UniversalTersePrinterIhE5PrintERKhPSo
FNDA:0,_ZN7testing8internal16UniversalPrinterIDnE5PrintERKDnPSo
FNDA:0,_ZN7testing8internal12PrintTupleToISt5tupleIJthEELm1EEEvRKT_St17integral_constantImXT0_EEPSo
FNDA:0,_ZN7testing8internal14DefaultPrintToISt6vectorIhSaIhEEEEvNS0_15WrapPrinterTypeILNS0_18DefaultPrinterTypeE0EEERKT_PSo
FNDA:0,_ZN7testing8internal7PrintToISt6vectorIhSaIhEEEEvRKT_PSo
FNDA:0,_ZN7testing8internal16UniversalPrinterISt5tupleIJmEEE5PrintERKS3_PSo
FNDA:0,_ZN7testing8internal14DefaultPrintToI5ArrayIjLm4EEEEvNS0_15WrapPrinterTypeILNS0_18DefaultPrinterTypeE3EEERKT_PSo
FNDA:0,_ZN7testing8internal7PrintToEcPSo
FNDA:0,_ZN7testing8internal12PrintTupleToISt5tupleIJtEELm1EEEvRKT_St17integral_constantImXT0_EEPSo
FNDA:0,_ZN7testing8internal14UniversalPrintIsEEvRKT_PSo
FNDA:0,_ZN7testing8internal33FormatForComparisonFailureMessageISt6vectorIhSaIhEES4_EENSt7__cxx1112basic_stringIcSt11char_traitsIcESaIcEEERKT_RKT0_
FNDA:0,_ZN16testing_internal26DefaultPrintNonContainerToI5ArrayIjLm4EEEEvRKT_PSo
FNDA:0,_ZN7testing8internal16UniversalPrinterIiE5PrintERKiPSo
FNDA:0,_ZN7testing8internal7PrintToI5ArrayIiLm5EEEEvRKT_PSo
FNDA:0,_ZN7testing8internal19FormatForComparisonI5ArrayIiLm5EES3_E6FormatB5cxx11ERKS3_
FNDA:0,_ZN7testing9internal2lsIcSt11char_traitsIcE11MIDI_read_tEERSt13basic_ostreamIT_T0_ES9_RKT1_
FNDA:0,_ZN7testing8internal16UniversalPrinterISt5tupleIJhhhhhEEE5PrintERKS3_PSo
FNDA:0,_ZN7testing13PrintToStringISt5tupleIJPKhmEEEENSt7__cxx1112basic_stringIcSt11char_traitsIcESaIcEEERKT_
FNDA:0,_ZN7testing8internal14UniversalPrintIPKhEEvRKT_PSo
FNDA:0,_ZN7testing8internal19FormatForComparisonI11MIDI_read_tiE6FormatB5cxx11ERKS2_
FNDA:0,_ZN7testing8internal12PrintTupleToISt5tupleIJhhhhEEEEvRKT_St17integral_constantImLm0EEPSo
FNDA:0,_ZN7testing8internal12PrintTupleToISt5tupleIJhhhhEELm4EEEvRKT_St17integral_constantImXT0_EEPSo
FNDA:0,_ZN16testing_internal26DefaultPrintNonContainerToIsEEvRKT_PSo
FNDA:0,_ZN7testing8internal33FormatForComparisonFailureMessageIN6Button5StateES3_EENSt7__cxx1112basic_stringIcSt11char_traitsIcESaIcEEERKT_RKT0_
FNDA:0,_ZN7testing8internal21UniversalTersePrinterIbE5PrintERKbPSo
FNDA:0,_ZN7testing8internal21UniversalTersePrinterI5ArrayIjLm4EEE5PrintERKS3_PSo
FNDA:0,_ZN16testing_internal26DefaultPrintNonContainerToIN6Button5StateEEEvRKT_PSo
FNDA:0,_ZN7testing8internal33FormatForComparisonFailureMessageI11MIDI_read_tiEENSt7__cxx1112basic_stringIcSt11char_traitsIcESaIcEEERKT_RKT0_
FNDA:0,_ZN7testing8internal14DefaultPrintToI20MIDICNChannelAddressEEvNS0_15WrapPrinterTypeILNS0_18DefaultPrinterTypeE3EEERKT_PSo
FNDA:0,_ZN7testing8internal12PrintTupleToISt5tupleIJhhhhEELm1EEEvRKT_St17integral_constantImXT0_EEPSo
FNDA:0,_ZN7testing8internal19FormatForComparisonIimE6FormatB5cxx11ERKi
FNDA:0,_ZN7testing8internal14DefaultPrintToI18BLEServerCallbacksEEvNS0_15WrapPrinterTypeILNS0_18DefaultPrinterTypeE1EEEPT_PSo
FNDA:0,_ZN7testing8internal12PrintTupleToISt5tupleIJhhhhhEELm1EEEvRKT_St17integral_constantImXT0_EEPSo
FNDA:0,_ZN7testing8internal12PrintTupleToISt5tupleIJPKhmEEEEvRKT_St17integral_constantImLm0EEPSo
FNDA:0,_ZN7testing8internal12PrintTupleToISt5tupleIJhEELm1EEEvRKT_St17integral_constantImXT0_EEPSo
FNDA:0,_ZN7testing8internal7PrintToIJhhEEEvRKSt5tupleIJDpT_EEPSo
FNDA:0,_ZN7testing8internal33FormatForComparisonFailureMessageISt6vectorIiSaIiEES4_EENSt7__cxx1112basic_stringIcSt11char_traitsIcESaIcEEERKT_RKT0_
FNDA:0,_ZN7testing8internal21UniversalTersePrinterIDnE5PrintERKDnPSo
FNDA:0,_ZN7testing8internal14UniversalPrintISt5tupleIJhhEEEEvRKT_PSo
FNDA:0,_ZN7testing8internal33FormatForComparisonFailureMessageImiEENSt7__cxx1112basic_stringIcSt11char_traitsIcESaIcEEERKT_RKT0_
FNDA:0,_ZN7testing8internal7PrintToI5ArrayIjLm4EEEEvRKT_PSo
FNDA:0,_ZN7testing8internal12PrintTupleToISt5tupleIJtsEELm1EEEvRKT_St17integral_constantImXT0_EEPSo
FNDA:0,_ZN7testing8internal14DefaultPrintToI7ChannelEEvNS0_15WrapPrinterTypeILNS0_18DefaultPrinterTypeE3EEERKT_PSo
FNDA:0,_ZN7testing8internal16UniversalPrinterItE5PrintERKtPSo
FNDA:0,_ZN7testing8internal7PrintToI11MIDI_read_tEEvRKT_PSo
FNDA:0,_ZN7testing9internal2lsIcSt11char_traitsIcEN6Button5StateEEERSt13basic_ostreamIT_T0_ESA_RKT1_
FNDA:0,_ZN7testing8internal14UniversalPrintISt5tupleIJhiEEEEvRKT_PSo
FNDA:0,_ZN7testing8internal12PrintTupleToISt5tupleIJPKhmhEELm1EEEvRKT_St17integral_constantImXT0_EEPSo
FNDA:0,_ZN7testing8internal7PrintToEbPSo
FNDA:0,_ZN7testing13PrintToStringI5ArrayIiLm5EEEENSt7__cxx1112basic_stringIcSt11char_traitsIcESaIcEEERKT_
FNDA:0,_ZN7testing8internal16UniversalPrinterI20MIDICNChannelAddressE5PrintERKS2_PSo
FNDA:0,_ZN7testing8internal7PrintToI12MIDI_messageEEvRKT_PSo
FNDA:0,_ZN7testing8internal21UniversalTersePrinterIiE5PrintERKiPSo
FNDA:0,_ZN7testing13PrintToStringIP8TestNodeEENSt7__cxx1112basic_stringIcSt11char_traitsIcESaIcEEERKT_
FNDA:0,_ZN7testing8internal14UniversalPrintIhEEvRKT_PSo
FNDA:0,_ZN7testing8internal12PrintTupleToISt5tupleIJP26BLECharacteristicCallbacksEEEEvRKT_St17integral_constantImLm0EEPSo
FNDA:0,_ZN7testing8internal7PrintToIJtsEEEvRKSt5tupleIJDpT_EEPSo
FNDA:0,_ZN7testing8internal7PrintToI20MIDICNChannelAddressEEvRKT_PSo
FNDA:0,_ZN7testing8internal21UniversalTersePrinterI20MIDICNChannelAddressE5PrintERKS2_PSo
FNDA:0,_ZN7testing8internal7PrintToIN6Button5StateEEEvRKT_PSo
FNDA:0,_ZN7testing8internal16UniversalPrinterISt5tupleIJPhmEEE5PrintERKS4_PSo
FNDA:0,_ZN7testing13PrintToStringI7ChannelEENSt7__cxx1112basic_stringIcSt11char_traitsIcESaIcEEERKT_
FNDA:0,_ZN7testing8internal19FormatForComparisonImiE6FormatB5cxx11ERKm
FNDA:0,_ZN7testing8internal16UniversalPrinterISt5tupleIJPKhmEEE5PrintERKS5_PSo
FNDA:0,_ZN7testing8internal12PrintTupleToISt5tupleIJP18BLEServerCallbacksEELm1EEEvRKT_St17integral_constantImXT0_EEPSo
FNDA:0,_ZN7testing8internal19FormatForComparisonISt6vectorIiSaIiEES4_E6FormatB5cxx11ERKS4_
FNDA:0,_ZN7testing8internal14UniversalPrintI11MIDI_read_tEEvRKT_PSo
FNDA:0,_ZN7testing8internal14UniversalPrintItEEvRKT_PSo
FNDA:0,_ZN7testing8internal7PrintToISt6vectorIiSaIiEEEEvRKT_PSo
FNDA:0,_ZN7testing8internal12PrintTupleToISt5tupleIJmEEEEvRKT_St17integral_constantImLm0EEPSo
FNDA:0,_ZN7testing8internal7PrintToImEEvRKT_PSo
FNDA:0,_ZN7testing8internal21UniversalTersePrinterIN6Button5StateEE5PrintERKS3_PSo
FNDA:0,_ZN7testing9internal220TypeWithoutFormatterI12MIDI_messageLNS0_8TypeKindE2EE10PrintValueERKS2_PSo
FNDA:0,_ZN7testing8internal14UniversalPrintI5ArrayIiLm5EEEEvRKT_PSo
FNDA:0,_ZN7testing8internal12PrintTupleToISt5tupleIJhEEEEvRKT_St17integral_constantImLm0EEPSo
FNDA:0,_ZN16testing_internal26DefaultPrintNonContainerToI20MIDICNChannelAddressEEvRKT_PSo
FNDA:0,_ZN7testing8internal16UniversalPrinterISt6vectorIiSaIiEEE5PrintERKS4_PSo
FNDA:0,_ZN7testing8internal12PrintTupleToISt5tupleIJPhmEELm2EEEvRKT_St17integral_constantImXT0_EEPSo
FNDA:0,_ZN7testing8internal33FormatForComparisonFailureMessageI5ArrayIjLm4EES3_EENSt7__cxx1112basic_stringIcSt11char_traitsIcESaIcEEERKT_RKT0_
FNDA:0,_ZN7testing8internal7PrintToIP26BLECharacteristicCallbacksEEvRKT_PSo
FNDA:0,_ZN7testing8internal16UniversalPrinterINSt7__cxx1112basic_stringIcSt11char_traitsIcESaIcEEEE5PrintERKS7_PSo
FNDA:0,_ZN7testing8internal19FormatForComparisonI5ArrayIjLm4EES3_E6FormatB5cxx11ERKS3_
FNDA:0,_ZN7testing8internal33FormatForComparisonFailureMessageIiiEENSt7__cxx1112basic_stringIcSt11char_traitsIcESaIcEEERKT_RKT0_
FNDA:0,_ZN7testing8internal7PrintToIJEEEvRKSt5tupleIJDpT_EEPSo
FNDA:0,_ZN7testing9internal2lsIcSt11char_traitsIcE12MIDI_messageEERSt13basic_ostreamIT_T0_ES9_RKT1_
FNDA:0,_ZN7testing8internal7PrintToIJhEEEvRKSt5tupleIJDpT_EEPSo
FNDA:0,_ZN7testing8internal14UniversalPrintISt5tupleIJPKhmhEEEEvRKT_PSo
FNDA:0,_ZN7testing8internal14UniversalPrintISt5tupleIJthEEEEvRKT_PSo
FNDA:0,_ZN7testing8internal7PrintToIPKvEEvRKT_PSo
FNDA:0,_ZN7testing8internal19FormatForComparisonIi11MIDI_read_tE6FormatB5cxx11ERKi
FNDA:0,_ZN7testing8internal14UniversalPrintI7ChannelEEvRKT_PSo
FNDA:0,_ZN7testing8internal14DefaultPrintToISt6vectorIiSaIiEEEEvNS0_15WrapPrinterTypeILNS0_18DefaultPrinterTypeE0EEERKT_PSo
FNDA:0,_ZN7testing8internal16UniversalPrinterIP8TestNodeE5PrintERKS3_PSo
FNDA:0,_ZN7testing8internal12PrintTupleToISt5tupleIJhiEEEEvRKT_St17integral_constantImLm0EEPSo
FNDA:0,_ZN7testing13PrintToStringIbEENSt7__cxx1112basic_stringIcSt11char_traitsIcESaIcEEERKT_
FNDA:0,_ZN7testing13PrintToStringIN6Button5StateEEENSt7__cxx1112basic_stringIcSt11char_traitsIcESaIcEEERKT_
FNDA:0,_ZN7testing8internal12PrintTupleToISt5tupleIJthEEEEvRKT_St17integral_constantImLm0EEPSo
FNDA:0,_ZN7testing8internal7PrintToIP18BLEServerCallbacksEEvRKT_PSo
FNDA:0,_ZN7testing8internal33FormatForComparisonFailureMessageIP8TestNodeDnEENSt7__cxx1112basic_stringIcSt11char_traitsIcESaIcEEERKT_RKT0_
FNDA:0,_ZN7testing8internal33FormatForComparisonFailureMessageIbbEENSt7__cxx1112basic_stringIcSt11char_traitsIcESaIcEEERKT_RKT0_
FNDA:0,_ZN7testing9internal220TypeWithoutFormatterI5ArrayIiLm5EELNS0_8TypeKindE2EE10PrintValueERKS3_PSo
FNDA:0,_ZN7testing9internal220TypeWithoutFormatterI20MIDICNChannelAddressLNS0_8TypeKindE2EE10PrintValueERKS2_PSo
FNDA:0,_ZN7testing8internal14DefaultPrintToI12MIDI_messageEEvNS0_15WrapPrinterTypeILNS0_18DefaultPrinterTypeE3EEERKT_PSo
FNDA:0,_ZN7testing8internal21UniversalTersePrinterIcE5PrintERKcPSo
FNDA:0,_ZN7testing8internal14UniversalPrintISt5tupleIJhEEEEvRKT_PSo
FNDA:0,_ZN7testing8internal16UniversalPrinterI12MIDI_messageE5PrintERKS2_PSo
FNDA:0,_ZN7testing8internal14UniversalPrintISt6vectorI12MIDI_messageSaIS3_EEEEvRKT_PSo
FNDA:0,_ZN7testing8internal14UniversalPrintIN6Button5StateEEEvRKT_PSo
FNDA:0,_ZN7testing8internal16UniversalPrinterIlE5PrintERKlPSo
FNDA:0,_ZN7testing8internal12PrintTupleToISt5tupleIJPKhmEELm1EEEvRKT_St17integral_constantImXT0_EEPSo
FNDA:0,_ZN7testing8internal16UniversalPrinterIPKhE5PrintERKS3_PSo
FNDA:0,_ZN7testing8internal19FormatForComparisonISt6vectorIhSaIhEES4_E6FormatB5cxx11ERKS4_
FNDA:0,_ZN7testing8internal7PrintToEPKhPSo
FNDA:0,_ZN7testing8internal14DefaultPrintToIlEEvNS0_15WrapPrinterTypeILNS0_18DefaultPrinterTypeE3EEERKT_PSo
FNDA:0,_ZN7testing8internal16UniversalPrinterISt5tupleIJtEEE5PrintERKS3_PSo
FNDA:0,_ZN7testing8internal7PrintToIP8TestNodeEEvRKT_PSo
FNDA:0,_ZN7testing8internal12PrintTupleToISt5tupleIJtEEEEvRKT_St17integral_constantImLm0EEPSo
FNDA:0,_ZN7testing8internal7PrintToISt6vectorI12MIDI_messageSaIS3_EEEEvRKT_PSo
FNDA:0,_ZN7testing8internal16UniversalPrinterIcE5PrintERKcPSo
FNDA:0,_ZN7testing8internal16UniversalPrinterIbE5PrintERKbPSo
FNDA:0,_ZN7testing8internal33FormatForComparisonFailureMessageIimEENSt7__cxx1112basic_stringIcSt11char_traitsIcESaIcEEERKT_RKT0_
FNDA:0,_ZN7testing8internal16UniversalPrinterI11MIDI_read_tE5PrintERKS2_PSo
FNDA:0,_ZN7testing9internal2lsIcSt11char_traitsIcE5ArrayIjLm4EEEERSt13basic_ostreamIT_T0_ESA_RKT1_
FNDA:0,_ZN7testing8internal16UniversalPrinterISt5tupleIJEEE5PrintERKS3_PSo
FNDA:0,_ZN7testing8internal19FormatForComparisonIbbE6FormatB5cxx11ERKb
FNDA:0,_ZN7testing8internal21UniversalTersePrinterISt5tupleIJPKhmEEE5PrintERKS5_PSo
FNDA:0,_ZN7testing13PrintToStringI11MIDI_read_tEENSt7__cxx1112basic_stringIcSt11char_traitsIcESaIcEEERKT_
FNDA:0,_ZN7testing8internal19FormatForComparisonIhiE6FormatB5cxx11ERKh
FNDA:0,_ZN16testing_internal26DefaultPrintNonContainerToImEEvRKT_PSo
FNDA:0,_ZN7testing9internal220TypeWithoutFormatterI5ArrayIjLm4EELNS0_8TypeKindE2EE10PrintValueERKS3_PSo
FNDA:0,_ZN7testing8internal12PrintTupleToISt5tupleIJPhmEELm1EEEvRKT_St17integral_constantImXT0_EEPSo
FNDA:0,_ZN7testing8internal21UniversalTersePrinterI11MIDI_read_tE5PrintERKS2_PSo
FNDA:0,_ZN7testing8internal12PrintTupleToISt5tupleIJhhEEEEvRKT_St17integral_constantImLm0EEPSo
FNDA:0,_ZN7testing8internal16UniversalPrinterISt6vectorI12MIDI_messageSaIS3_EEE5PrintERKS5_PSo
FNDA:0,_ZN7testing8internal14UniversalPrintISt5tupleIJPhmEEEEvRKT_PSo
FNDA:0,_ZN7testing8internal12PrintTupleToISt5tupleIJP18BLEServerCallbacksEEEEvRKT_St17integral_constantImLm0EEPSo
FNDA:0,_ZN7testing8internal14UniversalPrintIDnEEvRKT_PSo
FNDA:0,_ZN7testing8internal16UniversalPrinterISt5tupleIJthEEE5PrintERKS3_PSo
FNDA:0,_ZN7testing13PrintToStringISt6vectorIiSaIiEEEENSt7__cxx1112basic_stringIcSt11char_traitsIcESaIcEEERKT_
FNDA:0,_ZN7testing8internal16UniversalPrinterIhE5PrintERKhPSo
FNDA:0,_ZN16testing_internal26DefaultPrintNonContainerToItEEvRKT_PSo
FNDA:0,_ZN7testing8internal7PrintToIJhhhhhEEEvRKSt5tupleIJDpT_EEPSo
FNDA:0,_ZN7testing8internal19FormatForComparisonIP8TestNodeS3_E6FormatB5cxx11ERKS3_
FNDA:0,_ZN7testing8internal7PrintToIJP18BLEServerCallbacksEEEvRKSt5tupleIJDpT_EEPSo
FNDA:0,_ZN7testing8internal14UniversalPrintI5ArrayIjLm4EEEEvRKT_PSo
FNDA:0,_ZN7testing8internal12PrintTupleToISt5tupleIJhiEELm2EEEvRKT_St17integral_constantImXT0_EEPSo
FNDA:0,_ZN7testing8internal7PrintToIiEEvRKT_PSo
FNDA:0,_ZN7testing8internal14UniversalPrintIiEEvRKT_PSo
FNDA:0,_ZN7testing8internal12PrintTupleToISt5tupleIJP18BLEServerCallbacksP26BLECharacteristicCallbacksEELm2EEEvRKT_St17integral_constantImXT0_EEPSo
FNDA:0,_ZN7testing8internal12PrintTupleToISt5tupleIJtsEELm2EEEvRKT_St17integral_constantImXT0_EEPSo
FNDA:0,_ZN7testing13PrintToStringImEENSt7__cxx1112basic_stringIcSt11char_traitsIcESaIcEEERKT_
FNDA:0,_ZN7testing9internal2lsIcSt11char_traitsIcE7ChannelEERSt13basic_ostreamIT_T0_ES9_RKT1_
FNDA:0,_ZN7testing8internal14DefaultPrintToImEEvNS0_15WrapPrinterTypeILNS0_18DefaultPrinterTypeE3EEERKT_PSo
FNDA:0,_ZN7testing8internal12PrintTupleToISt5tupleIJthEELm2EEEvRKT_St17integral_constantImXT0_EEPSo
FNDA:0,_ZN7testing8internal19FormatForComparisonIN6Button5StateES3_E6FormatB5cxx11ERKS3_
FNDA:0,_ZN7testing8internal14DefaultPrintToIKvEEvNS0_15WrapPrinterTypeILNS0_18DefaultPrinterTypeE1EEEPT_PSo
FNDA:0,_ZN7testing8internal7PrintToIJhiEEEvRKSt5tupleIJDpT_EEPSo
FNDA:0,_ZN7testing8internal19FormatForComparisonIccE6FormatB5cxx11ERKc
FNDA:0,_ZN7testing8internal12PrintTupleToISt5tupleIJhiEELm1EEEvRKT_St17integral_constantImXT0_EEPSo
FNDA:0,_ZN7testing8internal12PrintTupleToISt5tupleIJPKhmEELm2EEEvRKT_St17integral_constantImXT0_EEPSo
FNDA:0,_ZN7testing8internal7PrintToIJP26BLECharacteristicCallbacksEEEvRKSt5tupleIJDpT_EEPSo
FNDA:0,_ZN7testing8internal16UniversalPrinterISt5tupleIJhhhhEEE5PrintERKS3_PSo
FNDA:0,_ZN7testing8internal7PrintToEPhPSo
FNDA:0,_ZN7testing9internal2lsIcSt11char_traitsIcE5ArrayIiLm5EEEERSt13basic_ostreamIT_T0_ESA_RKT1_
FNDA:0,_ZN7testing8internal33FormatForComparisonFailureMessageI11MIDI_read_tS2_EENSt7__cxx1112basic_stringIcSt11char_traitsIcESaIcEEERKT_RKT0_
FNDA:0,_ZN7testing8internal16UniversalPrinterISt5tupleIJtsEEE5PrintERKS3_PSo
FNDA:0,_ZN7testing8internal14UniversalPrintISt5tupleIJP18BLEServerCallbacksP26BLECharacteristicCallbacksEEEEvRKT_PSo
FNDA:0,_ZN7testing8internal12PrintTupleToISt5tupleIJmEELm1EEEvRKT_St17integral_constantImXT0_EEPSo
FNDA:0,_ZN7testing8internal14UniversalPrintIbEEvRKT_PSo
FNDA:0,_ZN7testing8internal21UniversalTersePrinterISt6vectorIiSaIiEEE5PrintERKS4_PSo
FNDA:0,_ZN7testing8internal12PrintTupleToISt5tupleIJP18BLEServerCallbacksP26BLECharacteristicCallbacksEELm1EEEvRKT_St17integral_constantImXT0_EEPSo
FNDA:0,_ZN7testing8internal19FormatForComparisonIihE6FormatB5cxx11ERKi
FNDA:0,_ZN7testing8internal33FormatForComparisonFailureMessageISt6vectorI12MIDI_messageSaIS3_EES5_EENSt7__cxx1112basic_stringIcSt11char_traitsIcESaIcEEERKT_RKT0_
FNDA:0,_ZN7testing8internal14UniversalPrintISt5tupleIJtsEEEEvRKT_PSo
FNDA:0,_ZN7testing9internal2lsIcSt11char_traitsIcE20MIDICNChannelAddressEERSt13basic_ostreamIT_T0_ES9_RKT1_
FNDA:0,_ZN7testing8internal14UniversalPrintISt5tupleIJtEEEEvRKT_PSo
FNDA:0,_ZN7testing8internal14UniversalPrintISt6vectorIhSaIhEEEEvRKT_PSo
FNDA:0,_ZN7testing8internal14UniversalPrintISt5tupleIJmEEEEvRKT_PSo
FNDA:0,_ZN7testing8internal16UniversalPrinterIN6Button5StateEE5PrintERKS3_PSo
FNDA:0,_ZN16testing_internal26DefaultPrintNonContainerToI5ArrayIiLm5EEEEvRKT_PSo
FNDA:0,_ZN7testing8internal19FormatForComparisonISt6vectorI12MIDI_messageSaIS3_EES5_E6FormatB5cxx11ERKS5_
FNDA:0,_ZN7testing9internal220TypeWithoutFormatterI11MIDI_read_tLNS0_8TypeKindE1EE10PrintValueERKS2_PSo
FNDA:0,_ZN7testing8internal33FormatForComparisonFailureMessageIi11MIDI_read_tEENSt7__cxx1112basic_stringIcSt11char_traitsIcESaIcEEERKT_RKT0_
FNDA:0,_ZN7testing8internal33FormatForComparisonFailureMessageI20MIDICNChannelAddressS2_EENSt7__cxx1112basic_stringIcSt11char_traitsIcESaIcEEERKT_RKT0_
FNDA:0,_ZN7testing8internal7PrintToIJtEEEvRKSt5tupleIJDpT_EEPSo
FNDA:0,_ZN7testing8internal21UniversalTersePrinterI5ArrayIiLm5EEE5PrintERKS3_PSo
FNDA:0,_ZN7testing13PrintToStringI20MIDICNChannelAddressEENSt7__cxx1112basic_stringIcSt11char_traitsIcESaIcEEERKT_
FNDA:0,_ZN7testing8internal14UniversalPrintISt5tupleIJhhhhEEEEvRKT_PSo
FNDA:0,_ZN7testing8internal16UniversalPrinterIPhE5PrintERKS2_PSo
FNDA:0,_ZN7testing8internal12PrintTupleToISt5tupleIJPhmEEEEvRKT_St17integral_constantImLm0EEPSo
FNDA:0,_ZN7testing8internal16UniversalPrinterIP26BLECharacteristicCallbacksE5PrintERKS3_PSo
FNDA:0,_ZN7testing8internal14DefaultPrintToI26BLECharacteristicCallbacksEEvNS0_15WrapPrinterTypeILNS0_18DefaultPrinterTypeE1EEEPT_PSo
FNDA:0,_ZN7testing8internal19FormatForComparisonI7ChannelS2_E6FormatB5cxx11ERKS2_
FNDA:0,_ZN7testing13PrintToStringIcEENSt7__cxx1112basic_stringIcSt11char_traitsIcESaIcEEERKT_
FNDA:0,_ZN7testing8internal16UniversalPrinterImE5PrintERKmPSo
FNDA:0,_ZN7testing8internal19FormatForComparisonIiiE6FormatB5cxx11ERKi
FNDA:0,_ZN7testing8internal12PrintTupleToISt5tupleIJP26BLECharacteristicCallbacksEELm1EEEvRKT_St17integral_constantImXT0_EEPSo
FNDA:0,_ZN7testing8internal14UniversalPrintISt5tupleIJhhhhhEEEEvRKT_PSo
FNDA:0,_ZN7testing13PrintToStringIDnEENSt7__cxx1112basic_stringIcSt11char_traitsIcESaIcEEERKT_
FNDA:0,_ZN7testing8internal7PrintToI7ChannelEEvRKT_PSo
FNDA:0,_ZN7testing8internal7PrintToEDnPSo
FNDA:0,_ZN7testing8internal7PrintToIJPKhmhEEEvRKSt5tupleIJDpT_EEPSo
FNDA:0,_ZN7testing13PrintToStringISt6vectorI12MIDI_messageSaIS2_EEEENSt7__cxx1112basic_stringIcSt11char_traitsIcESaIcEEERKT_
FNDA:0,_ZN7testing13PrintToStringIhEENSt7__cxx1112basic_stringIcSt11char_traitsIcESaIcEEERKT_
FNDA:0,_ZN16testing_internal26DefaultPrintNonContainerToIlEEvRKT_PSo
FNDA:0,_ZN7testing8internal21UniversalTersePrinterI7ChannelE5PrintERKS2_PSo
FNDA:0,_ZN7testing8internal14UniversalPrintIcEEvRKT_PSo
FNDA:0,_ZN7testing8internal33FormatForComparisonFailureMessageI5ArrayIiLm5EES3_EENSt7__cxx1112basic_stringIcSt11char_traitsIcESaIcEEERKT_RKT0_
FNDA:0,_ZN7testing8internal19FormatForComparisonI20MIDICNChannelAddressS2_E6FormatB5cxx11ERKS2_
FNDA:0,_ZN7testing8internal33FormatForComparisonFailureMessageIDnP8TestNodeEENSt7__cxx1112basic_stringIcSt11char_traitsIcESaIcEEERKT_RKT0_
FNDA:0,_ZN7testing8internal33FormatForComparisonFailureMessageIccEENSt7__cxx1112basic_stringIcSt11char_traitsIcESaIcEEERKT_RKT0_
FNDA:0,_ZN16testing_internal26DefaultPrintNonContainerToIiEEvRKT_PSo
FNDA:0,_ZN7testing8internal12PrintTupleToISt5tupleIJhhhhhEEEEvRKT_St17integral_constantImLm0EEPSo
FNDA:0,_ZN7testing8internal33FormatForComparisonFailureMessageIihEENSt7__cxx1112basic_stringIcSt11char_traitsIcESaIcEEERKT_RKT0_
FNDA:0,_ZN7testing8internal16UniversalPrinterISt5tupleIJP18BLEServerCallbacksP26BLECharacteristicCallbacksEEE5PrintERKS7_PSo
FNDA:0,_ZN7testing8internal21UniversalTersePrinterISt6vectorI12MIDI_messageSaIS3_EEE5PrintERKS5_PSo
FNDA:0,_ZN7testing8internal14DefaultPrintToISt6vectorI12MIDI_messageSaIS3_EEEEvNS0_15WrapPrinterTypeILNS0_18DefaultPrinterTypeE0EEERKT_PSo
FNDA:0,_ZN7testing8internal19FormatForComparisonIP8TestNodeDnE6FormatB5cxx11ERKS3_
FNDA:0,_ZN7testing8internal14DefaultPrintToIN6Button5StateEEEvNS0_15WrapPrinterTypeILNS0_18DefaultPrinterTypeE3EEERKT_PSo
FNDA:0,_ZN16testing_internal26DefaultPrintNonContainerToI11MIDI_read_tEEvRKT_PSo
FNDA:0,_ZN7testing8internal14UniversalPrintISt5tupleIJPKhmEEEEvRKT_PSo
FNDA:0,_ZN7testing8internal33FormatForComparisonFailureMessageI7ChannelS2_EENSt7__cxx1112basic_stringIcSt11char_traitsIcESaIcEEERKT_RKT0_
FNDA:0,_ZN7testing8internal14UniversalPrintISt5tupleIJEEEEvRKT_PSo
FNDA:0,_ZN7testing8internal16UniversalPrinterISt5tupleIJhhEEE5PrintERKS3_PSo
FNDA:0,_ZN7testing8internal12PrintTupleToISt5tupleIJPKhmhEELm2EEEvRKT_St17integral_constantImXT0_EEPSo
FNDA:0,_ZN7testing8internal14UniversalPrintISt6vectorIiSaIiEEEEvRKT_PSo
FNDA:0,_ZN7testing8internal16UniversalPrinterI7ChannelE5PrintERKS2_PSo
FNDA:0,_ZN7testing8internal7PrintToIJP18BLEServerCallbacksP26BLECharacteristicCallbacksEEEvRKSt5tupleIJDpT_EEPSo
FNDA:0,_ZN7testing8internal16UniversalPrinterIsE5PrintERKsPSo
FNDA:0,_ZN7testing8internal16UniversalPrinterISt6vectorIhSaIhEEE5PrintERKS4_PSo
FNDA:0,_ZN16testing_internal26DefaultPrintNonContainerToI12MIDI_messageEEvRKT_PSo
FNDA:0,_ZN7testing8internal12PrintTupleToISt5tupleIJP18BLEServerCallbacksP26BLECharacteristicCallbacksEEEEvRKT_St17integral_constantImLm0EEPSo
FNDA:0,_ZN7testing8internal7PrintToIJmEEEvRKSt5tupleIJDpT_EEPSo
FNDA:0,_ZN7testing8internal12PrintTupleToISt5tupleIJPKhmhEEEEvRKT_St17integral_constantImLm0EEPSo
FNDA:0,_ZN7testing8internal16UniversalPrinterISt5tupleIJhEEE5PrintERKS3_PSo
FNDA:0,_ZN7testing8internal12PrintTupleToISt5tupleIJhhhhhEELm5EEEvRKT_St17integral_constantImXT0_EEPSo
FNDA:0,_ZN7testing8internal33FormatForComparisonFailureMessageIhiEENSt7__cxx1112basic_stringIcSt11char_traitsIcESaIcEEERKT_RKT0_
FNDA:0,_ZN7testing8internal14DefaultPrintToIsEEvNS0_15WrapPrinterTypeILNS0_18DefaultPrinterTypeE3EEERKT_PSo
FNDA:0,_ZN7testing8internal7PrintToIsEEvRKT_PSo
FNDA:0,_ZN7testing8internal16UniversalPrinterISt5tupleIJP18BLEServerCallbacksEEE5PrintERKS5_PSo
FNDA:0,_ZN7testing9internal220TypeWithoutFormatterIN6Button5StateELNS0_8TypeKindE1EE10PrintValueERKS3_PSo
FNDA:0,_ZN7testing8internal33FormatForComparisonFailureMessageIP8TestNodeS3_EENSt7__cxx1112basic_stringIcSt11char_traitsIcESaIcEEERKT_RKT0_
FNDA:0,_ZN7testing13PrintToStringISt6vectorIhSaIhEEEENSt7__cxx1112basic_stringIcSt11char_traitsIcESaIcEEERKT_
FNDA:0,_ZN7testing8internal12PrintTupleToISt5tupleIJhhhhhEELm4EEEvRKT_St17integral_constantImXT0_EEPSo
FNDA:0,_ZN7testing8internal14UniversalPrintISt5tupleIJP26BLECharacteristicCallbacksEEEEvRKT_PSo
FNDA:0,_ZN7testing8internal14DefaultPrintToI8TestNodeEEvNS0_15WrapPrinterTypeILNS0_18DefaultPrinterTypeE1EEEPT_PSo
FNDA:0,_ZN7testing8internal21UniversalTersePrinterISt6vectorIhSaIhEEE5PrintERKS4_PSo
FNDA:0,_ZN7testing8internal14DefaultPrintToI11MIDI_read_tEEvNS0_15WrapPrinterTypeILNS0_18DefaultPrinterTypeE3EEERKT_PSo
FNDA:0,_ZN7testing8internal14UniversalPrintISt5tupleIJP18BLEServerCallbacksEEEEvRKT_PSo
FNDA:0,_ZN7testing8internal16UniversalPrinterISt5tupleIJhiEEE5PrintERKS3_PSo
FNDA:0,_ZN7testing8internal12PrintTupleToISt5tupleIJhhhhhEELm3EEEvRKT_St17integral_constantImXT0_EEPSo
FNF:289
FNH:0
DA:153,0
DA:154,0
DA:157,0
DA:187,0
DA:188,0
DA:189,0
DA:190,0
DA:231,0
DA:245,0
DA:246,0
DA:259,0
DA:286,0
DA:287,0
DA:312,0
DA:313,0
DA:376,0
DA:378,0
DA:405,0
DA:407,0
DA:408,0
DA:409,0
DA:410,0
DA:411,0
DA:412,0
DA:413,0
DA:414,0
DA:415,0
DA:416,0
DA:419,0
DA:422,0
DA:425,0
DA:426,0
DA:428,0
DA:429,0
DA:438,0
DA:440,0
DA:441,0
DA:446,0
DA:448,0
DA:465,0
DA:467,0
DA:468,0
DA:482,0
DA:502,0
DA:513,0
DA:522,0
DA:526,0
DA:527,0
DA:530,0
DA:531,0
DA:532,0
DA:557,0
DA:558,0
DA:559,0
DA:560,0
DA:561,0
DA:562,0
DA:593,0
DA:594,0
DA:595,0
DA:612,0
DA:622,0
DA:623,0
DA:626,0
DA:628,0
DA:632,0
DA:634,0
DA:635,0
DA:636,0
DA:639,0
DA:640,0
DA:641,0
DA:642,0
DA:643,0
DA:669,0
DA:678,0
DA:679,0
DA:795,0
DA:796,0
DA:797,0
DA:864,0
DA:868,0
DA:869,0
DA:914,0
DA:915,0
DA:916,0
DA:917,0
LF:87
LH:0
end_of_record
TN:
SF:/home/pieter/GitHub/Control-Surface/build/googletest/googletest-src/googletest/include/gtest/gtest.h
FN:293,_ZN7testing15AssertionResultC2IbEERKT_PNS_8internal8EnableIfIXntsrSt14is_convertibleIS2_S0_E5valueEE4typeE
FN:312,_ZNK7testing15AssertionResultcvbEv
FN:321,_ZNK7testing15AssertionResult7messageEv
FN:325,_ZNK7testing15AssertionResult15failure_messageEv
FN:328,_ZN7testing15AssertionResultlsIPKcEERS0_RKT_
FN:328,_ZN7testing15AssertionResultlsIA5_cEERS0_RKT_
FN:328,_ZN7testing15AssertionResultlsIA3_cEERS0_RKT_
FN:328,_ZN7testing15AssertionResultlsIA12_cEERS0_RKT_
FN:328,_ZN7testing15AssertionResultlsINSt7__cxx1112basic_stringIcSt11char_traitsIcESaIcEEEEERS0_RKT_
FN:343,_ZN7testing15AssertionResult13AppendMessageERKNS_7MessageE
FN:415,_ZN7testing4Test14SetUpTestSuiteEv
FN:423,_ZN7testing4Test17TearDownTestSuiteEv
FN:427,_ZN7testing4Test16TearDownTestCaseEv
FN:428,_ZN7testing4Test13SetUpTestCaseEv
FN:509,_ZN7testing4Test5SetupEv
FN:1029,_ZN7testing11EnvironmentD0Ev
FN:1029,_ZN7testing11EnvironmentD2Ev
FN:1032,_ZN7testing11Environment5SetUpEv
FN:1035,_ZN7testing11Environment8TearDownEv
FN:1040,_ZN7testing11Environment5SetupEv
FN:1455,_ZN7testing24AddGlobalTestEnvironmentEPNS_11EnvironmentE
FN:1484,_ZN7testing8internal18CmpHelperEQFailureIccEENS_15AssertionResultEPKcS4_RKT_RKT0_
FN:1484,_ZN7testing8internal18CmpHelperEQFailureImiEENS_15AssertionResultEPKcS4_RKT_RKT0_
FN:1484,_ZN7testing8internal18CmpHelperEQFailureISt6vectorI12MIDI_messageSaIS3_EES5_EENS_15AssertionResultEPKcS8_RKT_RKT0_
FN:1484,_ZN7testing8internal18CmpHelperEQFailureIP8TestNodeDnEENS_15AssertionResultEPKcS6_RKT_RKT0_
FN:1484,_ZN7testing8internal18CmpHelperEQFailureIiiEENS_15AssertionResultEPKcS4_RKT_RKT0_
FN:1484,_ZN7testing8internal18CmpHelperEQFailureIN6Button5StateES3_EENS_15AssertionResultEPKcS6_RKT_RKT0_
FN:1484,_ZN7testing8internal18CmpHelperEQFailureI11MIDI_read_tiEENS_15AssertionResultEPKcS5_RKT_RKT0_
FN:1484,_ZN7testing8internal18CmpHelperEQFailureI7ChannelS2_EENS_15AssertionResultEPKcS5_RKT_RKT0_
FN:1484,_ZN7testing8internal18CmpHelperEQFailureIbbEENS_15AssertionResultEPKcS4_RKT_RKT0_
FN:1484,_ZN7testing8internal18CmpHelperEQFailureIhiEENS_15AssertionResultEPKcS4_RKT_RKT0_
FN:1484,_ZN7testing8internal18CmpHelperEQFailureI5ArrayIiLm5EES3_EENS_15AssertionResultEPKcS6_RKT_RKT0_
FN:1484,_ZN7testing8internal18CmpHelperEQFailureISt6vectorIhSaIhEES4_EENS_15AssertionResultEPKcS7_RKT_RKT0_
FN:1484,_ZN7testing8internal18CmpHelperEQFailureISt6vectorIiSaIiEES4_EENS_15AssertionResultEPKcS7_RKT_RKT0_
FN:1484,_ZN7testing8internal18CmpHelperEQFailureI5ArrayIjLm4EES3_EENS_15AssertionResultEPKcS6_RKT_RKT0_
FN:1484,_ZN7testing8internal18CmpHelperEQFailureI20MIDICNChannelAddressS2_EENS_15AssertionResultEPKcS5_RKT_RKT0_
FN:1484,_ZN7testing8internal18CmpHelperEQFailureIP8TestNodeS3_EENS_15AssertionResultEPKcS6_RKT_RKT0_
FN:1484,_ZN7testing8internal18CmpHelperEQFailureI11MIDI_read_tS2_EENS_15AssertionResultEPKcS5_RKT_RKT0_
FN:1503,_ZN7testing8internal11CmpHelperEQIbbEENS_15AssertionResultEPKcS4_RKT_RKT0_
FN:1503,_ZN7testing8internal11CmpHelperEQImiEENS_15AssertionResultEPKcS4_RKT_RKT0_
FN:1503,_ZN7testing8internal11CmpHelperEQIP8TestNodeDnEENS_15AssertionResultEPKcS6_RKT_RKT0_
FN:1503,_ZN7testing8internal11CmpHelperEQIccEENS_15AssertionResultEPKcS4_RKT_RKT0_
FN:1503,_ZN7testing8internal11CmpHelperEQIP8TestNodeS3_EENS_15AssertionResultEPKcS6_RKT_RKT0_
FN:1503,_ZN7testing8internal11CmpHelperEQISt6vectorIiSaIiEES4_EENS_15AssertionResultEPKcS7_RKT_RKT0_
FN:1503,_ZN7testing8internal11CmpHelperEQISt6vectorIhSaIhEES4_EENS_15AssertionResultEPKcS7_RKT_RKT0_
FN:1503,_ZN7testing8internal11CmpHelperEQI5ArrayIiLm5EES3_EENS_15AssertionResultEPKcS6_RKT_RKT0_
FN:1503,_ZN7testing8internal11CmpHelperEQI11MIDI_read_tiEENS_15AssertionResultEPKcS5_RKT_RKT0_
FN:1503,_ZN7testing8internal11CmpHelperEQI11MIDI_read_tS2_EENS_15AssertionResultEPKcS5_RKT_RKT0_
FN:1503,_ZN7testing8internal11CmpHelperEQI20MIDICNChannelAddressS2_EENS_15AssertionResultEPKcS5_RKT_RKT0_
FN:1503,_ZN7testing8internal11CmpHelperEQI5ArrayIjLm4EES3_EENS_15AssertionResultEPKcS6_RKT_RKT0_
FN:1503,_ZN7testing8internal11CmpHelperEQISt6vectorI12MIDI_messageSaIS3_EES5_EENS_15AssertionResultEPKcS8_RKT_RKT0_
FN:1503,_ZN7testing8internal11CmpHelperEQIN6Button5StateES3_EENS_15AssertionResultEPKcS6_RKT_RKT0_
FN:1503,_ZN7testing8internal11CmpHelperEQIiiEENS_15AssertionResultEPKcS4_RKT_RKT0_
FN:1503,_ZN7testing8internal11CmpHelperEQI7ChannelS2_EENS_15AssertionResultEPKcS5_RKT_RKT0_
FN:1503,_ZN7testing8internal11CmpHelperEQIhiEENS_15AssertionResultEPKcS4_RKT_RKT0_
FN:1531,_ZN7testing8internal8EqHelper7CompareISt6vectorI12MIDI_messageSaIS4_EES6_LPv0EEENS_15AssertionResultEPKcSA_RKT_RKT0_
FN:1531,_ZN7testing8internal8EqHelper7CompareIP8TestNodeDnLPv0EEENS_15AssertionResultEPKcS8_RKT_RKT0_
FN:1531,_ZN7testing8internal8EqHelper7CompareIccLPv0EEENS_15AssertionResultEPKcS6_RKT_RKT0_
FN:1531,_ZN7testing8internal8EqHelper7CompareI7ChannelS3_LPv0EEENS_15AssertionResultEPKcS7_RKT_RKT0_
FN:1531,_ZN7testing8internal8EqHelper7CompareISt6vectorIhSaIhEES5_LPv0EEENS_15AssertionResultEPKcS9_RKT_RKT0_
FN:1531,_ZN7testing8internal8EqHelper7CompareI11MIDI_read_tiLPv0EEENS_15AssertionResultEPKcS7_RKT_RKT0_
FN:1531,_ZN7testing8internal8EqHelper7CompareISt6vectorIiSaIiEES5_LPv0EEENS_15AssertionResultEPKcS9_RKT_RKT0_
FN:1531,_ZN7testing8internal8EqHelper7CompareI5ArrayIiLm5EES4_LPv0EEENS_15AssertionResultEPKcS8_RKT_RKT0_
FN:1531,_ZN7testing8internal8EqHelper7CompareI5ArrayIjLm4EES4_LPv0EEENS_15AssertionResultEPKcS8_RKT_RKT0_
FN:1531,_ZN7testing8internal8EqHelper7CompareIiiLPv0EEENS_15AssertionResultEPKcS6_RKT_RKT0_
FN:1531,_ZN7testing8internal8EqHelper7CompareI20MIDICNChannelAddressS3_LPv0EEENS_15AssertionResultEPKcS7_RKT_RKT0_
FN:1531,_ZN7testing8internal8EqHelper7CompareI11MIDI_read_tS3_LPv0EEENS_15AssertionResultEPKcS7_RKT_RKT0_
FN:1531,_ZN7testing8internal8EqHelper7CompareIhiLPv0EEENS_15AssertionResultEPKcS6_RKT_RKT0_
FN:1531,_ZN7testing8internal8EqHelper7CompareIbbLPv0EEENS_15AssertionResultEPKcS6_RKT_RKT0_
FN:1531,_ZN7testing8internal8EqHelper7CompareIN6Button5StateES4_LPv0EEENS_15AssertionResultEPKcS8_RKT_RKT0_
FN:1531,_ZN7testing8internal8EqHelper7CompareIP8TestNodeS4_LPv0EEENS_15AssertionResultEPKcS8_RKT_RKT0_
FN:1531,_ZN7testing8internal8EqHelper7CompareImiLPv0EEENS_15AssertionResultEPKcS6_RKT_RKT0_
FN:1565,_ZN7testing8internal18CmpHelperOpFailureI5ArrayIiLm5EES3_EENS_15AssertionResultEPKcS6_RKT_RKT0_S6_
FN:1565,_ZN7testing8internal18CmpHelperOpFailureI20MIDICNChannelAddressS2_EENS_15AssertionResultEPKcS5_RKT_RKT0_S5_
FN:1601,_ZN7testing8internal11CmpHelperNEI5ArrayIiLm5EES3_EENS_15AssertionResultEPKcS6_RKT_RKT0_
FN:1601,_ZN7testing8internal11CmpHelperNEI20MIDICNChannelAddressS2_EENS_15AssertionResultEPKcS5_RKT_RKT0_
FN:2447,_Z13RUN_ALL_TESTSv
FNDA:10,_ZN7testing8internal8EqHelper7CompareIccLPv0EEENS_15AssertionResultEPKcS6_RKT_RKT0_
FNDA:0,_ZN7testing8internal8EqHelper7CompareIP8TestNodeDnLPv0EEENS_15AssertionResultEPKcS8_RKT_RKT0_
FNDA:0,_ZN7testing15AssertionResultlsIA5_cEERS0_RKT_
FNDA:16,_ZN7testing8internal11CmpHelperEQIbbEENS_15AssertionResultEPKcS4_RKT_RKT0_
FNDA:1,_ZN7testing8internal11CmpHelperNEI5ArrayIiLm5EES3_EENS_15AssertionResultEPKcS6_RKT_RKT0_
FNDA:0,_ZN7testing15AssertionResultlsIPKcEERS0_RKT_
FNDA:0,_ZN7testing8internal8EqHelper7CompareISt6vectorI12MIDI_messageSaIS4_EES6_LPv0EEENS_15AssertionResultEPKcSA_RKT_RKT0_
FNDA:0,_ZN7testing8internal18CmpHelperEQFailureISt6vectorI12MIDI_messageSaIS3_EES5_EENS_15AssertionResultEPKcS8_RKT_RKT0_
FNDA:0,_ZN7testing15AssertionResultlsIA12_cEERS0_RKT_
FNDA:0,_ZN7testing11EnvironmentD0Ev
FNDA:0,_ZN7testing8internal18CmpHelperEQFailureImiEENS_15AssertionResultEPKcS4_RKT_RKT0_
FNDA:3,_ZN7testing8internal11CmpHelperNEI20MIDICNChannelAddressS2_EENS_15AssertionResultEPKcS5_RKT_RKT0_
FNDA:25,_ZN7testing8internal11CmpHelperEQIP8TestNodeDnEENS_15AssertionResultEPKcS6_RKT_RKT0_
FNDA:0,_ZN7testing11Environment5SetUpEv
FNDA:0,_ZN7testing15AssertionResultlsIA3_cEERS0_RKT_
FNDA:0,_ZN7testing8internal18CmpHelperOpFailureI5ArrayIiLm5EES3_EENS_15AssertionResultEPKcS6_RKT_RKT0_S6_
FNDA:0,_ZN7testing8internal18CmpHelperEQFailureIccEENS_15AssertionResultEPKcS4_RKT_RKT0_
FNDA:21,_ZN7testing8internal11CmpHelperEQImiEENS_15AssertionResultEPKcS4_RKT_RKT0_
FNDA:0,_ZN7testing8internal18CmpHelperEQFailureIP8TestNodeDnEENS_15AssertionResultEPKcS6_RKT_RKT0_
FNDA:6,_ZN7testing8internal8EqHelper7CompareI7ChannelS3_LPv0EEENS_15AssertionResultEPKcS7_RKT_RKT0_
FNDA:10,_ZN7testing8internal11CmpHelperEQIccEENS_15AssertionResultEPKcS4_RKT_RKT0_
FNDA:1,_ZN7testing8internal11CmpHelperEQI5ArrayIiLm5EES3_EENS_15AssertionResultEPKcS6_RKT_RKT0_
FNDA:0,_ZN7testing8internal8EqHelper7CompareISt6vectorIiSaIiEES5_LPv0EEENS_15AssertionResultEPKcS9_RKT_RKT0_
FNDA:0,_ZN7testing4Test17TearDownTestSuiteEv
FNDA:0,_ZN7testing8internal8EqHelper7CompareI11MIDI_read_tiLPv0EEENS_15AssertionResultEPKcS7_RKT_RKT0_
FNDA:19,_ZN7testing8internal11CmpHelperEQISt6vectorIhSaIhEES4_EENS_15AssertionResultEPKcS7_RKT_RKT0_
FNDA:0,_ZN7testing8internal18CmpHelperEQFailureI7ChannelS2_EENS_15AssertionResultEPKcS5_RKT_RKT0_
FNDA:0,_ZN7testing8internal8EqHelper7CompareISt6vectorIhSaIhEES5_LPv0EEENS_15AssertionResultEPKcS9_RKT_RKT0_
FNDA:7,_ZN7testing8internal11CmpHelperEQISt6vectorIiSaIiEES4_EENS_15AssertionResultEPKcS7_RKT_RKT0_
FNDA:0,_ZN7testing8internal18CmpHelperEQFailureI11MIDI_read_tiEENS_15AssertionResultEPKcS5_RKT_RKT0_
FNDA:0,_ZN7testing8internal18CmpHelperEQFailureIN6Button5StateES3_EENS_15AssertionResultEPKcS6_RKT_RKT0_
FNDA:59,_ZN7testing8internal11CmpHelperEQIP8TestNodeS3_EENS_15AssertionResultEPKcS6_RKT_RKT0_
FNDA:0,_ZN7testing8internal18CmpHelperOpFailureI20MIDICNChannelAddressS2_EENS_15AssertionResultEPKcS5_RKT_RKT0_S5_
FNDA:0,_ZN7testing8internal18CmpHelperEQFailureIiiEENS_15AssertionResultEPKcS4_RKT_RKT0_
FNDA:2,_ZN7testing8internal8EqHelper7CompareI5ArrayIjLm4EES4_LPv0EEENS_15AssertionResultEPKcS8_RKT_RKT0_
FNDA:0,_ZNK7testing15AssertionResult15failure_messageEv
FNDA:0,_ZN7testing11Environment8TearDownEv
FNDA:0,_ZN7testing8internal18CmpHelperEQFailureIhiEENS_15AssertionResultEPKcS4_RKT_RKT0_
FNDA:70,_ZN7testing8internal11CmpHelperEQI11MIDI_read_tS2_EENS_15AssertionResultEPKcS5_RKT_RKT0_
FNDA:1,_ZN7testing8internal8EqHelper7CompareI5ArrayIiLm5EES4_LPv0EEENS_15AssertionResultEPKcS8_RKT_RKT0_
FNDA:542,_ZNK7testing15AssertionResultcvbEv
FNDA:4,_ZN7testing8internal11CmpHelperEQI11MIDI_read_tiEENS_15AssertionResultEPKcS5_RKT_RKT0_
FNDA:0,_ZN7testing8internal18CmpHelperEQFailureIbbEENS_15AssertionResultEPKcS4_RKT_RKT0_
FNDA:1,_Z13RUN_ALL_TESTSv
FNDA:0,_ZN7testing8internal18CmpHelperEQFailureISt6vectorIiSaIiEES4_EENS_15AssertionResultEPKcS7_RKT_RKT0_
FNDA:0,_ZN7testing8internal8EqHelper7CompareIiiLPv0EEENS_15AssertionResultEPKcS6_RKT_RKT0_
FNDA:2,_ZN7testing8internal11CmpHelperEQI5ArrayIjLm4EES3_EENS_15AssertionResultEPKcS6_RKT_RKT0_
FNDA:0,_ZN7testing8internal18CmpHelperEQFailureISt6vectorIhSaIhEES4_EENS_15AssertionResultEPKcS7_RKT_RKT0_
FNDA:0,_ZN7testing8internal18CmpHelperEQFailureI5ArrayIiLm5EES3_EENS_15AssertionResultEPKcS6_RKT_RKT0_
FNDA:1,_ZN7testing8internal11CmpHelperEQI20MIDICNChannelAddressS2_EENS_15AssertionResultEPKcS5_RKT_RKT0_
FNDA:0,_ZNK7testing15AssertionResult7messageEv
FNDA:0,_ZN7testing8internal18CmpHelperEQFailureIP8TestNodeS3_EENS_15AssertionResultEPKcS6_RKT_RKT0_
FNDA:0,_ZN7testing15AssertionResultlsINSt7__cxx1112basic_stringIcSt11char_traitsIcESaIcEEEEERS0_RKT_
FNDA:16,_ZN7testing8internal8EqHelper7CompareIbbLPv0EEENS_15AssertionResultEPKcS6_RKT_RKT0_
FNDA:23,_ZN7testing8internal8EqHelper7CompareIN6Button5StateES4_LPv0EEENS_15AssertionResultEPKcS8_RKT_RKT0_
FNDA:23,_ZN7testing8internal11CmpHelperEQIN6Button5StateES3_EENS_15AssertionResultEPKcS6_RKT_RKT0_
FNDA:542,_ZN7testing15AssertionResultC2IbEERKT_PNS_8internal8EnableIfIXntsrSt14is_convertibleIS2_S0_E5valueEE4typeE
FNDA:0,_ZN7testing15AssertionResult13AppendMessageERKNS_7MessageE
FNDA:0,_ZN7testing8internal8EqHelper7CompareI11MIDI_read_tS3_LPv0EEENS_15AssertionResultEPKcS7_RKT_RKT0_
FNDA:0,_ZN7testing8internal8EqHelper7CompareIhiLPv0EEENS_15AssertionResultEPKcS6_RKT_RKT0_
FNDA:0,_ZN7testing8internal18CmpHelperEQFailureI20MIDICNChannelAddressS2_EENS_15AssertionResultEPKcS5_RKT_RKT0_
FNDA:0,_ZN7testing4Test16TearDownTestCaseEv
FNDA:9,_ZN7testing8internal11CmpHelperEQISt6vectorI12MIDI_messageSaIS3_EES5_EENS_15AssertionResultEPKcS8_RKT_RKT0_
FNDA:0,_ZN7testing8internal18CmpHelperEQFailureI5ArrayIjLm4EES3_EENS_15AssertionResultEPKcS6_RKT_RKT0_
FNDA:1,_ZN7testing11EnvironmentD2Ev
FNDA:0,_ZN7testing4Test14SetUpTestSuiteEv
FNDA:0,_ZN7testing4Test5SetupEv
FNDA:1,_ZN7testing8internal8EqHelper7CompareI20MIDICNChannelAddressS3_LPv0EEENS_15AssertionResultEPKcS7_RKT_RKT0_
FNDA:84,_ZN7testing8internal11CmpHelperEQIhiEENS_15AssertionResultEPKcS4_RKT_RKT0_
FNDA:6,_ZN7testing8internal11CmpHelperEQI7ChannelS2_EENS_15AssertionResultEPKcS5_RKT_RKT0_
FNDA:0,_ZN7testing11Environment5SetupEv
FNDA:0,_ZN7testing8internal8EqHelper7CompareImiLPv0EEENS_15AssertionResultEPKcS6_RKT_RKT0_
FNDA:0,_ZN7testing4Test13SetUpTestCaseEv
FNDA:0,_ZN7testing8internal18CmpHelperEQFailureI11MIDI_read_tS2_EENS_15AssertionResultEPKcS5_RKT_RKT0_
FNDA:45,_ZN7testing8internal11CmpHelperEQIiiEENS_15AssertionResultEPKcS4_RKT_RKT0_
FNDA:1,_ZN7testing24AddGlobalTestEnvironmentEPNS_11EnvironmentE
FNDA:0,_ZN7testing8internal8EqHelper7CompareIP8TestNodeS4_LPv0EEENS_15AssertionResultEPKcS8_RKT_RKT0_
FNF:77
FNH:31
DA:293,542
DA:299,542
DA:312,542
DA:321,0
DA:322,0
DA:325,0
DA:328,0
DA:329,0
DA:330,0
DA:343,0
DA:344,0
DA:345,0
DA:346,0
DA:415,0
DA:423,0
DA:427,0
DA:428,0
DA:509,0
DA:1029,1
DA:1032,0
DA:1035,0
DA:1040,0
DA:1455,1
DA:1456,1
DA:1484,0
DA:1491,0
DA:1503,402
DA:1507,402
DA:1508,402
DA:1511,0
DA:1531,402
DA:1534,402
DA:1565,0
DA:1569,0
DA:1570,0
DA:1571,0
DA:1601,4
DA:2447,1
DA:2448,1
LF:39
LH:14
end_of_record
TN:
SF:/home/pieter/GitHub/Control-Surface/build/googletest/googletest-src/googletest/include/gtest/internal/gtest-internal.h
FN:442,_ZN7testing8internal15TestFactoryBaseD0Ev
FN:442,_ZN7testing8internal15TestFactoryBaseD2Ev
FN:449,_ZN7testing8internal15TestFactoryBaseC2Ev
FN:460,_ZN7testing8internal15TestFactoryImplI32CCRotaryEncoder_turnOneStep_TestE10CreateTestEv
FN:460,_ZN7testing8internal15TestFactoryImplI44MCUVUBankable_setValueBankChangeChannel_TestE10CreateTestEv
FN:460,_ZN7testing8internal15TestFactoryImplI30uniquePtr_constructAssign_TestE10CreateTestEv
FN:460,_ZN7testing8internal15TestFactoryImplI36DoublyLinkedList_const_iterator_TestE10CreateTestEv
FN:460,_ZN7testing8internal15TestFactoryImplI28SerialMIDIParser_noteOn_TestE10CreateTestEv
FN:460,_ZN7testing8internal15TestFactoryImplI19Button_pressed_TestE10CreateTestEv
FN:460,_ZN7testing8internal15TestFactoryImplI16Bank_select_TestE10CreateTestEv
FN:460,_ZN7testing8internal15TestFactoryImplI16MCUVU_decay_TestE10CreateTestEv
FN:460,_ZN7testing8internal15TestFactoryImplI29SerialMIDIParser_noteOff_TestE10CreateTestEv
FN:460,_ZN7testing8internal15TestFactoryImplI64CCRotaryEncoderBankable_turnOneStepChangeSettingTurnOneStep_TestE10CreateTestEv
FN:460,_ZN7testing8internal15TestFactoryImplI33MCUTimeDisplay_getTextOffset_TestE10CreateTestEv
FN:460,_ZN7testing8internal15TestFactoryImplI24MCUVU_clearOverload_TestE10CreateTestEv
FN:460,_ZN7testing8internal15TestFactoryImplI32MIDICNChannelAddress_equals_TestE10CreateTestEv
FN:460,_ZN7testing8internal15TestFactoryImplI53CCButtonBankable_pressAndChangeSettingAndRelease_TestE10CreateTestEv
FN:460,_ZN7testing8internal15TestFactoryImplI30MIDINoteLED_NoteOnNoteOff_TestE10CreateTestEv
FN:460,_ZN7testing8internal15TestFactoryImplI64BluetoothMIDIInterface_receiveMultipleTwoByteChannelMessage_TestE10CreateTestEv
FN:460,_ZN7testing8internal15TestFactoryImplI29Bank_onBankSettingChange_TestE10CreateTestEv
FN:460,_ZN7testing8internal15TestFactoryImplI39DoublyLinkedList_moveDownFirstNode_TestE10CreateTestEv
FN:460,_ZN7testing8internal15TestFactoryImplI40DoublyLinkedList_moveDownSecondNode_TestE10CreateTestEv
FN:460,_ZN7testing8internal15TestFactoryImplI39NoteButtonLatching_pressAndRelease_TestE10CreateTestEv
FN:460,_ZN7testing8internal15TestFactoryImplI41SerialMIDIParser_noteOnRunningStatus_TestE10CreateTestEv
FN:460,_ZN7testing8internal15TestFactoryImplI30MIDICNChannelAddress_init_TestE10CreateTestEv
FN:460,_ZN7testing8internal15TestFactoryImplI33SerialMIDIParser_sysEx2Bytes_TestE10CreateTestEv
FN:460,_ZN7testing8internal15TestFactoryImplI44DoublyLinkedList_insertNodeBeforeMiddle_TestE10CreateTestEv
FN:460,_ZN7testing8internal15TestFactoryImplI32uniquePtr_constructDestruct_TestE10CreateTestEv
FN:460,_ZN7testing8internal15TestFactoryImplI20Button_released_TestE10CreateTestEv
FN:460,_ZN7testing8internal15TestFactoryImplI38DoublyLinkedList_reverse_iterator_TestE10CreateTestEv
FN:460,_ZN7testing8internal15TestFactoryImplI30USBMIDIParser_sysEx6Bytes_TestE10CreateTestEv
FN:460,_ZN7testing8internal15TestFactoryImplI35SerialMIDIParser_programChange_TestE10CreateTestEv
FN:460,_ZN7testing8internal15TestFactoryImplI37Array_initializeAndRetrieveConst_TestE10CreateTestEv
FN:460,_ZN7testing8internal15TestFactoryImplI36DoublyLinkedList_deleteLastNode_TestE10CreateTestEv
FN:460,_ZN7testing8internal15TestFactoryImplI34IncrementSelector_pressNoWrap_TestE10CreateTestEv
FN:460,_ZN7testing8internal15TestFactoryImplI48USBMIDIParser_sysExEndsWithoutStarting1Byte_TestE10CreateTestEv
FN:460,_ZN7testing8internal15TestFactoryImplI37SerialMIDIParser_channelPressure_TestE10CreateTestEv
FN:460,_ZN7testing8internal15TestFactoryImplI50IncrementDecrementSelector_pressDecrementWrap_TestE10CreateTestEv
FN:460,_ZN7testing8internal15TestFactoryImplI38CCRotaryEncoder_turnFourHalfSteps_TestE10CreateTestEv
FN:460,_ZN7testing8internal15TestFactoryImplI38AnalogMultiplex_digitalReadEnable_TestE10CreateTestEv
FN:460,_ZN7testing8internal15TestFactoryImplI41BluetoothMIDIInterface_receiveSysEx2_TestE10CreateTestEv
FN:460,_ZN7testing8internal15TestFactoryImplI32Array_initializeAndRetrieve_TestE10CreateTestEv
FN:460,_ZN7testing8internal15TestFactoryImplI38AnalogMultiplex_analogReadEnable3_TestE10CreateTestEv
FN:460,_ZN7testing8internal15TestFactoryImplI30USBMIDIParser_sysEx7Bytes_TestE10CreateTestEv
FN:460,_ZN7testing8internal15TestFactoryImplI27USBMIDIParser_noteOnCN_TestE10CreateTestEv
FN:460,_ZN7testing8internal15TestFactoryImplI51SerialMIDIParser_sysExEndsWithoutStarting1Byte_TestE10CreateTestEv
FN:460,_ZN7testing8internal15TestFactoryImplI45DoublyLinkedList_insertSortedGreaterThan_TestE10CreateTestEv
FN:460,_ZN7testing8internal15TestFactoryImplI24OutputBank_noTracks_TestE10CreateTestEv
FN:460,_ZN7testing8internal15TestFactoryImplI30SerialMIDIParser_RealTime_TestE10CreateTestEv
FN:460,_ZN7testing8internal15TestFactoryImplI27MIDINote_NoteOnNoteOff_TestE10CreateTestEv
FN:460,_ZN7testing8internal15TestFactoryImplI49USBMIDIParser_sysExEndsWithoutStarting3Bytes_TestE10CreateTestEv
FN:460,_ZN7testing8internal15TestFactoryImplI32DoublyLinkedList_appendNode_TestE10CreateTestEv
FN:460,_ZN7testing8internal15TestFactoryImplI39MCUTimeDisplay_getTextLengthTooBig_TestE10CreateTestEv
FN:460,_ZN7testing8internal15TestFactoryImplI24Array_rangeForConst_TestE10CreateTestEv
FN:460,_ZN7testing8internal15TestFactoryImplI19Array_rangeFor_TestE10CreateTestEv
FN:460,_ZN7testing8internal15TestFactoryImplI47USBMIDIParser_sysExContinueWithoutStarting_TestE10CreateTestEv
FN:460,_ZN7testing8internal15TestFactoryImplI20Error_exception_TestE10CreateTestEv
FN:460,_ZN7testing8internal15TestFactoryImplI55NoteButtonMatrixBankable_pressChangeSettingRelease_TestE10CreateTestEv
FN:460,_ZN7testing8internal15TestFactoryImplI34DoublyLinkedList_insertSorted_TestE10CreateTestEv
FN:460,_ZN7testing8internal15TestFactoryImplI18Button_rising_TestE10CreateTestEv
FN:460,_ZN7testing8internal15TestFactoryImplI31NoteButton_pressAndRelease_TestE10CreateTestEv
FN:460,_ZN7testing8internal15TestFactoryImplI30ManyButtonsSelector_press_TestE10CreateTestEv
FN:460,_ZN7testing8internal15TestFactoryImplI30USBMIDIParser_sysEx5Bytes_TestE10CreateTestEv
FN:460,_ZN7testing8internal15TestFactoryImplI36generateIncrementalArray_simple_TestE10CreateTestEv
FN:460,_ZN7testing8internal15TestFactoryImplI32IncrementSelector_pressWrap_TestE10CreateTestEv
FN:460,_ZN7testing8internal15TestFactoryImplI54MCUTimeDisplay_getBarsGetBeatsGetFramesSpacesOnly_TestE10CreateTestEv
FN:460,_ZN7testing8internal15TestFactoryImplI22Serial_write_byte_TestE10CreateTestEv
FN:460,_ZN7testing8internal15TestFactoryImplI49USBMIDIParser_sysExEndsWithoutStarting2Bytes_TestE10CreateTestEv
FN:460,_ZN7testing8internal15TestFactoryImplI41CCRotaryEncoder_turnOneStepBackwards_TestE10CreateTestEv
FN:460,_ZN7testing8internal15TestFactoryImplI39MIDICNChannelAddress_addInvalidRHS_TestE10CreateTestEv
FN:460,_ZN7testing8internal15TestFactoryImplI42MCUVULEDsBankable_displayOnBankChange_TestE10CreateTestEv
FN:460,_ZN7testing8internal15TestFactoryImplI35MCUVU_retainValueAfterOverload_TestE10CreateTestEv
FN:460,_ZN7testing8internal15TestFactoryImplI39NoteButtonBankable_pressAndRelease_TestE10CreateTestEv
FN:460,_ZN7testing8internal15TestFactoryImplI51MCUTimeDisplay_getBarsGetBeatsGetFrames3Digits_TestE10CreateTestEv
FN:460,_ZN7testing8internal15TestFactoryImplI55NoteButtonBankable_pressAndChangeSettingAndRelease_TestE10CreateTestEv
FN:460,_ZN7testing8internal15TestFactoryImplI33Error_exceptionWhatErrorCode_TestE10CreateTestEv
FN:460,_ZN7testing8internal15TestFactoryImplI23BitArray_construct_TestE10CreateTestEv
FN:460,_ZN7testing8internal15TestFactoryImplI30USBMIDIParser_sysEx3Bytes_TestE10CreateTestEv
FN:460,_ZN7testing8internal15TestFactoryImplI52SerialMIDIParser_sysExEndsWithoutStarting3Bytes_TestE10CreateTestEv
FN:460,_ZN7testing8internal15TestFactoryImplI70BluetoothMIDIInterface_receiveMultipleChannelMessageRunningStatus_TestE10CreateTestEv
FN:460,_ZN7testing8internal15TestFactoryImplI25generateArray_simple_TestE10CreateTestEv
FN:460,_ZN7testing8internal15TestFactoryImplI41DoublyLinkedList_insertSortedDoubles_TestE10CreateTestEv
FN:460,_ZN7testing8internal15TestFactoryImplI21Button_construct_TestE10CreateTestEv
FN:460,_ZN7testing8internal15TestFactoryImplI33MIDICNChannelAddress_incrAdd_TestE10CreateTestEv
FN:460,_ZN7testing8internal15TestFactoryImplI31uniquePtr_constructRelease_TestE10CreateTestEv
FN:460,_ZN7testing8internal15TestFactoryImplI44MIDICNChannelAddress_addNegativeChannel_TestE10CreateTestEv
FN:460,_ZN7testing8internal15TestFactoryImplI30OutputBank_initialSetting_TestE10CreateTestEv
FN:460,_ZN7testing8internal15TestFactoryImplI40BluetoothMIDIInterface_receiveSysEx_TestE10CreateTestEv
FN:460,_ZN7testing8internal15TestFactoryImplI29MIDICNChannelAddress_add_TestE10CreateTestEv
FN:460,_ZN7testing8internal15TestFactoryImplI32DoublyLinkedList_deleteNode_TestE10CreateTestEv
FN:460,_ZN7testing8internal15TestFactoryImplI26OutputBank_OutputBank_TestE10CreateTestEv
FN:460,_ZN7testing8internal15TestFactoryImplI53CCButtonBankable_changeSettingAndPressAndRelease_TestE10CreateTestEv
FN:460,_ZN7testing8internal15TestFactoryImplI55ExtendedInputOutput_nonExistentPinOfDeletedElement_TestE10CreateTestEv
FN:460,_ZN7testing8internal15TestFactoryImplI45DoublyLinkedList_couldContainDeleteFirst_TestE10CreateTestEv
FN:460,_ZN7testing8internal15TestFactoryImplI19Button_falling_TestE10CreateTestEv
FN:460,_ZN7testing8internal15TestFactoryImplI26Serial_println_string_TestE10CreateTestEv
FN:460,_ZN7testing8internal15TestFactoryImplI52SerialMIDIParser_sysExEndsWithoutStarting2Bytes_TestE10CreateTestEv
FN:460,_ZN7testing8internal15TestFactoryImplI39MCUTimeDisplay_getTextOffsetLength_TestE10CreateTestEv
FN:460,_ZN7testing8internal15TestFactoryImplI23Array2D_initialize_TestE10CreateTestEv
FN:460,_ZN7testing8internal15TestFactoryImplI29uniquePtr_constructReset_TestE10CreateTestEv
FN:460,_ZN7testing8internal15TestFactoryImplI38MIDINote_NoteOnNoteOnZeroVelocity_TestE10CreateTestEv
FN:460,_ZN7testing8internal15TestFactoryImplI41ExtendedInputOutput_pinOutOfBoundsLt_TestE10CreateTestEv
FN:460,_ZN7testing8internal15TestFactoryImplI51MCUTimeDisplay_getBarsGetBeatsGetFrames4Digits_TestE10CreateTestEv
FN:460,_ZN7testing8internal15TestFactoryImplI27Button_debouncePressed_TestE10CreateTestEv
FN:460,_ZN7testing8internal15TestFactoryImplI37CCRotaryEncoder_turnSixteenSteps_TestE10CreateTestEv
FN:460,_ZN7testing8internal15TestFactoryImplI44MCUVUBankable_setValueBankChangeAddress_TestE10CreateTestEv
FN:460,_ZN7testing8internal15TestFactoryImplI31SerialMIDIParser_pitchBend_TestE10CreateTestEv
FN:460,_ZN7testing8internal15TestFactoryImplI44DoublyLinkedList_couldContainDeleteLast_TestE10CreateTestEv
FN:460,_ZN7testing8internal15TestFactoryImplI44MCUVUBankable_overloadBankChangeAddress_TestE10CreateTestEv
FN:460,_ZN7testing8internal15TestFactoryImplI30DoublyLinkedList_iterator_TestE10CreateTestEv
FN:460,_ZN7testing8internal15TestFactoryImplI47NoteButtonLatchingBankable_pressAndRelease_TestE10CreateTestEv
FN:460,_ZN7testing8internal15TestFactoryImplI37NoteButtonMatrix_pressAndRelease_TestE10CreateTestEv
FN:460,_ZN7testing8internal15TestFactoryImplI19MIDINote_reset_TestE10CreateTestEv
FN:460,_ZN7testing8internal15TestFactoryImplI14Bank_Bank_TestE10CreateTestEv
FN:460,_ZN7testing8internal15TestFactoryImplI30CCButtons_pressAndRelease_TestE10CreateTestEv
FN:460,_ZN7testing8internal15TestFactoryImplI33SerialMIDIParser_sysEx7Bytes_TestE10CreateTestEv
FN:460,_ZN7testing8internal15TestFactoryImplI30USBMIDIParser_sysEx2Bytes_TestE10CreateTestEv
FN:460,_ZN7testing8internal15TestFactoryImplI39AnalogMultiplex_analogReadNoEnable_TestE10CreateTestEv
FN:460,_ZN7testing8internal15TestFactoryImplI46DoublyLinkedList_couldContainDeleteMiddle_TestE10CreateTestEv
FN:460,_ZN7testing8internal15TestFactoryImplI19MCUVU_setValue_TestE10CreateTestEv
FN:460,_ZN7testing8internal15TestFactoryImplI18millis_millis_TestE10CreateTestEv
FN:460,_ZN7testing8internal15TestFactoryImplI30USBMIDIParser_sysEx4Bytes_TestE10CreateTestEv
FN:460,_ZN7testing8internal15TestFactoryImplI22MIDINote_resetAll_TestE10CreateTestEv
FN:460,_ZN7testing8internal15TestFactoryImplI23Serial_write_bytes_TestE10CreateTestEv
FN:460,_ZN7testing8internal15TestFactoryImplI39MIDICNChannelAddress_addInvalidLHS_TestE10CreateTestEv
FN:460,_ZN7testing8internal15TestFactoryImplI43BluetoothMIDIInterface_initializeBegin_TestE10CreateTestEv
FN:460,_ZN7testing8internal15TestFactoryImplI34MCUTimeDisplay_setFirstLetter_TestE10CreateTestEv
FN:460,_ZN7testing8internal15TestFactoryImplI16Array_write_TestE10CreateTestEv
FN:460,_ZN7testing8internal15TestFactoryImplI33SerialMIDIParser_sysEx3Bytes_TestE10CreateTestEv
FN:460,_ZN7testing8internal15TestFactoryImplI40AnalogMultiplex_digitalReadNoEnable_TestE10CreateTestEv
FN:460,_ZN7testing8internal15TestFactoryImplI57BluetoothMIDIInterface_receiveMultipleChannelMessage_TestE10CreateTestEv
FN:460,_ZN7testing8internal15TestFactoryImplI37IncrementDecrementSelector_reset_TestE10CreateTestEv
FN:460,_ZN7testing8internal15TestFactoryImplI27USBMIDIParser_Realtime_TestE10CreateTestEv
FN:460,_ZN7testing8internal15TestFactoryImplI38DoublyLinkedList_moveDownLastNode_TestE10CreateTestEv
FN:460,_ZN7testing8internal15TestFactoryImplI37MCUTimeDisplay_getTextOffsetLast_TestE10CreateTestEv
FN:460,_ZN7testing8internal15TestFactoryImplI58BluetoothMIDIInterface_receiveSysExSplitAcrossPackets_TestE10CreateTestEv
FN:460,_ZN7testing8internal15TestFactoryImplI50IncrementDecrementSelector_pressIncrementWrap_TestE10CreateTestEv
FN:460,_ZN7testing8internal15TestFactoryImplI28Button_debounceReleased_TestE10CreateTestEv
FN:460,_ZN7testing8internal15TestFactoryImplI46CCRotaryEncoder_turnSixteenStepsBackwards_TestE10CreateTestEv
FN:460,_ZN7testing8internal15TestFactoryImplI51BluetoothMIDIInterface_receiveSysExAndRealTime_TestE10CreateTestEv
FN:460,_ZN7testing8internal15TestFactoryImplI39ExtendedInputOutput_nonExistentPin_TestE10CreateTestEv
FN:460,_ZN7testing8internal15TestFactoryImplI52IncrementDecrementSelector_pressDecrementNoWrap_TestE10CreateTestEv
FN:460,_ZN7testing8internal15TestFactoryImplI52IncrementDecrementSelector_pressIncrementNoWrap_TestE10CreateTestEv
FN:460,_ZN7testing8internal15TestFactoryImplI51MCUTimeDisplay_getBarsGetBeatsGetFrames2Digits_TestE10CreateTestEv
FN:460,_ZN7testing8internal15TestFactoryImplI36ExtendedInputOutput_digitalRead_TestE10CreateTestEv
FN:460,_ZN7testing8internal15TestFactoryImplI44DoublyLinkedList_const_reverse_iterator_TestE10CreateTestEv
FN:460,_ZN7testing8internal15TestFactoryImplI37CCButtonBankable_pressAndRelease_TestE10CreateTestEv
FN:460,_ZN7testing8internal15TestFactoryImplI55NoteButtonBankable_changeSettingAndPressAndRelease_TestE10CreateTestEv
FN:460,_ZN7testing8internal15TestFactoryImplI37DoublyLinkedList_deleteFirstNode_TestE10CreateTestEv
FN:460,_ZN7testing8internal15TestFactoryImplI26USBMIDIParser_noteOff_TestE10CreateTestEv
FN:460,_ZN7testing8internal15TestFactoryImplI29CCButton_pressAndRelease_TestE10CreateTestEv
FN:460,_ZN7testing8internal15TestFactoryImplI25BitArray_setClearGet_TestE10CreateTestEv
FN:460,_ZN7testing8internal15TestFactoryImplI34DoublyLinkedList_moveDownNode_TestE10CreateTestEv
FN:460,_ZN7testing8internal15TestFactoryImplI31MCUTimeDisplay_getTextFull_TestE10CreateTestEv
FN:460,_ZN7testing8internal15TestFactoryImplI19Array_equality_TestE10CreateTestEv
FN:460,_ZN7testing8internal15TestFactoryImplI25USBMIDIParser_noteOn_TestE10CreateTestEv
FN:460,_ZN7testing8internal15TestFactoryImplI56CCButtonsBankable_pressChangeBankAndReleaseAndPress_TestE10CreateTestEv
FN:460,_ZN7testing8internal15TestFactoryImplI22MCUVU_setOverload_TestE10CreateTestEv
FN:460,_ZN7testing8internal15TestFactoryImplI37AnalogMultiplex_analogReadEnable_TestE10CreateTestEv
FN:460,_ZN7testing8internal15TestFactoryImplI41DoublyLinkedList_moveDownOnlyElement_TestE10CreateTestEv
FN:460,_ZN7testing8internal15TestFactoryImplI33MIDICNChannelAddress_invalid_TestE10CreateTestEv
FN:460,_ZN7testing8internal15TestFactoryImplI22OutputBank_select_TestE10CreateTestEv
FN:460,_ZN7testing8internal15TestFactoryImplI27Bank_selectOutOfBounds_TestE10CreateTestEv
FN:460,_ZN7testing8internal15TestFactoryImplI17EMA_overflow_TestE10CreateTestEv
FN:460,_ZN7testing8internal15TestFactoryImplI78BluetoothMIDIInterface_receiveMultipleChannelMessageRunningStatusRealTime_TestE10CreateTestEv
FN:460,_ZN7testing8internal15TestFactoryImplI50MCUTimeDisplay_getBarsGetBeatsGetFrames1Digit_TestE10CreateTestEv
FN:460,_ZN7testing8internal15TestFactoryImplI35SerialMIDIParser_controlChange_TestE10CreateTestEv
FN:460,_ZN7testing8internal15TestFactoryImplI41ExtendedInputOutput_pinOutOfBoundsGt_TestE10CreateTestEv
FN:460,_ZN7testing8internal15TestFactoryImplI63NoteButtonLatchingBankable_changeSettingAndPressAndRelease_TestE10CreateTestEv
FN:460,_ZN7testing8internal15TestFactoryImplI40ExtendedInputOutput_outOfPinNumbers_TestE10CreateTestEv
FN:460,_ZN7testing8internal15TestFactoryImplI40DoublyLinkedList_couldContainInsert_TestE10CreateTestEv
FN:460,_ZN7testing8internal15TestFactoryImplI43DoublyLinkedList_insertNodeBeforeFirst_TestE10CreateTestEv
FN:460,_ZN7testing8internal15TestFactoryImplI24Serial_print_string_TestE10CreateTestEv
FN:460,_ZN7testing8internal15TestFactoryImplI48SerialMIDIParser_programChangeRunningStatus_TestE10CreateTestEv
FN:460,_ZN7testing8internal15TestFactoryImplI63NoteButtonLatchingBankable_pressAndChangeSettingAndRelease_TestE10CreateTestEv
FN:460,_ZN7testing8internal15TestFactoryImplI31USBMIDIParser_sysEx12Bytes_TestE10CreateTestEv
FN:460,_ZN7testing8internal15TestFactoryImplI32SerialMIDIParser_afterTouch_TestE10CreateTestEv
FN:460,_ZN7testing8internal15TestFactoryImplI50SerialMIDIParser_noteOffInterruptedByRealTime_TestE10CreateTestEv
FN:460,_ZN7testing8internal15TestFactoryImplI28AnalogMultiplex_pinMode_TestE10CreateTestEv
FN:460,_ZN7testing8internal15TestFactoryImplI49BluetoothMIDIInterface_receiveChannelMessage_TestE10CreateTestEv
FN:460,_ZN7testing8internal15TestFactoryImplI39MCUTimeDisplay_getTextOffsetTooBig_TestE10CreateTestEv
FN:460,_ZN7testing8internal15TestFactoryImplI44MIDICNChannelAddress_addNegativeAddress_TestE10CreateTestEv
FN:460,_ZN7testing8internal15TestFactoryImplI48MIDICNChannelAddress_addNegativeCableNumber_TestE10CreateTestEv
FN:460,_ZN7testing8internal15TestFactoryImplI51MCUTimeDisplay_getBarsGetBeatsGetFrames5Digits_TestE10CreateTestEv
FN:460,_ZN7testing8internal15TestFactoryImplI48CCButtonsBankable_pressChangeBankAndRelease_TestE10CreateTestEv
FN:481,_ZN7testing8internal12CodeLocationC2ERKNSt7__cxx1112basic_stringIcSt11char_traitsIcESaIcEEEi
FN:494,_ZN7testing8internal19GetNotDefaultOrNullEPFvvES2_
FN:509,_ZN7testing8internal16SuiteApiResolverINS_4TestEE19GetSetUpCaseOrSuiteEv
FN:522,_ZN7testing8internal16SuiteApiResolverINS_4TestEE22GetTearDownCaseOrSuiteEv
FN:817,_ZN7testing8internal12ConstCharPtrC2EPKc
FN:818,_ZNK7testing8internal12ConstCharPtrcvbEv
FN:1088,_ZN7testing8internal11NativeArrayIhEC2EPKhmNS0_25RelationToSourceReferenceE
FN:1102,_ZN7testing8internal11NativeArrayIhED2Ev
FN:1109,_ZNK7testing8internal11NativeArrayIhE5beginEv
FN:1110,_ZNK7testing8internal11NativeArrayIhE3endEv
FN:1132,_ZN7testing8internal11NativeArrayIhE7InitRefEPKhm
FNDA:1,_ZN7testing8internal15TestFactoryImplI22OutputBank_select_TestE10CreateTestEv
FNDA:1,_ZN7testing8internal15TestFactoryImplI27Bank_selectOutOfBounds_TestE10CreateTestEv
FNDA:1,_ZN7testing8internal15TestFactoryImplI33MIDICNChannelAddress_invalid_TestE10CreateTestEv
FNDA:1,_ZN7testing8internal15TestFactoryImplI41DoublyLinkedList_moveDownOnlyElement_TestE10CreateTestEv
FNDA:1,_ZN7testing8internal12ConstCharPtrC2EPKc
FNDA:1,_ZN7testing8internal15TestFactoryImplI40ExtendedInputOutput_outOfPinNumbers_TestE10CreateTestEv
FNDA:1,_ZN7testing8internal15TestFactoryImplI41ExtendedInputOutput_pinOutOfBoundsGt_TestE10CreateTestEv
FNDA:1,_ZN7testing8internal15TestFactoryImplI63NoteButtonLatchingBankable_changeSettingAndPressAndRelease_TestE10CreateTestEv
FNDA:1,_ZN7testing8internal15TestFactoryImplI35SerialMIDIParser_controlChange_TestE10CreateTestEv
FNDA:182,_ZN7testing8internal15TestFactoryBaseC2Ev
FNDA:1,_ZN7testing8internal15TestFactoryImplI50MCUTimeDisplay_getBarsGetBeatsGetFrames1Digit_TestE10CreateTestEv
FNDA:1,_ZN7testing8internal15TestFactoryImplI78BluetoothMIDIInterface_receiveMultipleChannelMessageRunningStatusRealTime_TestE10CreateTestEv
FNDA:1,_ZN7testing8internal15TestFactoryImplI17EMA_overflow_TestE10CreateTestEv
FNDA:1,_ZN7testing8internal15TestFactoryImplI63NoteButtonLatchingBankable_pressAndChangeSettingAndRelease_TestE10CreateTestEv
FNDA:1,_ZN7testing8internal15TestFactoryImplI32SerialMIDIParser_afterTouch_TestE10CreateTestEv
FNDA:1,_ZN7testing8internal15TestFactoryImplI31USBMIDIParser_sysEx12Bytes_TestE10CreateTestEv
FNDA:1,_ZN7testing8internal15TestFactoryImplI24Serial_print_string_TestE10CreateTestEv
FNDA:1,_ZN7testing8internal15TestFactoryImplI48SerialMIDIParser_programChangeRunningStatus_TestE10CreateTestEv
FNDA:1,_ZN7testing8internal15TestFactoryImplI43DoublyLinkedList_insertNodeBeforeFirst_TestE10CreateTestEv
FNDA:1,_ZN7testing8internal15TestFactoryImplI40DoublyLinkedList_couldContainInsert_TestE10CreateTestEv
FNDA:1,_ZN7testing8internal15TestFactoryImplI51MCUTimeDisplay_getBarsGetBeatsGetFrames5Digits_TestE10CreateTestEv
FNDA:1,_ZN7testing8internal15TestFactoryImplI48CCButtonsBankable_pressChangeBankAndRelease_TestE10CreateTestEv
FNDA:1,_ZN7testing8internal15TestFactoryImplI48MIDICNChannelAddress_addNegativeCableNumber_TestE10CreateTestEv
FNDA:1,_ZN7testing8internal15TestFactoryImplI44MIDICNChannelAddress_addNegativeAddress_TestE10CreateTestEv
FNDA:1,_ZN7testing8internal15TestFactoryImplI39MCUTimeDisplay_getTextOffsetTooBig_TestE10CreateTestEv
FNDA:1,_ZN7testing8internal15TestFactoryImplI50SerialMIDIParser_noteOffInterruptedByRealTime_TestE10CreateTestEv
FNDA:1,_ZN7testing8internal15TestFactoryImplI28AnalogMultiplex_pinMode_TestE10CreateTestEv
FNDA:1,_ZN7testing8internal15TestFactoryImplI49BluetoothMIDIInterface_receiveChannelMessage_TestE10CreateTestEv
FNDA:1,_ZN7testing8internal15TestFactoryImplI37CCButtonBankable_pressAndRelease_TestE10CreateTestEv
FNDA:1,_ZN7testing8internal15TestFactoryImplI44DoublyLinkedList_const_reverse_iterator_TestE10CreateTestEv
FNDA:1,_ZN7testing8internal15TestFactoryImplI36ExtendedInputOutput_digitalRead_TestE10CreateTestEv
FNDA:1,_ZN7testing8internal15TestFactoryImplI51MCUTimeDisplay_getBarsGetBeatsGetFrames2Digits_TestE10CreateTestEv
FNDA:1,_ZN7testing8internal15TestFactoryImplI26USBMIDIParser_noteOff_TestE10CreateTestEv
FNDA:1,_ZN7testing8internal15TestFactoryImplI29CCButton_pressAndRelease_TestE10CreateTestEv
FNDA:1,_ZN7testing8internal15TestFactoryImplI55NoteButtonBankable_changeSettingAndPressAndRelease_TestE10CreateTestEv
FNDA:1,_ZN7testing8internal15TestFactoryImplI37DoublyLinkedList_deleteFirstNode_TestE10CreateTestEv
FNDA:1,_ZN7testing8internal15TestFactoryImplI25USBMIDIParser_noteOn_TestE10CreateTestEv
FNDA:27,_ZNK7testing8internal11NativeArrayIhE3endEv
FNDA:1,_ZN7testing8internal15TestFactoryImplI56CCButtonsBankable_pressChangeBankAndReleaseAndPress_TestE10CreateTestEv
FNDA:1,_ZN7testing8internal15TestFactoryImplI19Array_equality_TestE10CreateTestEv
FNDA:1,_ZN7testing8internal15TestFactoryImplI25BitArray_setClearGet_TestE10CreateTestEv
FNDA:1,_ZN7testing8internal15TestFactoryImplI34DoublyLinkedList_moveDownNode_TestE10CreateTestEv
FNDA:1,_ZN7testing8internal15TestFactoryImplI31MCUTimeDisplay_getTextFull_TestE10CreateTestEv
FNDA:1,_ZN7testing8internal15TestFactoryImplI37AnalogMultiplex_analogReadEnable_TestE10CreateTestEv
FNDA:1,_ZN7testing8internal15TestFactoryImplI22MCUVU_setOverload_TestE10CreateTestEv
FNDA:1,_ZN7testing8internal15TestFactoryImplI39AnalogMultiplex_analogReadNoEnable_TestE10CreateTestEv
FNDA:1,_ZN7testing8internal15TestFactoryImplI33SerialMIDIParser_sysEx7Bytes_TestE10CreateTestEv
FNDA:1,_ZN7testing8internal15TestFactoryImplI30CCButtons_pressAndRelease_TestE10CreateTestEv
FNDA:1,_ZN7testing8internal15TestFactoryImplI30USBMIDIParser_sysEx2Bytes_TestE10CreateTestEv
FNDA:1,_ZN7testing8internal15TestFactoryImplI22MIDINote_resetAll_TestE10CreateTestEv
FNDA:1,_ZN7testing8internal15TestFactoryImplI18millis_millis_TestE10CreateTestEv
FNDA:1,_ZN7testing8internal15TestFactoryImplI19MCUVU_setValue_TestE10CreateTestEv
FNDA:182,_ZN7testing8internal15TestFactoryBaseD2Ev
FNDA:1,_ZN7testing8internal15TestFactoryImplI30USBMIDIParser_sysEx4Bytes_TestE10CreateTestEv
FNDA:1,_ZN7testing8internal15TestFactoryImplI46DoublyLinkedList_couldContainDeleteMiddle_TestE10CreateTestEv
FNDA:1,_ZN7testing8internal15TestFactoryImplI37IncrementDecrementSelector_reset_TestE10CreateTestEv
FNDA:1,_ZN7testing8internal15TestFactoryImplI27USBMIDIParser_Realtime_TestE10CreateTestEv
FNDA:1,_ZN7testing8internal15TestFactoryImplI38DoublyLinkedList_moveDownLastNode_TestE10CreateTestEv
FNDA:1,_ZN7testing8internal15TestFactoryImplI33SerialMIDIParser_sysEx3Bytes_TestE10CreateTestEv
FNDA:1,_ZN7testing8internal15TestFactoryImplI57BluetoothMIDIInterface_receiveMultipleChannelMessage_TestE10CreateTestEv
FNDA:1,_ZN7testing8internal15TestFactoryImplI40AnalogMultiplex_digitalReadNoEnable_TestE10CreateTestEv
FNDA:1,_ZN7testing8internal15TestFactoryImplI34MCUTimeDisplay_setFirstLetter_TestE10CreateTestEv
FNDA:1,_ZN7testing8internal15TestFactoryImplI16Array_write_TestE10CreateTestEv
FNDA:1,_ZN7testing8internal15TestFactoryImplI43BluetoothMIDIInterface_initializeBegin_TestE10CreateTestEv
FNDA:1,_ZN7testing8internal15TestFactoryImplI39MIDICNChannelAddress_addInvalidLHS_TestE10CreateTestEv
FNDA:1,_ZN7testing8internal15TestFactoryImplI23Serial_write_bytes_TestE10CreateTestEv
FNDA:1,_ZN7testing8internal15TestFactoryImplI51BluetoothMIDIInterface_receiveSysExAndRealTime_TestE10CreateTestEv
FNDA:1,_ZN7testing8internal15TestFactoryImplI39ExtendedInputOutput_nonExistentPin_TestE10CreateTestEv
FNDA:1,_ZN7testing8internal15TestFactoryImplI52IncrementDecrementSelector_pressIncrementNoWrap_TestE10CreateTestEv
FNDA:1,_ZN7testing8internal15TestFactoryImplI52IncrementDecrementSelector_pressDecrementNoWrap_TestE10CreateTestEv
FNDA:1,_ZN7testing8internal15TestFactoryImplI50IncrementDecrementSelector_pressIncrementWrap_TestE10CreateTestEv
FNDA:1,_ZN7testing8internal15TestFactoryImplI46CCRotaryEncoder_turnSixteenStepsBackwards_TestE10CreateTestEv
FNDA:1,_ZN7testing8internal15TestFactoryImplI28Button_debounceReleased_TestE10CreateTestEv
FNDA:1,_ZN7testing8internal15TestFactoryImplI37MCUTimeDisplay_getTextOffsetLast_TestE10CreateTestEv
FNDA:1,_ZN7testing8internal15TestFactoryImplI58BluetoothMIDIInterface_receiveSysExSplitAcrossPackets_TestE10CreateTestEv
FNDA:1,_ZN7testing8internal15TestFactoryImplI38MIDINote_NoteOnNoteOnZeroVelocity_TestE10CreateTestEv
FNDA:728,_ZN7testing8internal19GetNotDefaultOrNullEPFvvES2_
FNDA:1,_ZN7testing8internal15TestFactoryImplI29uniquePtr_constructReset_TestE10CreateTestEv
FNDA:1,_ZN7testing8internal15TestFactoryImplI39MCUTimeDisplay_getTextOffsetLength_TestE10CreateTestEv
FNDA:1,_ZN7testing8internal15TestFactoryImplI52SerialMIDIParser_sysExEndsWithoutStarting2Bytes_TestE10CreateTestEv
FNDA:1,_ZN7testing8internal15TestFactoryImplI23Array2D_initialize_TestE10CreateTestEv
FNDA:1,_ZN7testing8internal15TestFactoryImplI26Serial_println_string_TestE10CreateTestEv
FNDA:1,_ZN7testing8internal15TestFactoryImplI51MCUTimeDisplay_getBarsGetBeatsGetFrames4Digits_TestE10CreateTestEv
FNDA:1,_ZN7testing8internal15TestFactoryImplI41ExtendedInputOutput_pinOutOfBoundsLt_TestE10CreateTestEv
FNDA:1,_ZN7testing8internal15TestFactoryImplI44DoublyLinkedList_couldContainDeleteLast_TestE10CreateTestEv
FNDA:1,_ZN7testing8internal15TestFactoryImplI47NoteButtonLatchingBankable_pressAndRelease_TestE10CreateTestEv
FNDA:1,_ZN7testing8internal15TestFactoryImplI44MCUVUBankable_overloadBankChangeAddress_TestE10CreateTestEv
FNDA:1,_ZN7testing8internal15TestFactoryImplI30DoublyLinkedList_iterator_TestE10CreateTestEv
FNDA:1,_ZN7testing8internal15TestFactoryImplI31SerialMIDIParser_pitchBend_TestE10CreateTestEv
FNDA:1,_ZN7testing8internal15TestFactoryImplI27Button_debouncePressed_TestE10CreateTestEv
FNDA:1,_ZN7testing8internal15TestFactoryImplI44MCUVUBankable_setValueBankChangeAddress_TestE10CreateTestEv
FNDA:1,_ZN7testing8internal15TestFactoryImplI37CCRotaryEncoder_turnSixteenSteps_TestE10CreateTestEv
FNDA:1,_ZN7testing8internal15TestFactoryImplI14Bank_Bank_TestE10CreateTestEv
FNDA:1,_ZN7testing8internal15TestFactoryImplI19MIDINote_reset_TestE10CreateTestEv
FNDA:1,_ZN7testing8internal15TestFactoryImplI37NoteButtonMatrix_pressAndRelease_TestE10CreateTestEv
FNDA:1,_ZN7testing8internal15TestFactoryImplI30USBMIDIParser_sysEx3Bytes_TestE10CreateTestEv
FNDA:1,_ZN7testing8internal15TestFactoryImplI23BitArray_construct_TestE10CreateTestEv
FNDA:1,_ZN7testing8internal15TestFactoryImplI33Error_exceptionWhatErrorCode_TestE10CreateTestEv
FNDA:5,_ZN7testing8internal11NativeArrayIhED2Ev
FNDA:1,_ZN7testing8internal15TestFactoryImplI39NoteButtonBankable_pressAndRelease_TestE10CreateTestEv
FNDA:1,_ZN7testing8internal15TestFactoryImplI55NoteButtonBankable_pressAndChangeSettingAndRelease_TestE10CreateTestEv
FNDA:1,_ZN7testing8internal15TestFactoryImplI51MCUTimeDisplay_getBarsGetBeatsGetFrames3Digits_TestE10CreateTestEv
FNDA:1,_ZN7testing8internal15TestFactoryImplI41DoublyLinkedList_insertSortedDoubles_TestE10CreateTestEv
FNDA:1,_ZN7testing8internal15TestFactoryImplI25generateArray_simple_TestE10CreateTestEv
FNDA:1,_ZN7testing8internal15TestFactoryImplI70BluetoothMIDIInterface_receiveMultipleChannelMessageRunningStatus_TestE10CreateTestEv
FNDA:1,_ZN7testing8internal15TestFactoryImplI52SerialMIDIParser_sysExEndsWithoutStarting3Bytes_TestE10CreateTestEv
FNDA:1,_ZN7testing8internal15TestFactoryImplI32DoublyLinkedList_deleteNode_TestE10CreateTestEv
FNDA:1,_ZN7testing8internal15TestFactoryImplI29MIDICNChannelAddress_add_TestE10CreateTestEv
FNDA:1,_ZN7testing8internal15TestFactoryImplI31uniquePtr_constructRelease_TestE10CreateTestEv
FNDA:1,_ZN7testing8internal15TestFactoryImplI44MIDICNChannelAddress_addNegativeChannel_TestE10CreateTestEv
FNDA:1,_ZN7testing8internal15TestFactoryImplI30OutputBank_initialSetting_TestE10CreateTestEv
FNDA:1,_ZN7testing8internal15TestFactoryImplI40BluetoothMIDIInterface_receiveSysEx_TestE10CreateTestEv
FNDA:1,_ZN7testing8internal15TestFactoryImplI33MIDICNChannelAddress_incrAdd_TestE10CreateTestEv
FNDA:1,_ZN7testing8internal15TestFactoryImplI21Button_construct_TestE10CreateTestEv
FNDA:1,_ZN7testing8internal15TestFactoryImplI45DoublyLinkedList_couldContainDeleteFirst_TestE10CreateTestEv
FNDA:1,_ZN7testing8internal15TestFactoryImplI19Button_falling_TestE10CreateTestEv
FNDA:1,_ZN7testing8internal15TestFactoryImplI55ExtendedInputOutput_nonExistentPinOfDeletedElement_TestE10CreateTestEv
FNDA:182,_ZN7testing8internal12CodeLocationC2ERKNSt7__cxx1112basic_stringIcSt11char_traitsIcESaIcEEEi
FNDA:1,_ZN7testing8internal15TestFactoryImplI26OutputBank_OutputBank_TestE10CreateTestEv
FNDA:1,_ZN7testing8internal15TestFactoryImplI53CCButtonBankable_changeSettingAndPressAndRelease_TestE10CreateTestEv
FNDA:5,_ZN7testing8internal11NativeArrayIhEC2EPKhmNS0_25RelationToSourceReferenceE
FNDA:1,_ZN7testing8internal15TestFactoryImplI55NoteButtonMatrixBankable_pressChangeSettingRelease_TestE10CreateTestEv
FNDA:1,_ZN7testing8internal15TestFactoryImplI20Error_exception_TestE10CreateTestEv
FNDA:1,_ZN7testing8internal15TestFactoryImplI19Array_rangeFor_TestE10CreateTestEv
FNDA:182,_ZN7testing8internal16SuiteApiResolverINS_4TestEE22GetTearDownCaseOrSuiteEv
FNDA:1,_ZN7testing8internal15TestFactoryImplI47USBMIDIParser_sysExContinueWithoutStarting_TestE10CreateTestEv
FNDA:1,_ZN7testing8internal15TestFactoryImplI32DoublyLinkedList_appendNode_TestE10CreateTestEv
FNDA:1,_ZN7testing8internal15TestFactoryImplI39MCUTimeDisplay_getTextLengthTooBig_TestE10CreateTestEv
FNDA:1,_ZN7testing8internal15TestFactoryImplI24Array_rangeForConst_TestE10CreateTestEv
FNDA:1,_ZN7testing8internal15TestFactoryImplI54MCUTimeDisplay_getBarsGetBeatsGetFramesSpacesOnly_TestE10CreateTestEv
FNDA:1,_ZN7testing8internal15TestFactoryImplI36generateIncrementalArray_simple_TestE10CreateTestEv
FNDA:1,_ZN7testing8internal15TestFactoryImplI32IncrementSelector_pressWrap_TestE10CreateTestEv
FNDA:1,_ZN7testing8internal15TestFactoryImplI30ManyButtonsSelector_press_TestE10CreateTestEv
FNDA:1,_ZN7testing8internal15TestFactoryImplI30USBMIDIParser_sysEx5Bytes_TestE10CreateTestEv
FNDA:1,_ZN7testing8internal15TestFactoryImplI18Button_rising_TestE10CreateTestEv
FNDA:1,_ZN7testing8internal15TestFactoryImplI34DoublyLinkedList_insertSorted_TestE10CreateTestEv
FNDA:1,_ZN7testing8internal15TestFactoryImplI31NoteButton_pressAndRelease_TestE10CreateTestEv
FNDA:1,_ZN7testing8internal15TestFactoryImplI35MCUVU_retainValueAfterOverload_TestE10CreateTestEv
FNDA:1,_ZN7testing8internal15TestFactoryImplI42MCUVULEDsBankable_displayOnBankChange_TestE10CreateTestEv
FNDA:1,_ZN7testing8internal15TestFactoryImplI39MIDICNChannelAddress_addInvalidRHS_TestE10CreateTestEv
FNDA:1,_ZN7testing8internal15TestFactoryImplI22Serial_write_byte_TestE10CreateTestEv
FNDA:1,_ZN7testing8internal15TestFactoryImplI41CCRotaryEncoder_turnOneStepBackwards_TestE10CreateTestEv
FNDA:1,_ZN7testing8internal15TestFactoryImplI49USBMIDIParser_sysExEndsWithoutStarting2Bytes_TestE10CreateTestEv
FNDA:1,_ZN7testing8internal15TestFactoryImplI20Button_released_TestE10CreateTestEv
FNDA:1,_ZN7testing8internal15TestFactoryImplI38DoublyLinkedList_reverse_iterator_TestE10CreateTestEv
FNDA:1,_ZN7testing8internal15TestFactoryImplI33SerialMIDIParser_sysEx2Bytes_TestE10CreateTestEv
FNDA:1,_ZN7testing8internal15TestFactoryImplI44DoublyLinkedList_insertNodeBeforeMiddle_TestE10CreateTestEv
FNDA:1,_ZN7testing8internal15TestFactoryImplI32uniquePtr_constructDestruct_TestE10CreateTestEv
FNDA:1,_ZN7testing8internal15TestFactoryImplI30MIDICNChannelAddress_init_TestE10CreateTestEv
FNDA:1,_ZN7testing8internal15TestFactoryImplI41SerialMIDIParser_noteOnRunningStatus_TestE10CreateTestEv
FNDA:1,_ZN7testing8internal15TestFactoryImplI36DoublyLinkedList_deleteLastNode_TestE10CreateTestEv
FNDA:1,_ZN7testing8internal15TestFactoryImplI37Array_initializeAndRetrieveConst_TestE10CreateTestEv
FNDA:1,_ZN7testing8internal15TestFactoryImplI35SerialMIDIParser_programChange_TestE10CreateTestEv
FNDA:1,_ZN7testing8internal15TestFactoryImplI30USBMIDIParser_sysEx6Bytes_TestE10CreateTestEv
FNDA:1,_ZN7testing8internal15TestFactoryImplI38CCRotaryEncoder_turnFourHalfSteps_TestE10CreateTestEv
FNDA:1,_ZN7testing8internal15TestFactoryImplI50IncrementDecrementSelector_pressDecrementWrap_TestE10CreateTestEv
FNDA:1,_ZN7testing8internal15TestFactoryImplI38AnalogMultiplex_digitalReadEnable_TestE10CreateTestEv
FNDA:1,_ZN7testing8internal15TestFactoryImplI41BluetoothMIDIInterface_receiveSysEx2_TestE10CreateTestEv
FNDA:1,_ZN7testing8internal15TestFactoryImplI37SerialMIDIParser_channelPressure_TestE10CreateTestEv
FNDA:1,_ZN7testing8internal15TestFactoryImplI48USBMIDIParser_sysExEndsWithoutStarting1Byte_TestE10CreateTestEv
FNDA:1,_ZN7testing8internal15TestFactoryImplI34IncrementSelector_pressNoWrap_TestE10CreateTestEv
FNDA:1,_ZN7testing8internal15TestFactoryImplI51SerialMIDIParser_sysExEndsWithoutStarting1Byte_TestE10CreateTestEv
FNDA:1,_ZN7testing8internal15TestFactoryImplI30SerialMIDIParser_RealTime_TestE10CreateTestEv
FNDA:1,_ZN7testing8internal15TestFactoryImplI49USBMIDIParser_sysExEndsWithoutStarting3Bytes_TestE10CreateTestEv
FNDA:1,_ZN7testing8internal15TestFactoryImplI27MIDINote_NoteOnNoteOff_TestE10CreateTestEv
FNDA:1,_ZN7testing8internal15TestFactoryImplI45DoublyLinkedList_insertSortedGreaterThan_TestE10CreateTestEv
FNDA:1,_ZN7testing8internal15TestFactoryImplI24OutputBank_noTracks_TestE10CreateTestEv
FNDA:1,_ZN7testing8internal15TestFactoryImplI27USBMIDIParser_noteOnCN_TestE10CreateTestEv
FNDA:1,_ZN7testing8internal15TestFactoryImplI38AnalogMultiplex_analogReadEnable3_TestE10CreateTestEv
FNDA:1,_ZN7testing8internal15TestFactoryImplI30USBMIDIParser_sysEx7Bytes_TestE10CreateTestEv
FNDA:1,_ZN7testing8internal15TestFactoryImplI32Array_initializeAndRetrieve_TestE10CreateTestEv
FNDA:1,_ZN7testing8internal15TestFactoryImplI30uniquePtr_constructAssign_TestE10CreateTestEv
FNDA:1,_ZN7testing8internal15TestFactoryImplI28SerialMIDIParser_noteOn_TestE10CreateTestEv
FNDA:1,_ZN7testing8internal15TestFactoryImplI36DoublyLinkedList_const_iterator_TestE10CreateTestEv
FNDA:1,_ZN7testing8internal15TestFactoryImplI44MCUVUBankable_setValueBankChangeChannel_TestE10CreateTestEv
FNDA:1,_ZN7testing8internal15TestFactoryImplI32CCRotaryEncoder_turnOneStep_TestE10CreateTestEv
FNDA:0,_ZN7testing8internal15TestFactoryBaseD0Ev
FNDA:1,_ZN7testing8internal15TestFactoryImplI64CCRotaryEncoderBankable_turnOneStepChangeSettingTurnOneStep_TestE10CreateTestEv
FNDA:1,_ZN7testing8internal15TestFactoryImplI33MCUTimeDisplay_getTextOffset_TestE10CreateTestEv
FNDA:1,_ZNK7testing8internal12ConstCharPtrcvbEv
FNDA:1,_ZN7testing8internal15TestFactoryImplI29SerialMIDIParser_noteOff_TestE10CreateTestEv
FNDA:1,_ZN7testing8internal15TestFactoryImplI19Button_pressed_TestE10CreateTestEv
FNDA:1,_ZN7testing8internal15TestFactoryImplI16MCUVU_decay_TestE10CreateTestEv
FNDA:1,_ZN7testing8internal15TestFactoryImplI16Bank_select_TestE10CreateTestEv
FNDA:182,_ZN7testing8internal16SuiteApiResolverINS_4TestEE19GetSetUpCaseOrSuiteEv
FNDA:1,_ZN7testing8internal15TestFactoryImplI32MIDICNChannelAddress_equals_TestE10CreateTestEv
FNDA:1,_ZN7testing8internal15TestFactoryImplI24MCUVU_clearOverload_TestE10CreateTestEv
FNDA:1,_ZN7testing8internal15TestFactoryImplI64BluetoothMIDIInterface_receiveMultipleTwoByteChannelMessage_TestE10CreateTestEv
FNDA:1,_ZN7testing8internal15TestFactoryImplI39DoublyLinkedList_moveDownFirstNode_TestE10CreateTestEv
FNDA:1,_ZN7testing8internal15TestFactoryImplI29Bank_onBankSettingChange_TestE10CreateTestEv
FNDA:1,_ZN7testing8internal15TestFactoryImplI40DoublyLinkedList_moveDownSecondNode_TestE10CreateTestEv
FNDA:1,_ZN7testing8internal15TestFactoryImplI39NoteButtonLatching_pressAndRelease_TestE10CreateTestEv
FNDA:1,_ZN7testing8internal15TestFactoryImplI30MIDINoteLED_NoteOnNoteOff_TestE10CreateTestEv
FNDA:5,_ZNK7testing8internal11NativeArrayIhE5beginEv
FNDA:5,_ZN7testing8internal11NativeArrayIhE7InitRefEPKhm
FNDA:1,_ZN7testing8internal15TestFactoryImplI53CCButtonBankable_pressAndChangeSettingAndRelease_TestE10CreateTestEv
FNF:196
FNH:195
DA:442,182
DA:449,182
DA:460,182
DA:481,182
DA:482,182
DA:494,728
DA:496,728
DA:509,182
DA:511,182
DA:513,182
DA:515,182
DA:516,0
DA:519,182
DA:522,182
DA:524,182
DA:526,182
DA:528,182
DA:529,0
DA:532,182
DA:817,1
DA:818,1
DA:1088,5
DA:1089,5
DA:1090,5
DA:1102,5
DA:1103,5
DA:1104,0
DA:1105,5
DA:1109,5
DA:1110,27
DA:1132,5
DA:1133,5
DA:1134,5
DA:1135,5
DA:1136,5
LF:35
LH:32
end_of_record
TN:
SF:/home/pieter/GitHub/Control-Surface/build/googletest/googletest-src/googletest/include/gtest/internal/gtest-port.h
FN:980,_ZN7testing8internal8GTestLog9GetStreamEv
FN:1086,_ZN7testing8internal13ImplicitCast_IPKvEET_S4_
FN:1086,_ZN7testing8internal13ImplicitCast_ImEET_S2_
FN:1086,_ZN7testing8internal13ImplicitCast_IiEET_S2_
FN:1086,_ZN7testing8internal13ImplicitCast_IlEET_S2_
FN:1110,_ZN7testing8internal9DownCast_IPNS0_18ActionResultHolderIiEENS0_29UntypedActionResultHolderBaseEEET_PT0_
FN:1110,_ZN7testing8internal9DownCast_IPNS0_18ActionResultHolderIvEENS0_29UntypedActionResultHolderBaseEEET_PT0_
FN:1110,_ZN7testing8internal9DownCast_IPNS0_18ActionResultHolderIsEENS0_29UntypedActionResultHolderBaseEEET_PT0_
FN:1110,_ZN7testing8internal9DownCast_IPNS0_18ActionResultHolderI11MIDI_read_tEENS0_29UntypedActionResultHolderBaseEEET_PT0_
FN:1110,_ZN7testing8internal9DownCast_IPNS0_18ActionResultHolderIlEENS0_29UntypedActionResultHolderBaseEEET_PT0_
FN:1110,_ZN7testing8internal9DownCast_IPNS0_18ActionResultHolderImEENS0_29UntypedActionResultHolderBaseEEET_PT0_
FN:1110,_ZN7testing8internal9DownCast_IPNS0_18ActionResultHolderINSt7__cxx1112basic_stringIcSt11char_traitsIcESaIcEEEEENS0_29UntypedActionResultHolderBaseEEET_PT0_
FN:1135,_ZN7testing8internal27CheckedDowncastToActualTypeINS0_11ThreadLocalIPNS_8SequenceEE11ValueHolderENS0_26ThreadLocalValueHolderBaseEEEPT_PT0_
FN:1666,_ZN7testing8internal9MutexBase4LockEv
FN:1673,_ZN7testing8internal9MutexBase6UnlockEv
FN:1684,_ZNK7testing8internal9MutexBase10AssertHeldEv
FN:1742,_ZN7testing8internal14GTestMutexLockC2EPNS0_9MutexBaseE
FN:1745,_ZN7testing8internal14GTestMutexLockD2Ev
FN:1792,_ZNK7testing8internal11ThreadLocalIPNS_8SequenceEE7pointerEv
FN:1793,_ZNK7testing8internal11ThreadLocalIPNS_8SequenceEE3getEv
FN:1803,_ZN7testing8internal11ThreadLocalIPNS_8SequenceEE11ValueHolder7pointerEv
FN:1819,_ZNK7testing8internal11ThreadLocalIPNS_8SequenceEE16GetOrCreateValueEv
FNDA:0,_ZN7testing8internal9DownCast_IPNS0_18ActionResultHolderIsEENS0_29UntypedActionResultHolderBaseEEET_PT0_
FNDA:0,_ZN7testing8internal8GTestLog9GetStreamEv
FNDA:639,_ZNK7testing8internal11ThreadLocalIPNS_8SequenceEE3getEv
FNDA:10,_ZN7testing8internal13ImplicitCast_IlEET_S2_
FNDA:7092,_ZN7testing8internal9MutexBase6UnlockEv
FNDA:0,_ZN7testing8internal9DownCast_IPNS0_18ActionResultHolderI11MIDI_read_tEENS0_29UntypedActionResultHolderBaseEEET_PT0_
FNDA:10,_ZN7testing8internal9DownCast_IPNS0_18ActionResultHolderIlEENS0_29UntypedActionResultHolderBaseEEET_PT0_
FNDA:638,_ZN7testing8internal27CheckedDowncastToActualTypeINS0_11ThreadLocalIPNS_8SequenceEE11ValueHolderENS0_26ThreadLocalValueHolderBaseEEEPT_PT0_
FNDA:0,_ZN7testing8internal9DownCast_IPNS0_18ActionResultHolderINSt7__cxx1112basic_stringIcSt11char_traitsIcESaIcEEEEENS0_29UntypedActionResultHolderBaseEEET_PT0_
FNDA:6084,_ZN7testing8internal14GTestMutexLockC2EPNS0_9MutexBaseE
FNDA:0,_ZN7testing8internal9DownCast_IPNS0_18ActionResultHolderImEENS0_29UntypedActionResultHolderBaseEEET_PT0_
FNDA:0,_ZN7testing8internal13ImplicitCast_IPKvEET_S4_
FNDA:233,_ZN7testing8internal9DownCast_IPNS0_18ActionResultHolderIiEENS0_29UntypedActionResultHolderBaseEEET_PT0_
FNDA:639,_ZNK7testing8internal11ThreadLocalIPNS_8SequenceEE16GetOrCreateValueEv
FNDA:639,_ZN7testing8internal11ThreadLocalIPNS_8SequenceEE11ValueHolder7pointerEv
FNDA:639,_ZNK7testing8internal11ThreadLocalIPNS_8SequenceEE7pointerEv
FNDA:6084,_ZN7testing8internal14GTestMutexLockD2Ev
FNDA:282,_ZN7testing8internal9DownCast_IPNS0_18ActionResultHolderIvEENS0_29UntypedActionResultHolderBaseEEET_PT0_
FNDA:212,_ZN7testing8internal13ImplicitCast_IiEET_S2_
FNDA:147,_ZN7testing8internal13ImplicitCast_ImEET_S2_
FNDA:12783,_ZNK7testing8internal9MutexBase10AssertHeldEv
FNDA:7092,_ZN7testing8internal9MutexBase4LockEv
FNF:22
FNH:16
DA:980,0
DA:1086,369
DA:1110,719
DA:1124,719
DA:1126,719
DA:1135,638
DA:1137,638
DA:1143,638
DA:1666,7092
DA:1667,7092
DA:1668,7092
DA:1669,7092
DA:1670,7092
DA:1673,7092
DA:1678,7092
DA:1679,7092
DA:1680,7092
DA:1684,12783
DA:1685,12783
DA:1686,0
DA:1687,12783
DA:1742,6084
DA:1743,6084
DA:1745,6084
DA:1792,639
DA:1793,639
DA:1803,639
DA:1819,639
DA:1821,639
DA:1822,639
DA:1823,638
DA:1826,1
DA:1827,1
DA:1828,1
DA:1829,1
LF:35
LH:33
end_of_record
TN:
SF:/home/pieter/GitHub/Control-Surface/mock/MockMIDI_Interface.hpp
FN:8,_ZN11EmptyParser11getInstanceEv
FN:12,_ZNK11EmptyParser8getSysExEv
FN:23,_ZN18MockMIDI_InterfaceC2Ev
FN:24,_ZN18MockMIDI_Interface4readEv
FN:25,_ZN18MockMIDI_Interface14gmock_sendImplERKN7testing7MatcherIhEES4_S4_S4_S4_
FN:25,_ZN18MockMIDI_Interface8sendImplEhhhhh
FN:26,_ZN18MockMIDI_Interface8sendImplEhhhh
FN:27,_ZN18MockMIDI_Interface8sendImplEPKhmh
FNDA:0,_ZN18MockMIDI_Interface8sendImplEPKhmh
FNDA:0,_ZN18MockMIDI_Interface8sendImplEhhhh
FNDA:64,_ZN18MockMIDI_Interface14gmock_sendImplERKN7testing7MatcherIhEES4_S4_S4_S4_
FNDA:0,_ZNK11EmptyParser8getSysExEv
FNDA:23,_ZN18MockMIDI_InterfaceC2Ev
FNDA:66,_ZN18MockMIDI_Interface8sendImplEhhhhh
FNDA:0,_ZN18MockMIDI_Interface4readEv
FNDA:23,_ZN11EmptyParser11getInstanceEv
FNF:8
FNH:4
DA:8,23
DA:10,23
DA:12,0
DA:23,23
DA:24,0
DA:25,130
DA:26,0
DA:27,0
LF:8
LH:4
end_of_record
TN:
SF:/home/pieter/GitHub/Control-Surface/mock/MockSelectable.hpp
FN:14,_ZN14MockSelectableILh4EE12gmock_selectERKN7testing7MatcherIhEE
FN:14,_ZN14MockSelectableILh3EE6selectEh
FN:14,_ZN14MockSelectableILh4EE6selectEh
FN:14,_ZN14MockSelectableILh10EE12gmock_selectERKN7testing7MatcherIhEE
FN:14,_ZN14MockSelectableILh3EE12gmock_selectERKN7testing7MatcherIhEE
FN:14,_ZN14MockSelectableILh10EE6selectEh
FNDA:3,_ZN14MockSelectableILh10EE6selectEh
FNDA:2,_ZN14MockSelectableILh4EE12gmock_selectERKN7testing7MatcherIhEE
FNDA:2,_ZN14MockSelectableILh4EE6selectEh
FNDA:21,_ZN14MockSelectableILh3EE6selectEh
FNDA:3,_ZN14MockSelectableILh10EE12gmock_selectERKN7testing7MatcherIhEE
FNDA:21,_ZN14MockSelectableILh3EE12gmock_selectERKN7testing7MatcherIhEE
FNF:6
FNH:6
DA:14,52
LF:1
LH:1
end_of_record
TN:
SF:/home/pieter/GitHub/Control-Surface/src/Banks/Bank.hpp
FN:29,_ZN10OutputBankC2Ehh
FN:42,_ZN10OutputBank6selectEh
FN:47,_ZNK10OutputBank12getSelectionEv
FN:53,_ZNK10OutputBank16getTracksPerBankEv
FN:82,_ZN4BankILh2EEC2Ehh
FN:82,_ZN4BankILh10EEC2Ehh
FN:82,_ZN4BankILh3EEC2Ehh
FN:133,_ZN4BankILh2EE3addEP17BankableMIDIInputILh2EE
FN:133,_ZN4BankILh10EE3addEP17BankableMIDIInputILh10EE
FN:133,_ZN4BankILh3EE3addEP17BankableMIDIInputILh3EE
FN:138,_ZN4BankILh3EE6removeEP17BankableMIDIInputILh3EE
FN:138,_ZN4BankILh2EE6removeEP17BankableMIDIInputILh2EE
FN:138,_ZN4BankILh10EE6removeEP17BankableMIDIInputILh10EE
FN:143,_ZN4BankILh3EE6selectEh
FN:143,_ZN4BankILh10EE6selectEh
FN:143,_ZN4BankILh2EE6selectEh
FNDA:3,_ZN4BankILh2EE3addEP17BankableMIDIInputILh2EE
FNDA:26,_ZN10OutputBank6selectEh
FNDA:4,_ZN4BankILh10EEC2Ehh
FNDA:1,_ZN4BankILh3EEC2Ehh
FNDA:3,_ZN4BankILh10EE6removeEP17BankableMIDIInputILh10EE
FNDA:3,_ZN4BankILh10EE3addEP17BankableMIDIInputILh10EE
FNDA:48,_ZNK10OutputBank12getSelectionEv
FNDA:1,_ZN4BankILh3EE3addEP17BankableMIDIInputILh3EE
FNDA:8,_ZN4BankILh2EE6selectEh
FNDA:66,_ZNK10OutputBank16getTracksPerBankEv
FNDA:1,_ZN4BankILh3EE6removeEP17BankableMIDIInputILh3EE
FNDA:3,_ZN4BankILh2EEC2Ehh
FNDA:25,_ZN10OutputBankC2Ehh
FNDA:3,_ZN4BankILh2EE6removeEP17BankableMIDIInputILh2EE
FNDA:6,_ZN4BankILh10EE6selectEh
FNDA:2,_ZN4BankILh3EE6selectEh
FNF:16
FNH:16
DA:29,25
DA:30,25
DA:31,25
DA:32,1
DA:34,24
DA:42,26
DA:47,48
DA:53,66
DA:82,8
DA:84,8
DA:133,7
DA:134,7
DA:135,7
DA:138,7
DA:139,7
DA:140,7
DA:143,16
DA:144,16
DA:145,15
DA:146,30
DA:147,15
DA:148,15
LF:22
LH:22
end_of_record
TN:
SF:/home/pieter/GitHub/Control-Surface/src/Banks/BankConfig.hpp
FN:38,_ZN10BankConfigILh3EEC2ER4BankILh3EE8BankType
FN:38,_ZN10BankConfigILh2EEC2ER4BankILh2EE8BankType
FN:49,_ZN16OutputBankConfigC2ER10OutputBank8BankType
FNDA:1,_ZN10BankConfigILh3EEC2ER4BankILh3EE8BankType
FNDA:3,_ZN10BankConfigILh2EEC2ER4BankILh2EE8BankType
FNDA:13,_ZN16OutputBankConfigC2ER10OutputBank8BankType
FNF:3
FNH:3
DA:38,4
DA:39,4
DA:49,13
DA:50,13
LF:4
LH:4
end_of_record
TN:
SF:/home/pieter/GitHub/Control-Surface/src/Banks/BankableMIDIInput.hpp
FN:31,_ZN17BankableMIDIInputILh3EEC2ER4BankILh3EE8BankType
FN:31,_ZN17BankableMIDIInputILh10EEC2ER4BankILh10EE8BankType
FN:31,_ZN17BankableMIDIInputILh2EEC2ER4BankILh2EE8BankType
FN:43,_ZN17BankableMIDIInputILh2EEC2ERK10BankConfigILh2EE
FN:43,_ZN17BankableMIDIInputILh3EEC2ERK10BankConfigILh3EE
FN:50,_ZN17BankableMIDIInputILh10EED2Ev
FN:50,_ZN17BankableMIDIInputILh3EED2Ev
FN:50,_ZN17BankableMIDIInputILh10EED0Ev
FN:50,_ZN17BankableMIDIInputILh2EED2Ev
FN:50,_ZN17BankableMIDIInputILh3EED0Ev
FN:50,_ZN17BankableMIDIInputILh2EED0Ev
FN:57,_ZNK17BankableMIDIInputILh2EE12getSelectionEv
FN:57,_ZNK17BankableMIDIInputILh3EE12getSelectionEv
FN:69,_ZNK17BankableMIDIInputILh3EE8getIndexERK20MIDICNChannelAddressS3_
FN:69,_ZNK17BankableMIDIInputILh2EE8getIndexERK20MIDICNChannelAddressS3_
FN:110,_ZNK17BankableMIDIInputILh2EE13matchBankableEhh
FN:110,_ZNK17BankableMIDIInputILh3EE13matchBankableEhh
FN:160,_ZNK17BankableMIDIInputILh3EE13matchBankableERK20MIDICNChannelAddressS3_
FN:160,_ZNK17BankableMIDIInputILh2EE13matchBankableERK20MIDICNChannelAddressS3_
FN:240,_ZNK17BankableMIDIInputILh3EE19onBankSettingChangeEv
FN:240,_ZNK17BankableMIDIInputILh10EE19onBankSettingChangeEv
FN:240,_ZNK17BankableMIDIInputILh2EE19onBankSettingChangeEv
FNDA:5,_ZNK17BankableMIDIInputILh2EE8getIndexERK20MIDICNChannelAddressS3_
FNDA:0,_ZN17BankableMIDIInputILh3EED0Ev
FNDA:1,_ZN17BankableMIDIInputILh3EEC2ERK10BankConfigILh3EE
FNDA:0,_ZNK17BankableMIDIInputILh10EE19onBankSettingChangeEv
FNDA:2,_ZNK17BankableMIDIInputILh3EE13matchBankableERK20MIDICNChannelAddressS3_
FNDA:14,_ZNK17BankableMIDIInputILh2EE12getSelectionEv
FNDA:3,_ZNK17BankableMIDIInputILh3EE12getSelectionEv
FNDA:3,_ZN17BankableMIDIInputILh2EEC2ER4BankILh2EE8BankType
FNDA:0,_ZN17BankableMIDIInputILh2EED0Ev
FNDA:5,_ZNK17BankableMIDIInputILh2EE13matchBankableERK20MIDICNChannelAddressS3_
FNDA:6,_ZNK17BankableMIDIInputILh2EE19onBankSettingChangeEv
FNDA:5,_ZNK17BankableMIDIInputILh2EE13matchBankableEhh
FNDA:1,_ZN17BankableMIDIInputILh3EEC2ER4BankILh3EE8BankType
FNDA:3,_ZN17BankableMIDIInputILh10EED2Ev
FNDA:1,_ZN17BankableMIDIInputILh3EED2Ev
FNDA:2,_ZNK17BankableMIDIInputILh3EE13matchBankableEhh
FNDA:2,_ZNK17BankableMIDIInputILh3EE8getIndexERK20MIDICNChannelAddressS3_
FNDA:3,_ZN17BankableMIDIInputILh2EEC2ERK10BankConfigILh2EE
FNDA:0,_ZN17BankableMIDIInputILh10EED0Ev
FNDA:3,_ZN17BankableMIDIInputILh2EED2Ev
FNDA:3,_ZN17BankableMIDIInputILh10EEC2ER4BankILh10EE8BankType
FNDA:2,_ZNK17BankableMIDIInputILh3EE19onBankSettingChangeEv
FNF:22
FNH:18
DA:31,7
DA:32,7
DA:33,7
DA:43,4
DA:44,4
DA:50,7
DA:57,17
DA:69,7
DA:71,7
DA:72,5
DA:73,5
DA:74,5
DA:75,2
DA:76,2
DA:77,2
DA:78,2
DA:79,0
DA:80,0
DA:81,0
DA:82,0
DA:110,7
DA:111,7
DA:112,14
DA:113,14
DA:160,7
DA:162,7
DA:163,0
DA:164,7
DA:165,5
DA:166,10
DA:167,10
DA:168,10
DA:170,2
DA:171,4
DA:172,4
DA:173,2
DA:174,4
DA:176,0
DA:177,0
DA:178,0
DA:179,0
DA:180,0
DA:182,0
DA:240,8
LF:44
LH:33
end_of_record
TN:
SF:/home/pieter/GitHub/Control-Surface/src/Banks/BankableMIDIOutput.hpp
FN:35,_ZN18BankableMIDIOutputC2ERK10OutputBank8BankType
FN:46,_ZN18BankableMIDIOutputC2ERK16OutputBankConfig
FN:53,_ZNK18BankableMIDIOutput16getAddressOffsetEv
FN:67,_ZNK18BankableMIDIOutput17getRawBankSettingEv
FN:75,_ZNK18BankableMIDIOutput12getSelectionEv
FN:86,_ZN18BankableMIDIOutput4lockEv
FN:97,_ZN18BankableMIDIOutput6unlockEv
FNDA:13,_ZN18BankableMIDIOutputC2ERK10OutputBank8BankType
FNDA:13,_ZN18BankableMIDIOutputC2ERK16OutputBankConfig
FNDA:12,_ZN18BankableMIDIOutput4lockEv
FNDA:42,_ZNK18BankableMIDIOutput12getSelectionEv
FNDA:42,_ZNK18BankableMIDIOutput16getAddressOffsetEv
FNDA:12,_ZN18BankableMIDIOutput6unlockEv
FNDA:26,_ZNK18BankableMIDIOutput17getRawBankSettingEv
FNF:7
FNH:7
DA:35,13
DA:36,13
DA:46,13
DA:47,13
DA:53,42
DA:54,42
DA:55,42
DA:56,42
DA:57,0
DA:58,0
DA:59,0
DA:67,26
DA:75,42
DA:76,42
DA:86,12
DA:87,12
DA:88,12
DA:89,12
DA:97,12
LF:19
LH:16
end_of_record
TN:
SF:/home/pieter/GitHub/Control-Surface/src/Control_Surface/Control_Surface_Class.cpp
FN:13,_ZN16Control_Surface_11getInstanceEv
FN:18,_ZN16Control_Surface_5beginEv
FN:42,_ZN16Control_Surface_4loopEv
FN:52,_ZN16Control_Surface_4MIDIEv
FN:60,_ZN16Control_Surface_15updateMidiInputEv
FN:65,_ZN16Control_Surface_16onChannelMessageER14MIDI_Interface
FN:116,_ZN16Control_Surface_14onSysExMessageER14MIDI_Interface
FN:135,_ZN16Control_Surface_17onRealtimeMessageER14MIDI_Interfaceh
FN:145,_ZN16Control_Surface_12updateInputsEv
FN:151,_ZN16Control_Surface_14updateDisplaysEv
FNDA:0,_ZN16Control_Surface_14updateDisplaysEv
FNDA:0,_ZN16Control_Surface_14onSysExMessageER14MIDI_Interface
FNDA:0,_ZN16Control_Surface_12updateInputsEv
FNDA:0,_ZN16Control_Surface_5beginEv
FNDA:66,_ZN16Control_Surface_4MIDIEv
FNDA:0,_ZN16Control_Surface_17onRealtimeMessageER14MIDI_Interfaceh
FNDA:0,_ZN16Control_Surface_4loopEv
FNDA:1,_ZN16Control_Surface_11getInstanceEv
FNDA:0,_ZN16Control_Surface_16onChannelMessageER14MIDI_Interface
FNDA:0,_ZN16Control_Surface_15updateMidiInputEv
FNF:10
FNH:2
DA:13,1
DA:14,1
DA:15,1
DA:18,0
DA:26,0
DA:27,0
DA:28,0
DA:29,0
DA:30,0
DA:31,0
DA:32,0
DA:33,0
DA:34,0
DA:35,0
DA:36,0
DA:37,0
DA:38,0
DA:39,0
DA:40,0
DA:42,0
DA:43,0
DA:44,0
DA:45,0
DA:46,0
DA:47,0
DA:48,0
DA:49,0
DA:50,0
DA:52,66
DA:53,66
DA:54,66
DA:55,0
DA:57,66
DA:60,0
DA:61,0
DA:62,0
DA:63,0
DA:65,0
DA:66,0
DA:67,0
DA:81,0
DA:82,0
DA:84,0
DA:87,0
DA:88,0
DA:89,0
DA:90,0
DA:92,0
DA:95,0
DA:97,0
DA:100,0
DA:102,0
DA:106,0
DA:107,0
DA:111,0
DA:116,0
DA:118,0
DA:130,0
DA:131,0
DA:135,0
DA:139,0
DA:140,0
DA:145,0
DA:146,0
DA:147,0
DA:148,0
DA:149,0
DA:151,0
DA:152,0
DA:153,0
DA:154,0
DA:155,0
DA:156,0
DA:157,0
DA:158,0
DA:160,0
DA:161,0
DA:163,0
DA:164,0
DA:165,0
LF:80
LH:7
end_of_record
TN:
SF:/home/pieter/GitHub/Control-Surface/src/Control_Surface/Control_Surface_Class.hpp
FN:65,_ZN16Control_Surface_C2Ev
FNDA:1,_ZN16Control_Surface_C2Ev
FNF:1
FNH:1
DA:65,1
LF:1
LH:1
end_of_record
TN:
SF:/home/pieter/GitHub/Control-Surface/src/Def/Channel.hpp
FN:18,_ZN7ChannelC2Ea
FN:26,_ZNK7Channel6getRawEv
FN:44,_ZNK7ChanneleqERKS_
FN:54,_ZN7ChannelpLEa
FN:65,_ZNK7ChannelplEa
FN:77,_ZN7ChannelmIEa
FN:88,_ZNK7ChannelmiEa
FNDA:320,_ZNK7Channel6getRawEv
FNDA:11,_ZNK7ChanneleqERKS_
FNDA:1,_ZN7ChannelmIEa
FNDA:180,_ZN7ChannelC2Ea
FNDA:1,_ZNK7ChannelmiEa
FNDA:6,_ZNK7ChannelplEa
FNDA:6,_ZN7ChannelpLEa
FNF:7
FNH:7
DA:18,180
DA:19,180
DA:26,320
DA:44,11
DA:45,11
DA:54,6
DA:55,6
DA:56,6
DA:65,6
DA:66,6
DA:67,6
DA:68,6
DA:77,1
DA:78,1
DA:79,1
DA:88,1
DA:89,1
DA:90,1
DA:91,1
LF:19
LH:19
end_of_record
TN:
SF:/home/pieter/GitHub/Control-Surface/src/Def/MIDICNChannelAddress.cpp
FN:3,_ZN20MIDICNChannelAddresspLERK28RelativeMIDICNChannelAddress
FN:15,_ZN20MIDICNChannelAddressmIERK28RelativeMIDICNChannelAddress
FN:27,_ZNK20MIDICNChannelAddressplERK28RelativeMIDICNChannelAddress
FN:34,_ZNK20MIDICNChannelAddressmiERK28RelativeMIDICNChannelAddress
FN:41,_ZNK20MIDICNChannelAddresseqERKS_
FN:48,_ZNK20MIDICNChannelAddressneERKS_
FN:55,_ZN20MIDICNChannelAddress11matchSingleERKS_S1_
FN:60,_ZN20MIDICNChannelAddress19matchAddressInRangeERKS_S1_h
FNDA:13,_ZNK20MIDICNChannelAddressplERK28RelativeMIDICNChannelAddress
FNDA:67,_ZN20MIDICNChannelAddress19matchAddressInRangeERKS_S1_h
FNDA:16,_ZN20MIDICNChannelAddress11matchSingleERKS_S1_
FNDA:22,_ZNK20MIDICNChannelAddresseqERKS_
FNDA:9,_ZN20MIDICNChannelAddressmIERK28RelativeMIDICNChannelAddress
FNDA:8,_ZNK20MIDICNChannelAddressneERKS_
FNDA:9,_ZNK20MIDICNChannelAddressmiERK28RelativeMIDICNChannelAddress
FNDA:95,_ZN20MIDICNChannelAddresspLERK28RelativeMIDICNChannelAddress
FNF:8
FNH:8
DA:3,95
DA:5,95
DA:6,2
DA:8,93
DA:9,93
DA:10,93
DA:12,95
DA:15,9
DA:17,9
DA:18,0
DA:20,9
DA:21,9
DA:22,9
DA:24,9
DA:27,13
DA:29,13
DA:30,13
DA:31,13
DA:34,9
DA:36,9
DA:37,9
DA:38,9
DA:41,22
DA:42,21
DA:43,21
DA:44,62
DA:45,41
DA:48,8
DA:49,15
DA:50,7
DA:51,5
DA:52,11
DA:55,16
DA:57,16
DA:60,67
DA:63,67
DA:64,67
DA:65,134
DA:66,67
DA:67,67
DA:68,134
DA:69,67
DA:70,67
LF:43
LH:42
end_of_record
TN:
SF:/home/pieter/GitHub/Control-Surface/src/Def/MIDICNChannelAddress.hpp
FN:22,_ZN13MIDICNChannelC2E7Channeli
FN:26,_ZNK13MIDICNChannel10getChannelEv
FN:29,_ZNK13MIDICNChannel13getRawChannelEv
FN:32,_ZNK13MIDICNChannel14getCableNumberEv
FN:44,_ZN28RelativeMIDICNChannelAddressC2Ev
FN:45,_ZN28RelativeMIDICNChannelAddressC2Eiii
FN:49,_ZNK28RelativeMIDICNChannelAddress7isValidEv
FN:59,_ZN20MIDICNChannelAddressC2Ev
FN:66,_ZN20MIDICNChannelAddressC2Ei13MIDICNChannel
FN:73,_ZN20MIDICNChannelAddressC2Ei7Channeli
FN:88,_ZN20MIDICNChannelAddressC2ERK13MIDICNChannel
FN:106,_ZNK20MIDICNChannelAddress10getAddressEv
FN:109,_ZNK20MIDICNChannelAddress10getChannelEv
FN:112,_ZNK20MIDICNChannelAddress14getCableNumberEv
FN:115,_ZNK20MIDICNChannelAddress7isValidEv
FN:119,_ZNK20MIDICNChannelAddresscvbEv
FNDA:6,_ZNK13MIDICNChannel14getCableNumberEv
FNDA:66,_ZNK20MIDICNChannelAddresscvbEv
FNDA:1,_ZN28RelativeMIDICNChannelAddressC2Ev
FNDA:6,_ZNK13MIDICNChannel13getRawChannelEv
FNDA:2,_ZN13MIDICNChannelC2E7Channeli
FNDA:0,_ZN20MIDICNChannelAddressC2ERK13MIDICNChannel
FNDA:6,_ZN20MIDICNChannelAddressC2Ei13MIDICNChannel
FNDA:193,_ZNK20MIDICNChannelAddress7isValidEv
FNDA:0,_ZNK13MIDICNChannel10getChannelEv
FNDA:103,_ZNK28RelativeMIDICNChannelAddress7isValidEv
FNDA:86,_ZNK20MIDICNChannelAddress14getCableNumberEv
FNDA:3,_ZN20MIDICNChannelAddressC2Ev
FNDA:90,_ZNK20MIDICNChannelAddress10getChannelEv
FNDA:60,_ZN28RelativeMIDICNChannelAddressC2Eiii
FNDA:230,_ZNK20MIDICNChannelAddress10getAddressEv
FNDA:154,_ZN20MIDICNChannelAddressC2Ei7Channeli
FNF:16
FNH:14
DA:22,2
DA:23,2
DA:26,0
DA:29,6
DA:32,6
DA:44,1
DA:45,60
DA:47,180
DA:48,180
DA:49,103
DA:59,3
DA:60,3
DA:65,3
DA:66,6
DA:67,6
DA:69,6
DA:70,12
DA:71,12
DA:72,6
DA:73,154
DA:75,154
DA:77,154
DA:78,308
DA:79,154
DA:80,154
DA:88,0
DA:89,0
DA:106,230
DA:109,90
DA:112,86
DA:115,193
DA:119,66
LF:32
LH:29
end_of_record
TN:
SF:/home/pieter/GitHub/Control-Surface/src/Display/Bitmaps/XBitmaps.hpp
FN:10,_ZN7XBitmapC2EttPKh
FNDA:0,_ZN7XBitmapC2EttPKh
FNF:1
FNH:0
DA:10,0
DA:11,0
LF:2
LH:0
end_of_record
TN:
SF:/home/pieter/GitHub/Control-Surface/src/Display/DisplayElement.hpp
FN:34,_ZN14DisplayElement10getDisplayEv
FN:39,_ZN14DisplayElement6getAllEv
FNDA:0,_ZN14DisplayElement6getAllEv
FNDA:0,_ZN14DisplayElement10getDisplayEv
FNF:2
FNH:0
DA:34,0
DA:39,0
LF:2
LH:0
end_of_record
TN:
SF:/home/pieter/GitHub/Control-Surface/src/Display/DisplayInterface.cpp
FN:5,_ZN16DisplayInterface5beginEv
FN:11,_ZN16DisplayInterface8fillRectEsssst
FN:17,_ZN16DisplayInterface10drawCircleEssst
FN:40,_ZN16DisplayInterface10fillCircleEssst
FN:59,_ZN16DisplayInterface8beginAllEv
FNDA:0,_ZN16DisplayInterface8beginAllEv
FNDA:0,_ZN16DisplayInterface8fillRectEsssst
FNDA:0,_ZN16DisplayInterface10drawCircleEssst
FNDA:0,_ZN16DisplayInterface10fillCircleEssst
FNDA:0,_ZN16DisplayInterface5beginEv
FNF:5
FNH:0
DA:5,0
DA:6,0
DA:7,0
DA:8,0
DA:9,0
DA:11,0
DA:13,0
DA:14,0
DA:15,0
DA:17,0
DA:19,0
DA:20,0
DA:21,0
DA:23,0
DA:24,0
DA:25,0
DA:26,0
DA:27,0
DA:28,0
DA:29,0
DA:30,0
DA:31,0
DA:33,0
DA:34,0
DA:36,0
DA:38,0
DA:40,0
DA:42,0
DA:43,0
DA:44,0
DA:46,0
DA:47,0
DA:48,0
DA:49,0
DA:50,0
DA:52,0
DA:53,0
DA:55,0
DA:57,0
DA:59,0
DA:60,0
DA:61,0
DA:62,0
LF:43
LH:0
end_of_record
TN:
SF:/home/pieter/GitHub/Control-Surface/src/Display/DisplayInterface.hpp
FN:31,_ZN16DisplayInterface14drawBackgroundEv
FN:87,_ZN16DisplayInterface22clearAndDrawBackgroundEv
FNDA:0,_ZN16DisplayInterface14drawBackgroundEv
FNDA:0,_ZN16DisplayInterface22clearAndDrawBackgroundEv
FNF:2
FNH:0
DA:31,0
DA:87,0
DA:88,0
DA:89,0
DA:90,0
LF:5
LH:0
end_of_record
TN:
SF:/home/pieter/GitHub/Control-Surface/src/Hardware/Button.cpp
FN:5,_ZN6ButtonC2Et
FN:7,_ZN6Button5beginEv
FN:9,_ZN6Button6invertEv
FN:15,_ZN6Button8getStateEv
FN:33,_ZN6Button7getNameENS_5StateE
FN:43,_ZN6Button10stableTimeEv
FNDA:0,_ZN6Button7getNameENS_5StateE
FNDA:37,_ZN6Button5beginEv
FNDA:172,_ZN6Button8getStateEv
FNDA:0,_ZN6Button10stableTimeEv
FNDA:37,_ZN6ButtonC2Et
FNDA:0,_ZN6Button6invertEv
FNF:6
FNH:3
DA:5,37
DA:7,37
DA:9,0
DA:15,172
DA:18,172
DA:19,172
DA:20,172
DA:21,160
DA:22,160
DA:24,12
DA:26,172
DA:27,81
DA:28,81
DA:30,172
DA:33,0
DA:34,0
DA:35,0
DA:36,0
DA:37,0
DA:38,0
DA:39,0
DA:43,0
LF:22
LH:13
end_of_record
TN:
SF:/home/pieter/GitHub/Control-Surface/src/Hardware/ButtonMatrix.hpp
FN:38,_ZN12ButtonMatrixILh3ELh2EED0Ev
FN:38,_ZN12ButtonMatrixILh3ELh2EED2Ev
FNDA:0,_ZN12ButtonMatrixILh3ELh2EED0Ev
FNDA:2,_ZN12ButtonMatrixILh3ELh2EED2Ev
FNF:2
FNH:1
DA:38,2
LF:1
LH:1
end_of_record
TN:
SF:/home/pieter/GitHub/Control-Surface/src/Hardware/ButtonMatrix.ipp
FN:8,_ZN12ButtonMatrixILh3ELh2EEC2ERK5ArrayItLm3EERKS1_ItLm2EE
FN:15,_ZN12ButtonMatrixILh3ELh2EE7refreshEv
FN:39,_ZN12ButtonMatrixILh3ELh2EE5beginEv
FN:50,_ZN12ButtonMatrixILh3ELh2EE14positionToBitsEhh
FN:57,_ZN12ButtonMatrixILh3ELh2EE11bitsToIndexEh
FN:62,_ZN12ButtonMatrixILh3ELh2EE13bitsToBitmaskEh
FN:67,_ZN12ButtonMatrixILh3ELh2EE12getPrevStateEhh
FN:73,_ZN12ButtonMatrixILh3ELh2EE12setPrevStateEhhb
FNDA:2,_ZN12ButtonMatrixILh3ELh2EE5beginEv
FNDA:36,_ZN12ButtonMatrixILh3ELh2EE12getPrevStateEhh
FNDA:42,_ZN12ButtonMatrixILh3ELh2EE13bitsToBitmaskEh
FNDA:42,_ZN12ButtonMatrixILh3ELh2EE11bitsToIndexEh
FNDA:6,_ZN12ButtonMatrixILh3ELh2EE12setPrevStateEhhb
FNDA:42,_ZN12ButtonMatrixILh3ELh2EE14positionToBitsEhh
FNDA:2,_ZN12ButtonMatrixILh3ELh2EEC2ERK5ArrayItLm3EERKS1_ItLm2EE
FNDA:6,_ZN12ButtonMatrixILh3ELh2EE7refreshEv
FNF:8
FNH:8
DA:8,2
DA:10,2
DA:11,2
DA:12,2
DA:15,6
DA:16,6
DA:19,6
DA:20,0
DA:22,24
DA:23,18
DA:24,54
DA:25,36
DA:26,36
DA:29,6
DA:30,6
DA:31,6
DA:34,18
DA:39,2
DA:42,6
DA:43,4
DA:45,8
DA:46,6
DA:47,2
DA:50,42
DA:53,42
DA:57,42
DA:58,42
DA:62,42
DA:63,42
DA:67,36
DA:68,36
DA:69,36
DA:73,6
DA:75,6
DA:76,6
DA:77,3
DA:79,3
DA:80,6
LF:38
LH:37
end_of_record
TN:
SF:/home/pieter/GitHub/Control-Surface/src/Hardware/ExtendedInputOutput/AnalogMultiplex.hpp
FN:39,_ZN15AnalogMultiplexILh3EEC2EtRK5ArrayItLm3EEt
FN:39,_ZN15AnalogMultiplexILh4EEC2EtRK5ArrayItLm4EEt
FN:65,_ZN15AnalogMultiplexILh4EE12digitalWriteEth
FN:65,_ZN15AnalogMultiplexILh3EE12digitalWriteEth
FN:88,_ZN15AnalogMultiplexILh4EE11analogWriteEts
FN:88,_ZN15AnalogMultiplexILh3EE11analogWriteEts
FN:101,_ZN15AnalogMultiplexILh4EE6updateEv
FN:101,_ZN15AnalogMultiplexILh3EE6updateEv
FN:154,_ZN15AnalogMultiplexILh4EE7pinModeEth
FN:154,_ZN15AnalogMultiplexILh3EE7pinModeEth
FN:159,_ZN15AnalogMultiplexILh3EE11digitalReadEt
FN:159,_ZN15AnalogMultiplexILh4EE11digitalReadEt
FN:167,_ZN15AnalogMultiplexILh4EE10analogReadEt
FN:167,_ZN15AnalogMultiplexILh3EE10analogReadEt
FN:176,_ZN15AnalogMultiplexILh4EE5beginEv
FN:176,_ZN15AnalogMultiplexILh3EE5beginEv
FN:186,_ZN15AnalogMultiplexILh3EE13setMuxAddressEh
FN:186,_ZN15AnalogMultiplexILh4EE13setMuxAddressEh
FN:195,_ZN15AnalogMultiplexILh3EE14prepareReadingEh
FN:195,_ZN15AnalogMultiplexILh4EE14prepareReadingEh
FN:202,_ZN15AnalogMultiplexILh4EE12afterReadingEv
FN:202,_ZN15AnalogMultiplexILh3EE12afterReadingEv
FNDA:6,_ZN15AnalogMultiplexILh4EE14prepareReadingEh
FNDA:0,_ZN15AnalogMultiplexILh4EE6updateEv
FNDA:5,_ZN15AnalogMultiplexILh4EEC2EtRK5ArrayItLm4EEt
FNDA:3,_ZN15AnalogMultiplexILh3EE13setMuxAddressEh
FNDA:0,_ZN15AnalogMultiplexILh3EE7pinModeEth
FNDA:1,_ZN15AnalogMultiplexILh4EE7pinModeEth
FNDA:1,_ZN15AnalogMultiplexILh3EE5beginEv
FNDA:0,_ZN15AnalogMultiplexILh3EE12digitalWriteEth
FNDA:0,_ZN15AnalogMultiplexILh3EE6updateEv
FNDA:6,_ZN15AnalogMultiplexILh4EE13setMuxAddressEh
FNDA:3,_ZN15AnalogMultiplexILh3EE12afterReadingEv
FNDA:0,_ZN15AnalogMultiplexILh4EE11analogWriteEts
FNDA:5,_ZN15AnalogMultiplexILh4EE5beginEv
FNDA:3,_ZN15AnalogMultiplexILh3EE14prepareReadingEh
FNDA:0,_ZN15AnalogMultiplexILh3EE11digitalReadEt
FNDA:0,_ZN15AnalogMultiplexILh3EE11analogWriteEts
FNDA:4,_ZN15AnalogMultiplexILh4EE10analogReadEt
FNDA:2,_ZN15AnalogMultiplexILh4EE11digitalReadEt
FNDA:0,_ZN15AnalogMultiplexILh4EE12digitalWriteEth
FNDA:1,_ZN15AnalogMultiplexILh3EEC2EtRK5ArrayItLm3EEt
FNDA:6,_ZN15AnalogMultiplexILh4EE12afterReadingEv
FNDA:3,_ZN15AnalogMultiplexILh3EE10analogReadEt
FNF:22
FNH:14
DA:39,6
DA:41,6
DA:42,6
DA:65,0
DA:66,0
DA:88,0
DA:89,0
DA:101,0
DA:154,1
DA:155,1
DA:156,1
DA:159,2
DA:160,2
DA:161,2
DA:162,2
DA:163,2
DA:167,7
DA:168,7
DA:169,7
DA:170,7
DA:171,7
DA:172,7
DA:176,6
DA:177,29
DA:178,23
DA:179,6
DA:180,4
DA:181,4
DA:183,6
DA:186,9
DA:187,9
DA:188,42
DA:189,33
DA:190,33
DA:192,9
DA:195,9
DA:196,9
DA:197,9
DA:198,5
DA:199,9
DA:202,9
DA:203,9
DA:204,5
DA:205,9
LF:44
LH:39
end_of_record
TN:
SF:/home/pieter/GitHub/Control-Surface/src/Hardware/ExtendedInputOutput/ExtendedIOElement.cpp
FN:6,_ZN17ExtendedIOElementC2Et
FN:17,_ZN17ExtendedIOElementD2Ev
FN:17,_ZN17ExtendedIOElementD0Ev
FN:19,_ZN17ExtendedIOElement8beginAllEv
FN:24,_ZNK17ExtendedIOElement3pinEt
FN:39,_ZNK17ExtendedIOElementixEt
FN:41,_ZNK17ExtendedIOElement9getLengthEv
FN:43,_ZNK17ExtendedIOElement6getEndEv
FN:45,_ZNK17ExtendedIOElement8getStartEv
FN:47,_ZN17ExtendedIOElement6getAllEv
FNDA:14,_ZN17ExtendedIOElementD2Ev
FNDA:0,_ZN17ExtendedIOElementD0Ev
FNDA:20,_ZNK17ExtendedIOElement3pinEt
FNDA:18,_ZNK17ExtendedIOElement6getEndEv
FNDA:15,_ZN17ExtendedIOElementC2Et
FNDA:0,_ZNK17ExtendedIOElementixEt
FNDA:16,_ZN17ExtendedIOElement6getAllEv
FNDA:0,_ZNK17ExtendedIOElement9getLengthEv
FNDA:51,_ZNK17ExtendedIOElement8getStartEv
FNDA:6,_ZN17ExtendedIOElement8beginAllEv
FNF:10
FNH:7
DA:6,15
DA:7,16
DA:8,15
DA:9,1
DA:13,14
DA:14,14
DA:15,14
DA:17,14
DA:19,6
DA:20,12
DA:21,6
DA:22,6
DA:24,20
DA:25,20
DA:28,2
DA:36,18
DA:39,0
DA:41,0
DA:43,18
DA:45,51
DA:47,16
DA:48,16
LF:22
LH:20
end_of_record
TN:
SF:/home/pieter/GitHub/Control-Surface/src/Hardware/ExtendedInputOutput/ExtendedInputOutput.cpp
FN:9,_ZN5ExtIO7inRangeItEEbT_S1_S1_
FN:13,_ZN5ExtIO17getIOElementOfPinEt
FN:32,_ZN5ExtIO7pinModeEth
FN:41,_ZN5ExtIO7pinModeEih
FN:43,_ZN5ExtIO12digitalWriteEth
FN:52,_ZN5ExtIO12digitalWriteEih
FN:54,_ZN5ExtIO11digitalReadEt
FN:63,_ZN5ExtIO11digitalReadEi
FN:65,_ZN5ExtIO8shiftOutEtthh
FN:78,_ZN5ExtIO8shiftOutEiihh
FN:82,_ZN5ExtIO10analogReadEt
FN:91,_ZN5ExtIO10analogReadEi
FNDA:0,_ZN5ExtIO7pinModeEih
FNDA:0,_ZN5ExtIO8shiftOutEiihh
FNDA:57,_ZN5ExtIO12digitalWriteEth
FNDA:21,_ZN5ExtIO10analogReadEt
FNDA:18,_ZN5ExtIO7inRangeItEEbT_S1_S1_
FNDA:119,_ZN5ExtIO7pinModeEth
FNDA:0,_ZN5ExtIO12digitalWriteEih
FNDA:1,_ZN5ExtIO11digitalReadEi
FNDA:223,_ZN5ExtIO11digitalReadEt
FNDA:0,_ZN5ExtIO8shiftOutEtthh
FNDA:16,_ZN5ExtIO17getIOElementOfPinEt
FNDA:0,_ZN5ExtIO10analogReadEi
FNF:12
FNH:7
DA:9,18
DA:10,18
DA:13,16
DA:14,20
DA:15,19
DA:16,1
DA:17,18
DA:18,14
DA:20,2
DA:32,119
DA:34,119
DA:35,118
DA:37,1
DA:38,1
DA:40,119
DA:41,0
DA:43,57
DA:45,57
DA:46,57
DA:48,0
DA:49,0
DA:51,57
DA:52,0
DA:54,223
DA:55,223
DA:56,215
DA:58,8
DA:59,6
DA:63,1
DA:65,0
DA:68,0
DA:69,0
DA:70,0
DA:72,0
DA:74,0
DA:75,0
DA:77,0
DA:78,0
DA:79,0
DA:80,0
DA:82,21
DA:83,21
DA:84,14
DA:86,7
DA:87,7
DA:91,0
LF:46
LH:30
end_of_record
TN:
SF:/home/pieter/GitHub/Control-Surface/src/Hardware/ExtendedInputOutput/StaticSizeExtendedIOElement.hpp
FN:16,_ZN27StaticSizeExtendedIOElementILt16EEC2Ev
FN:16,_ZN27StaticSizeExtendedIOElementILt8EEC2Ev
FNDA:5,_ZN27StaticSizeExtendedIOElementILt16EEC2Ev
FNDA:1,_ZN27StaticSizeExtendedIOElementILt8EEC2Ev
FNF:2
FNH:2
DA:16,6
LF:1
LH:1
end_of_record
TN:
SF:/home/pieter/GitHub/Control-Surface/src/Hardware/IncrementButton.cpp
FN:3,_ZN15IncrementButton8getStateEv
FNDA:12,_ZN15IncrementButton8getStateEv
FNF:1
FNH:1
DA:3,12
DA:4,12
DA:6,12
DA:11,10
DA:12,4
DA:13,6
DA:14,6
DA:16,0
DA:18,0
DA:19,0
DA:20,0
DA:22,0
DA:24,0
DA:25,0
DA:26,0
DA:29,6
LF:16
LH:8
end_of_record
TN:
SF:/home/pieter/GitHub/Control-Surface/src/Hardware/IncrementButton.hpp
FN:24,_ZN15IncrementButtonC2ERK6Button
FN:27,_ZN15IncrementButton5beginEv
FNDA:2,_ZN15IncrementButtonC2ERK6Button
FNDA:2,_ZN15IncrementButton5beginEv
FNF:2
FNH:2
DA:24,2
DA:27,2
LF:2
LH:2
end_of_record
TN:
SF:/home/pieter/GitHub/Control-Surface/src/Hardware/IncrementDecrementButtons.cpp
FN:3,_ZN25IncrementDecrementButtons8getStateEv
FNDA:19,_ZN25IncrementDecrementButtons8getStateEv
FNF:1
FNH:1
DA:3,19
DA:4,19
DA:5,19
DA:7,19
DA:9,17
DA:10,3
DA:13,6
DA:14,11
DA:17,1
DA:18,1
DA:19,10
DA:20,5
DA:22,0
DA:23,0
DA:26,5
DA:28,5
DA:29,5
DA:31,0
DA:32,0
DA:35,5
DA:37,0
DA:39,0
DA:41,0
DA:42,0
DA:43,0
DA:44,0
DA:46,0
DA:47,0
DA:48,0
DA:49,0
DA:51,0
DA:53,0
DA:54,0
DA:55,0
DA:56,0
DA:58,0
DA:59,0
DA:60,0
DA:61,0
DA:64,8
LF:40
LH:17
end_of_record
TN:
SF:/home/pieter/GitHub/Control-Surface/src/Hardware/IncrementDecrementButtons.hpp
FN:30,_ZN25IncrementDecrementButtonsC2ERK6ButtonS2_
FN:35,_ZN25IncrementDecrementButtons5beginEv
FNDA:5,_ZN25IncrementDecrementButtonsC2ERK6ButtonS2_
FNDA:5,_ZN25IncrementDecrementButtons5beginEv
FNF:2
FNH:2
DA:30,5
DA:32,5
DA:35,5
DA:36,5
DA:37,5
DA:38,5
LF:6
LH:6
end_of_record
TN:
SF:/home/pieter/GitHub/Control-Surface/src/Hardware/LEDs/DotBarDisplayLEDs.hpp
FN:24,_ZN17DotBarDisplayLEDsILh2EEC2ERK5ArrayItLm2EE
FN:32,_ZNK17DotBarDisplayLEDsILh2EE7displayEh
FNDA:4,_ZNK17DotBarDisplayLEDsILh2EE7displayEh
FNDA:1,_ZN17DotBarDisplayLEDsILh2EEC2ERK5ArrayItLm2EE
FNF:2
FNH:2
DA:24,1
DA:32,4
DA:33,4
DA:34,0
DA:35,4
DA:36,4
DA:38,0
DA:39,4
LF:8
LH:6
end_of_record
TN:
SF:/home/pieter/GitHub/Control-Surface/src/Hardware/LEDs/LEDs.hpp
FN:23,_ZN4LEDsILh2EEC2ERK5ArrayItLm2EE
FN:28,_ZNK4LEDsILh2EE5beginEv
FN:42,_ZNK4LEDsILh2EE12displayRangeEhh
FN:57,_ZNK4LEDsILh2EE10displayDotEh
FN:62,_ZNK4LEDsILh2EE5clearEv
FNDA:1,_ZN4LEDsILh2EEC2ERK5ArrayItLm2EE
FNDA:4,_ZNK4LEDsILh2EE12displayRangeEhh
FNDA:0,_ZNK4LEDsILh2EE5clearEv
FNDA:0,_ZNK4LEDsILh2EE10displayDotEh
FNDA:1,_ZNK4LEDsILh2EE5beginEv
FNF:5
FNH:3
DA:23,1
DA:28,1
DA:29,3
DA:30,2
DA:31,1
DA:42,4
DA:43,4
DA:44,0
DA:45,11
DA:46,7
DA:47,5
DA:48,1
DA:49,4
DA:57,0
DA:62,0
DA:63,0
DA:64,0
DA:65,0
LF:18
LH:12
end_of_record
TN:
SF:/home/pieter/GitHub/Control-Surface/src/Helpers/Array.hpp
FN:28,_ZN5ArrayIhLm2EEixEm
FN:28,_ZN5ArrayIiLm6EEixEm
FN:28,_ZN5ArrayIS_IhLm2EELm3EEixEm
FN:28,_ZN5ArrayIS_IiLm2EELm3EEixEm
FN:28,_ZN5ArrayIiLm2EEixEm
FN:38,_ZNK5ArrayItLm3EEixEm
FN:38,_ZNK5ArrayIiLm5EEixEm
FN:38,_ZNK5ArrayIjLm4EEixEm
FN:38,_ZNK5ArrayItLm2EEixEm
FN:38,_ZNK5ArrayItLm4EEixEm
FN:38,_ZNK5ArrayIiLm6EEixEm
FN:43,_ZN5ArrayIiLm6EE5beginEv
FN:43,_ZN5ArrayIjLm4EE5beginEv
FN:43,_ZN5ArrayI6ButtonLm2EE5beginEv
FN:48,_ZNK5ArrayIaLm1EE5beginEv
FN:48,_ZNK5ArrayIiLm6EE5beginEv
FN:48,_ZNK5ArrayItLm4EE5beginEv
FN:48,_ZNK5ArrayItLm2EE5beginEv
FN:48,_ZNK5ArrayItLm3EE5beginEv
FN:48,_ZNK5ArrayIaLm3EE5beginEv
FN:48,_ZNK5ArrayIaLm2EE5beginEv
FN:53,_ZN5ArrayI6ButtonLm2EE3endEv
FN:53,_ZN5ArrayIiLm6EE3endEv
FN:53,_ZN5ArrayIjLm4EE3endEv
FN:58,_ZNK5ArrayIaLm3EE3endEv
FN:58,_ZNK5ArrayItLm3EE3endEv
FN:58,_ZNK5ArrayIaLm1EE3endEv
FN:58,_ZNK5ArrayItLm2EE3endEv
FN:58,_ZNK5ArrayIaLm2EE3endEv
FN:58,_ZNK5ArrayItLm4EE3endEv
FN:58,_ZNK5ArrayIiLm6EE3endEv
FN:66,_ZNK5ArrayIiLm5EEeqERKS0_
FN:66,_ZNK5ArrayIjLm4EEeqERKS0_
FN:81,_ZNK5ArrayIiLm5EEneERKS0_
FNDA:1,_ZNK5ArrayIiLm6EE5beginEv
FNDA:1,_ZN5ArrayIiLm6EE5beginEv
FNDA:6,_ZN5ArrayIS_IhLm2EELm3EEixEm
FNDA:13,_ZN5ArrayIiLm6EEixEm
FNDA:0,_ZNK5ArrayIaLm1EE5beginEv
FNDA:6,_ZN5ArrayIhLm2EEixEm
FNDA:3,_ZNK5ArrayItLm2EE5beginEv
FNDA:44,_ZNK5ArrayItLm2EEixEm
FNDA:16,_ZNK5ArrayIjLm4EEixEm
FNDA:12,_ZNK5ArrayItLm4EE5beginEv
FNDA:6,_ZNK5ArrayItLm3EE3endEv
FNDA:36,_ZNK5ArrayItLm3EEixEm
FNDA:26,_ZN5ArrayI6ButtonLm2EE3endEv
FNDA:0,_ZNK5ArrayIaLm3EE3endEv
FNDA:60,_ZNK5ArrayIiLm5EEixEm
FNDA:0,_ZNK5ArrayIaLm1EE3endEv
FNDA:6,_ZN5ArrayIiLm2EEixEm
FNDA:3,_ZNK5ArrayIiLm5EEneERKS0_
FNDA:6,_ZN5ArrayIS_IiLm2EELm3EEixEm
FNDA:6,_ZNK5ArrayIiLm5EEeqERKS0_
FNDA:26,_ZN5ArrayI6ButtonLm2EE5beginEv
FNDA:1,_ZN5ArrayIiLm6EE3endEv
FNDA:6,_ZNK5ArrayItLm3EE5beginEv
FNDA:2,_ZN5ArrayIjLm4EE5beginEv
FNDA:0,_ZNK5ArrayIaLm3EE5beginEv
FNDA:6,_ZNK5ArrayIiLm6EEixEm
FNDA:2,_ZN5ArrayIjLm4EE3endEv
FNDA:0,_ZNK5ArrayIaLm2EE3endEv
FNDA:0,_ZNK5ArrayIaLm2EE5beginEv
FNDA:3,_ZNK5ArrayItLm2EE3endEv
FNDA:4,_ZNK5ArrayItLm4EEixEm
FNDA:12,_ZNK5ArrayItLm4EE3endEv
FNDA:1,_ZNK5ArrayIiLm6EE3endEv
FNDA:2,_ZNK5ArrayIjLm4EEeqERKS0_
FNF:34
FNH:28
DA:28,37
DA:38,166
DA:43,29
DA:48,22
DA:53,29
DA:58,22
DA:66,8
DA:67,8
DA:68,0
DA:69,43
DA:70,38
DA:71,3
DA:72,5
DA:81,3
LF:14
LH:13
end_of_record
TN:
SF:/home/pieter/GitHub/Control-Surface/src/Helpers/ArrayHelpers.hpp
FN:15,_Z8generateIPj11IncrementorIiiEEvT_S3_T0_
FN:15,_Z8generateIPjZN25generateArray_simple_Test8TestBodyEvEUlvE_EvT_S3_T0_
FN:33,_ZN11IncrementorIiiEC1Eii
FN:35,_ZN11IncrementorIiiEclEv
FN:62,_Z13generateArrayIjLm4EZN25generateArray_simple_Test8TestBodyEvEUlvE_E5ArrayIT_XT0_EET1_
FN:62,_Z13generateArrayIjLm4E11IncrementorIiiEE5ArrayIT_XT0_EET1_
FN:102,_Z24generateIncrementalArrayIjLm4EiiE5ArrayIT_XT0_EET1_T2_
FNDA:1,_Z8generateIPjZN25generateArray_simple_Test8TestBodyEvEUlvE_EvT_S3_T0_
FNDA:1,_Z8generateIPj11IncrementorIiiEEvT_S3_T0_
FNDA:4,_ZN11IncrementorIiiEclEv
FNDA:1,_Z13generateArrayIjLm4E11IncrementorIiiEE5ArrayIT_XT0_EET1_
FNDA:1,_ZN11IncrementorIiiEC1Eii
FNDA:1,_Z24generateIncrementalArrayIjLm4EiiE5ArrayIT_XT0_EET1_T2_
FNDA:1,_Z13generateArrayIjLm4EZN25generateArray_simple_Test8TestBodyEvEUlvE_E5ArrayIT_XT0_EET1_
FNF:7
FNH:7
DA:15,10
DA:17,10
DA:18,8
DA:19,2
DA:33,1
DA:34,1
DA:35,4
DA:36,4
DA:37,4
DA:38,4
DA:62,2
DA:63,2
DA:64,2
DA:65,2
DA:102,1
DA:103,1
DA:104,2
LF:17
LH:17
end_of_record
TN:
SF:/home/pieter/GitHub/Control-Surface/src/Helpers/BitArray.hpp
FN:23,_ZN8BitArrayILh16EE3getEh
FN:33,_ZN8BitArrayILh16EE3setEh
FN:43,_ZN8BitArrayILh16EE5clearEh
FN:55,_ZN8BitArrayILh16EE3setEhb
FN:67,_ZNK8BitArrayILh16EE9safeIndexEh
FN:96,_ZNK8BitArrayILh16EE15getBufferLengthEv
FN:99,_ZNK8BitArrayILh16EE14getBufferIndexEh
FN:102,_ZNK8BitArrayILh16EE12getBufferBitEh
FN:103,_ZNK8BitArrayILh16EE13getBufferMaskEh
FNDA:64,_ZN8BitArrayILh16EE3getEh
FNDA:69,_ZNK8BitArrayILh16EE14getBufferIndexEh
FNDA:69,_ZNK8BitArrayILh16EE12getBufferBitEh
FNDA:3,_ZN8BitArrayILh16EE3setEh
FNDA:69,_ZNK8BitArrayILh16EE13getBufferMaskEh
FNDA:2,_ZN8BitArrayILh16EE5clearEh
FNDA:2,_ZN8BitArrayILh16EE3setEhb
FNDA:69,_ZNK8BitArrayILh16EE15getBufferLengthEv
FNDA:69,_ZNK8BitArrayILh16EE9safeIndexEh
FNF:9
FNH:9
DA:23,64
DA:24,64
DA:33,3
DA:34,3
DA:35,3
DA:43,2
DA:44,2
DA:45,2
DA:55,2
DA:56,2
DA:57,2
DA:67,69
DA:68,69
DA:69,0
DA:75,69
DA:96,69
DA:99,69
DA:100,69
DA:102,69
DA:103,69
DA:104,69
LF:21
LH:20
end_of_record
TN:
SF:/home/pieter/GitHub/Control-Surface/src/Helpers/Error.hpp
FN:44,_ZN14ErrorExceptionC2ENSt7__cxx1112basic_stringIcSt11char_traitsIcESaIcEEEi
FN:46,_ZNK14ErrorException4whatEv
FN:47,_ZNK14ErrorException12getErrorCodeEv
FNDA:8,_ZNK14ErrorException12getErrorCodeEv
FNDA:1,_ZNK14ErrorException4whatEv
FNDA:9,_ZN14ErrorExceptionC2ENSt7__cxx1112basic_stringIcSt11char_traitsIcESaIcEEEi
FNF:3
FNH:3
DA:44,9
DA:45,9
DA:46,1
DA:47,8
LF:4
LH:4
end_of_record
TN:
SF:/home/pieter/GitHub/Control-Surface/src/Helpers/LinkedList.hpp
FN:25,_ZN16DoublyLinkedListI8TestNodeE18node_iterator_baseIS0_EC2EPS0_
FN:25,_ZN16DoublyLinkedListI17BankableMIDIInputILh10EEE18node_iterator_baseIS1_EC2EPS1_
FN:25,_ZN16DoublyLinkedListI14DisplayElementE18node_iterator_baseIS0_EC2EPS0_
FN:25,_ZN16DoublyLinkedListI9UpdatableI10MotorFaderEE18node_iterator_baseIS2_EC2EPS2_
FN:25,_ZN16DoublyLinkedListI31MIDIInputElementChannelPressureE18node_iterator_baseIS0_EC2EPS0_
FN:25,_ZN16DoublyLinkedListI17ExtendedIOElementE18node_iterator_baseIS0_EC2EPS0_
FN:25,_ZN16DoublyLinkedListI17BankableMIDIInputILh3EEE18node_iterator_baseIS1_EC2EPS1_
FN:25,_ZN16DoublyLinkedListI8TestNodeE18node_iterator_baseIKS0_EC2EPS3_
FN:25,_ZN16DoublyLinkedListI9UpdatableI13PotentiometerEE18node_iterator_baseIS2_EC2EPS2_
FN:25,_ZN16DoublyLinkedListI17BankableMIDIInputILh2EEE18node_iterator_baseIS1_EC2EPS1_
FN:25,_ZN16DoublyLinkedListI9UpdatableI15NormalUpdatableEE18node_iterator_baseIS2_EC2EPS2_
FN:25,_ZN16DoublyLinkedListI20MIDIInputElementNoteE18node_iterator_baseIS0_EC2EPS0_
FN:25,_ZN16DoublyLinkedListI16DisplayInterfaceE18node_iterator_baseIS0_EC2EPS0_
FN:25,_ZN16DoublyLinkedListI18MIDIInputElementCCE18node_iterator_baseIS0_EC2EPS0_
FN:25,_ZN16DoublyLinkedListI18MIDIInputElementPCE18node_iterator_baseIS0_EC2EPS0_
FN:25,_ZN16DoublyLinkedListI9UpdatableI7DisplayEE18node_iterator_baseIS2_EC2EPS2_
FN:27,_ZNK16DoublyLinkedListI17ExtendedIOElementE18node_iterator_baseIS0_EneERKS3_
FN:27,_ZNK16DoublyLinkedListI14DisplayElementE18node_iterator_baseIS0_EneERKS3_
FN:27,_ZNK16DoublyLinkedListI9UpdatableI13PotentiometerEE18node_iterator_baseIS2_EneERKS5_
FN:27,_ZNK16DoublyLinkedListI18MIDIInputElementCCE18node_iterator_baseIS0_EneERKS3_
FN:27,_ZNK16DoublyLinkedListI31MIDIInputElementChannelPressureE18node_iterator_baseIS0_EneERKS3_
FN:27,_ZNK16DoublyLinkedListI9UpdatableI10MotorFaderEE18node_iterator_baseIS2_EneERKS5_
FN:27,_ZNK16DoublyLinkedListI9UpdatableI15NormalUpdatableEE18node_iterator_baseIS2_EneERKS5_
FN:27,_ZNK16DoublyLinkedListI17BankableMIDIInputILh2EEE18node_iterator_baseIS1_EneERKS4_
FN:27,_ZNK16DoublyLinkedListI20MIDIInputElementNoteE18node_iterator_baseIS0_EneERKS3_
FN:27,_ZNK16DoublyLinkedListI18MIDIInputElementPCE18node_iterator_baseIS0_EneERKS3_
FN:27,_ZNK16DoublyLinkedListI8TestNodeE18node_iterator_baseIS0_EneERKS3_
FN:27,_ZNK16DoublyLinkedListI16DisplayInterfaceE18node_iterator_baseIS0_EneERKS3_
FN:27,_ZNK16DoublyLinkedListI9UpdatableI7DisplayEE18node_iterator_baseIS2_EneERKS5_
FN:27,_ZNK16DoublyLinkedListI17BankableMIDIInputILh10EEE18node_iterator_baseIS1_EneERKS4_
FN:27,_ZNK16DoublyLinkedListI8TestNodeE18node_iterator_baseIKS0_EneERKS4_
FN:27,_ZNK16DoublyLinkedListI17BankableMIDIInputILh3EEE18node_iterator_baseIS1_EneERKS4_
FN:31,_ZNK16DoublyLinkedListI17ExtendedIOElementE18node_iterator_baseIS0_EdeEv
FN:31,_ZNK16DoublyLinkedListI20MIDIInputElementNoteE18node_iterator_baseIS0_EdeEv
FN:31,_ZNK16DoublyLinkedListI17BankableMIDIInputILh10EEE18node_iterator_baseIS1_EdeEv
FN:31,_ZNK16DoublyLinkedListI17BankableMIDIInputILh3EEE18node_iterator_baseIS1_EdeEv
FN:31,_ZNK16DoublyLinkedListI31MIDIInputElementChannelPressureE18node_iterator_baseIS0_EdeEv
FN:31,_ZNK16DoublyLinkedListI18MIDIInputElementCCE18node_iterator_baseIS0_EdeEv
FN:31,_ZNK16DoublyLinkedListI16DisplayInterfaceE18node_iterator_baseIS0_EdeEv
FN:31,_ZNK16DoublyLinkedListI14DisplayElementE18node_iterator_baseIS0_EdeEv
FN:31,_ZNK16DoublyLinkedListI8TestNodeE18node_iterator_baseIKS0_EdeEv
FN:31,_ZNK16DoublyLinkedListI9UpdatableI7DisplayEE18node_iterator_baseIS2_EdeEv
FN:31,_ZNK16DoublyLinkedListI9UpdatableI15NormalUpdatableEE18node_iterator_baseIS2_EdeEv
FN:31,_ZNK16DoublyLinkedListI9UpdatableI10MotorFaderEE18node_iterator_baseIS2_EdeEv
FN:31,_ZNK16DoublyLinkedListI9UpdatableI13PotentiometerEE18node_iterator_baseIS2_EdeEv
FN:31,_ZNK16DoublyLinkedListI17BankableMIDIInputILh2EEE18node_iterator_baseIS1_EdeEv
FN:31,_ZNK16DoublyLinkedListI8TestNodeE18node_iterator_baseIS0_EdeEv
FN:31,_ZNK16DoublyLinkedListI18MIDIInputElementPCE18node_iterator_baseIS0_EdeEv
FN:44,_ZN16DoublyLinkedListI9UpdatableI7DisplayEE13node_iteratorIS2_EC2EPS2_
FN:44,_ZN16DoublyLinkedListI8TestNodeE13node_iteratorIKS0_EC2EPS3_
FN:44,_ZN16DoublyLinkedListI18MIDIInputElementPCE13node_iteratorIS0_EC2EPS0_
FN:44,_ZN16DoublyLinkedListI9UpdatableI13PotentiometerEE13node_iteratorIS2_EC2EPS2_
FN:44,_ZN16DoublyLinkedListI16DisplayInterfaceE13node_iteratorIS0_EC2EPS0_
FN:44,_ZN16DoublyLinkedListI9UpdatableI10MotorFaderEE13node_iteratorIS2_EC2EPS2_
FN:44,_ZN16DoublyLinkedListI14DisplayElementE13node_iteratorIS0_EC2EPS0_
FN:44,_ZN16DoublyLinkedListI8TestNodeE13node_iteratorIS0_EC2EPS0_
FN:44,_ZN16DoublyLinkedListI31MIDIInputElementChannelPressureE13node_iteratorIS0_EC2EPS0_
FN:44,_ZN16DoublyLinkedListI18MIDIInputElementCCE13node_iteratorIS0_EC2EPS0_
FN:44,_ZN16DoublyLinkedListI20MIDIInputElementNoteE13node_iteratorIS0_EC2EPS0_
FN:44,_ZN16DoublyLinkedListI17BankableMIDIInputILh10EEE13node_iteratorIS1_EC2EPS1_
FN:44,_ZN16DoublyLinkedListI17ExtendedIOElementE13node_iteratorIS0_EC2EPS0_
FN:44,_ZN16DoublyLinkedListI17BankableMIDIInputILh3EEE13node_iteratorIS1_EC2EPS1_
FN:44,_ZN16DoublyLinkedListI17BankableMIDIInputILh2EEE13node_iteratorIS1_EC2EPS1_
FN:44,_ZN16DoublyLinkedListI9UpdatableI15NormalUpdatableEE13node_iteratorIS2_EC2EPS2_
FN:55,_ZN16DoublyLinkedListI9UpdatableI7DisplayEE13node_iteratorIS2_EppEv
FN:55,_ZN16DoublyLinkedListI14DisplayElementE13node_iteratorIS0_EppEv
FN:55,_ZN16DoublyLinkedListI9UpdatableI13PotentiometerEE13node_iteratorIS2_EppEv
FN:55,_ZN16DoublyLinkedListI17BankableMIDIInputILh10EEE13node_iteratorIS1_EppEv
FN:55,_ZN16DoublyLinkedListI9UpdatableI15NormalUpdatableEE13node_iteratorIS2_EppEv
FN:55,_ZN16DoublyLinkedListI9UpdatableI10MotorFaderEE13node_iteratorIS2_EppEv
FN:55,_ZN16DoublyLinkedListI17ExtendedIOElementE13node_iteratorIS0_EppEv
FN:55,_ZN16DoublyLinkedListI18MIDIInputElementPCE13node_iteratorIS0_EppEv
FN:55,_ZN16DoublyLinkedListI17BankableMIDIInputILh2EEE13node_iteratorIS1_EppEv
FN:55,_ZN16DoublyLinkedListI18MIDIInputElementCCE13node_iteratorIS0_EppEv
FN:55,_ZN16DoublyLinkedListI20MIDIInputElementNoteE13node_iteratorIS0_EppEv
FN:55,_ZN16DoublyLinkedListI8TestNodeE13node_iteratorIS0_EppEv
FN:55,_ZN16DoublyLinkedListI16DisplayInterfaceE13node_iteratorIS0_EppEv
FN:55,_ZN16DoublyLinkedListI8TestNodeE13node_iteratorIKS0_EppEv
FN:55,_ZN16DoublyLinkedListI17BankableMIDIInputILh3EEE13node_iteratorIS1_EppEv
FN:55,_ZN16DoublyLinkedListI31MIDIInputElementChannelPressureE13node_iteratorIS0_EppEv
FN:73,_ZN16DoublyLinkedListI8TestNodeE21reverse_node_iteratorIS0_EC2EPS0_
FN:73,_ZN16DoublyLinkedListI8TestNodeE21reverse_node_iteratorIKS0_EC2EPS3_
FN:84,_ZN16DoublyLinkedListI8TestNodeE21reverse_node_iteratorIKS0_EppEv
FN:84,_ZN16DoublyLinkedListI8TestNodeE21reverse_node_iteratorIS0_EppEv
FN:109,_ZN16DoublyLinkedListI9UpdatableI15NormalUpdatableEE6appendEPS2_
FN:109,_ZN16DoublyLinkedListI17BankableMIDIInputILh10EEE6appendEPS1_
FN:109,_ZN16DoublyLinkedListI17BankableMIDIInputILh2EEE6appendEPS1_
FN:109,_ZN16DoublyLinkedListI20MIDIInputElementNoteE6appendEPS0_
FN:109,_ZN16DoublyLinkedListI31MIDIInputElementChannelPressureE6appendEPS0_
FN:109,_ZN16DoublyLinkedListI8TestNodeE6appendEPS0_
FN:109,_ZN16DoublyLinkedListI18MIDIInputElementCCE6appendEPS0_
FN:109,_ZN16DoublyLinkedListI18MIDIInputElementPCE6appendEPS0_
FN:109,_ZN16DoublyLinkedListI17BankableMIDIInputILh3EEE6appendEPS1_
FN:109,_ZN16DoublyLinkedListI17ExtendedIOElementE6appendEPS0_
FN:125,_ZN16DoublyLinkedListI8TestNodeE6appendERS0_
FN:136,_ZN16DoublyLinkedListI8TestNodeE12insertBeforeEPS0_S2_
FN:147,_ZN16DoublyLinkedListI8TestNodeE12insertBeforeERS0_S2_
FN:162,_ZN16DoublyLinkedListI8TestNodeE12insertSortedIZN45DoublyLinkedList_insertSortedGreaterThan_Test8TestBodyEvEUlRS0_S4_E_EEvPS0_T_
FN:162,_ZN16DoublyLinkedListI8TestNodeE12insertSortedIZNS1_12insertSortedEPS0_EUlRS0_S4_E_EEvS3_T_
FN:182,_ZN16DoublyLinkedListI8TestNodeE12insertSortedEPS0_
FN:183,_ZZN16DoublyLinkedListI8TestNodeE12insertSortedEPS0_ENKUlRS0_S3_E_clES3_S3_
FN:192,_ZN16DoublyLinkedListI17BankableMIDIInputILh10EEE6removeEPS1_
FN:192,_ZN16DoublyLinkedListI17BankableMIDIInputILh2EEE6removeEPS1_
FN:192,_ZN16DoublyLinkedListI8TestNodeE6removeEPS0_
FN:192,_ZN16DoublyLinkedListI17ExtendedIOElementE6removeEPS0_
FN:192,_ZN16DoublyLinkedListI31MIDIInputElementChannelPressureE6removeEPS0_
FN:192,_ZN16DoublyLinkedListI18MIDIInputElementPCE6removeEPS0_
FN:192,_ZN16DoublyLinkedListI17BankableMIDIInputILh3EEE6removeEPS1_
FN:192,_ZN16DoublyLinkedListI18MIDIInputElementCCE6removeEPS0_
FN:192,_ZN16DoublyLinkedListI9UpdatableI15NormalUpdatableEE6removeEPS2_
FN:192,_ZN16DoublyLinkedListI20MIDIInputElementNoteE6removeEPS0_
FN:224,_ZN16DoublyLinkedListI18MIDIInputElementPCE8moveDownEPS0_
FN:224,_ZN16DoublyLinkedListI20MIDIInputElementNoteE8moveDownEPS0_
FN:224,_ZN16DoublyLinkedListI31MIDIInputElementChannelPressureE8moveDownEPS0_
FN:224,_ZN16DoublyLinkedListI8TestNodeE8moveDownEPS0_
FN:224,_ZN16DoublyLinkedListI18MIDIInputElementCCE8moveDownEPS0_
FN:260,_ZN16DoublyLinkedListI9UpdatableI15NormalUpdatableEE12couldContainEPS2_
FN:260,_ZN16DoublyLinkedListI8TestNodeE12couldContainEPS0_
FN:265,_ZN16DoublyLinkedListI18MIDIInputElementPCE5beginEv
FN:265,_ZN16DoublyLinkedListI14DisplayElementE5beginEv
FN:265,_ZN16DoublyLinkedListI31MIDIInputElementChannelPressureE5beginEv
FN:265,_ZN16DoublyLinkedListI8TestNodeE5beginEv
FN:265,_ZN16DoublyLinkedListI9UpdatableI10MotorFaderEE5beginEv
FN:265,_ZN16DoublyLinkedListI17BankableMIDIInputILh2EEE5beginEv
FN:265,_ZN16DoublyLinkedListI20MIDIInputElementNoteE5beginEv
FN:265,_ZN16DoublyLinkedListI18MIDIInputElementCCE5beginEv
FN:265,_ZN16DoublyLinkedListI17BankableMIDIInputILh3EEE5beginEv
FN:265,_ZN16DoublyLinkedListI16DisplayInterfaceE5beginEv
FN:265,_ZN16DoublyLinkedListI9UpdatableI15NormalUpdatableEE5beginEv
FN:265,_ZN16DoublyLinkedListI17ExtendedIOElementE5beginEv
FN:265,_ZN16DoublyLinkedListI9UpdatableI13PotentiometerEE5beginEv
FN:265,_ZN16DoublyLinkedListI17BankableMIDIInputILh10EEE5beginEv
FN:265,_ZN16DoublyLinkedListI9UpdatableI7DisplayEE5beginEv
FN:266,_ZN16DoublyLinkedListI17ExtendedIOElementE3endEv
FN:266,_ZN16DoublyLinkedListI18MIDIInputElementCCE3endEv
FN:266,_ZN16DoublyLinkedListI14DisplayElementE3endEv
FN:266,_ZN16DoublyLinkedListI17BankableMIDIInputILh3EEE3endEv
FN:266,_ZN16DoublyLinkedListI31MIDIInputElementChannelPressureE3endEv
FN:266,_ZN16DoublyLinkedListI9UpdatableI10MotorFaderEE3endEv
FN:266,_ZN16DoublyLinkedListI9UpdatableI15NormalUpdatableEE3endEv
FN:266,_ZN16DoublyLinkedListI18MIDIInputElementPCE3endEv
FN:266,_ZN16DoublyLinkedListI17BankableMIDIInputILh2EEE3endEv
FN:266,_ZN16DoublyLinkedListI9UpdatableI13PotentiometerEE3endEv
FN:266,_ZN16DoublyLinkedListI9UpdatableI7DisplayEE3endEv
FN:266,_ZN16DoublyLinkedListI16DisplayInterfaceE3endEv
FN:266,_ZN16DoublyLinkedListI17BankableMIDIInputILh10EEE3endEv
FN:266,_ZN16DoublyLinkedListI8TestNodeE3endEv
FN:266,_ZN16DoublyLinkedListI20MIDIInputElementNoteE3endEv
FN:268,_ZNK16DoublyLinkedListI8TestNodeE5beginEv
FN:269,_ZNK16DoublyLinkedListI8TestNodeE3endEv
FN:271,_ZN16DoublyLinkedListI8TestNodeE6rbeginEv
FN:272,_ZN16DoublyLinkedListI8TestNodeE4rendEv
FN:274,_ZNK16DoublyLinkedListI8TestNodeE6rbeginEv
FN:275,_ZNK16DoublyLinkedListI8TestNodeE4rendEv
FN:278,_ZNK16DoublyLinkedListI8TestNodeE8getFirstEv
FN:280,_ZNK16DoublyLinkedListI8TestNodeE7getLastEv
FN:299,_ZN14DoublyLinkableI18MIDIInputElementPCED0Ev
FN:299,_ZN14DoublyLinkableI8TestNodeED2Ev
FN:299,_ZN14DoublyLinkableI18MIDIInputElementCCED0Ev
FN:299,_ZN14DoublyLinkableI17ExtendedIOElementED2Ev
FN:299,_ZN14DoublyLinkableI31MIDIInputElementChannelPressureED0Ev
FN:299,_ZN14DoublyLinkableI17BankableMIDIInputILh10EEED0Ev
FN:299,_ZN14DoublyLinkableI17BankableMIDIInputILh3EEED0Ev
FN:299,_ZN14DoublyLinkableI17ExtendedIOElementED0Ev
FN:299,_ZN14DoublyLinkableI17BankableMIDIInputILh2EEED2Ev
FN:299,_ZN14DoublyLinkableI20MIDIInputElementNoteED0Ev
FN:299,_ZN14DoublyLinkableI17BankableMIDIInputILh2EEED0Ev
FN:299,_ZN14DoublyLinkableI8TestNodeED0Ev
FN:299,_ZN14DoublyLinkableI17BankableMIDIInputILh10EEED2Ev
FN:299,_ZN14DoublyLinkableI17BankableMIDIInputILh3EEED2Ev
FN:299,_ZN14DoublyLinkableI20MIDIInputElementNoteED2Ev
FN:299,_ZN14DoublyLinkableI9UpdatableI15NormalUpdatableEED0Ev
FN:299,_ZN14DoublyLinkableI31MIDIInputElementChannelPressureED2Ev
FN:299,_ZN14DoublyLinkableI18MIDIInputElementCCED2Ev
FN:299,_ZN14DoublyLinkableI9UpdatableI15NormalUpdatableEED2Ev
FN:299,_ZN14DoublyLinkableI18MIDIInputElementPCED2Ev
FNDA:2,_ZNK16DoublyLinkedListI17BankableMIDIInputILh3EEE18node_iterator_baseIS1_EdeEv
FNDA:0,_ZN16DoublyLinkedListI9UpdatableI13PotentiometerEE13node_iteratorIS2_EppEv
FNDA:0,_ZNK16DoublyLinkedListI9UpdatableI13PotentiometerEE18node_iterator_baseIS2_EneERKS5_
FNDA:0,_ZN16DoublyLinkedListI18MIDIInputElementCCE3endEv
FNDA:17,_ZN16DoublyLinkedListI31MIDIInputElementChannelPressureE5beginEv
FNDA:0,_ZNK16DoublyLinkedListI18MIDIInputElementCCE18node_iterator_baseIS0_EneERKS3_
FNDA:3,_ZN16DoublyLinkedListI17BankableMIDIInputILh2EEE6appendEPS1_
FNDA:3,_ZN16DoublyLinkedListI17BankableMIDIInputILh2EEE6removeEPS1_
FNDA:0,_ZN14DoublyLinkableI31MIDIInputElementChannelPressureED0Ev
FNDA:6,_ZN16DoublyLinkedListI8TestNodeE6removeEPS0_
FNDA:5,_ZN16DoublyLinkedListI17BankableMIDIInputILh10EEE13node_iteratorIS1_EppEv
FNDA:0,_ZN14DoublyLinkableI17BankableMIDIInputILh10EEED0Ev
FNDA:2,_ZN16DoublyLinkedListI17BankableMIDIInputILh3EEE3endEv
FNDA:39,_ZN16DoublyLinkedListI8TestNodeE5beginEv
FNDA:5,_ZN16DoublyLinkedListI20MIDIInputElementNoteE6appendEPS0_
FNDA:0,_ZN16DoublyLinkedListI14DisplayElementE18node_iterator_baseIS0_EC2EPS0_
FNDA:0,_ZN14DoublyLinkableI17BankableMIDIInputILh3EEED0Ev
FNDA:0,_ZN16DoublyLinkedListI14DisplayElementE3endEv
FNDA:88,_ZN16DoublyLinkedListI8TestNodeE6appendEPS0_
FNDA:19,_ZNK16DoublyLinkedListI31MIDIInputElementChannelPressureE18node_iterator_baseIS0_EneERKS3_
FNDA:9,_ZN16DoublyLinkedListI31MIDIInputElementChannelPressureE6appendEPS0_
FNDA:0,_ZN16DoublyLinkedListI9UpdatableI7DisplayEE13node_iteratorIS2_EC2EPS2_
FNDA:10,_ZNK16DoublyLinkedListI20MIDIInputElementNoteE18node_iterator_baseIS0_EdeEv
FNDA:80,_ZN16DoublyLinkedListI8TestNodeE18node_iterator_baseIS0_EC2EPS0_
FNDA:0,_ZN16DoublyLinkedListI9UpdatableI7DisplayEE13node_iteratorIS2_EppEv
FNDA:22,_ZN16DoublyLinkedListI17ExtendedIOElementE3endEv
FNDA:25,_ZNK16DoublyLinkedListI17ExtendedIOElementE18node_iterator_baseIS0_EdeEv
FNDA:32,_ZNK16DoublyLinkedListI17ExtendedIOElementE18node_iterator_baseIS0_EneERKS3_
FNDA:0,_ZN16DoublyLinkedListI14DisplayElementE13node_iteratorIS0_EppEv
FNDA:0,_ZN16DoublyLinkedListI18MIDIInputElementPCE5beginEv
FNDA:0,_ZN14DoublyLinkableI18MIDIInputElementPCED0Ev
FNDA:27,_ZN16DoublyLinkedListI8TestNodeE12insertBeforeERS0_S2_
FNDA:5,_ZNK16DoublyLinkedListI17BankableMIDIInputILh10EEE18node_iterator_baseIS1_EdeEv
FNDA:0,_ZN16DoublyLinkedListI14DisplayElementE5beginEv
FNDA:28,_ZN16DoublyLinkedListI8TestNodeE6appendERS0_
FNDA:15,_ZN14DoublyLinkableI17ExtendedIOElementED2Ev
FNDA:74,_ZZN16DoublyLinkedListI8TestNodeE12insertSortedEPS0_ENKUlRS0_S3_E_clES3_S3_
FNDA:112,_ZN14DoublyLinkableI8TestNodeED2Ev
FNDA:0,_ZN14DoublyLinkableI18MIDIInputElementCCED0Ev
FNDA:0,_ZN16DoublyLinkedListI18MIDIInputElementPCE8moveDownEPS0_
FNDA:10,_ZN16DoublyLinkedListI17BankableMIDIInputILh10EEE18node_iterator_baseIS1_EC2EPS1_
FNDA:31,_ZN16DoublyLinkedListI9UpdatableI15NormalUpdatableEE6appendEPS2_
FNDA:3,_ZN16DoublyLinkedListI17BankableMIDIInputILh10EEE6removeEPS1_
FNDA:0,_ZNK16DoublyLinkedListI14DisplayElementE18node_iterator_baseIS0_EneERKS3_
FNDA:3,_ZN16DoublyLinkedListI17BankableMIDIInputILh10EEE6appendEPS1_
FNDA:0,_ZNK16DoublyLinkedListI14DisplayElementE18node_iterator_baseIS0_EdeEv
FNDA:12,_ZNK16DoublyLinkedListI20MIDIInputElementNoteE18node_iterator_baseIS0_EneERKS3_
FNDA:16,_ZNK16DoublyLinkedListI17BankableMIDIInputILh2EEE18node_iterator_baseIS1_EneERKS4_
FNDA:0,_ZN16DoublyLinkedListI9UpdatableI10MotorFaderEE13node_iteratorIS2_EppEv
FNDA:0,_ZN14DoublyLinkableI20MIDIInputElementNoteED0Ev
FNDA:0,_ZN14DoublyLinkableI17BankableMIDIInputILh2EEED0Ev
FNDA:0,_ZN14DoublyLinkableI8TestNodeED0Ev
FNDA:10,_ZN16DoublyLinkedListI17ExtendedIOElementE13node_iteratorIS0_EppEv
FNDA:31,_ZN16DoublyLinkedListI9UpdatableI15NormalUpdatableEE12couldContainEPS2_
FNDA:0,_ZN16DoublyLinkedListI18MIDIInputElementPCE13node_iteratorIS0_EppEv
FNDA:4,_ZN16DoublyLinkedListI17BankableMIDIInputILh3EEE18node_iterator_baseIS1_EC2EPS1_
FNDA:44,_ZN16DoublyLinkedListI17ExtendedIOElementE18node_iterator_baseIS0_EC2EPS0_
FNDA:8,_ZN16DoublyLinkedListI17BankableMIDIInputILh2EEE13node_iteratorIS1_EppEv
FNDA:14,_ZN16DoublyLinkedListI17ExtendedIOElementE6removeEPS0_
FNDA:0,_ZN16DoublyLinkedListI18MIDIInputElementPCE13node_iteratorIS0_EC2EPS0_
FNDA:0,_ZNK16DoublyLinkedListI18MIDIInputElementPCE18node_iterator_baseIS0_EneERKS3_
FNDA:10,_ZNK16DoublyLinkedListI8TestNodeE18node_iterator_baseIKS0_EdeEv
FNDA:15,_ZN16DoublyLinkedListI31MIDIInputElementChannelPressureE8moveDownEPS0_
FNDA:189,_ZNK16DoublyLinkedListI8TestNodeE18node_iterator_baseIS0_EneERKS3_
FNDA:1,_ZN16DoublyLinkedListI8TestNodeE4rendEv
FNDA:3,_ZN14DoublyLinkableI17BankableMIDIInputILh10EEED2Ev
FNDA:0,_ZNK16DoublyLinkedListI9UpdatableI10MotorFaderEE18node_iterator_baseIS2_EneERKS5_
FNDA:0,_ZN14DoublyLinkableI17ExtendedIOElementED0Ev
FNDA:0,_ZN16DoublyLinkedListI9UpdatableI10MotorFaderEE18node_iterator_baseIS2_EC2EPS2_
FNDA:40,_ZN16DoublyLinkedListI9UpdatableI15NormalUpdatableEE13node_iteratorIS2_EppEv
FNDA:1,_ZNK16DoublyLinkedListI8TestNodeE5beginEv
FNDA:34,_ZN16DoublyLinkedListI31MIDIInputElementChannelPressureE18node_iterator_baseIS0_EC2EPS0_
FNDA:2,_ZN16DoublyLinkedListI8TestNodeE13node_iteratorIKS0_EC2EPS3_
FNDA:17,_ZNK16DoublyLinkedListI31MIDIInputElementChannelPressureE18node_iterator_baseIS0_EdeEv
FNDA:0,_ZNK16DoublyLinkedListI18MIDIInputElementCCE18node_iterator_baseIS0_EdeEv
FNDA:0,_ZNK16DoublyLinkedListI16DisplayInterfaceE18node_iterator_baseIS0_EdeEv
FNDA:3,_ZN14DoublyLinkableI17BankableMIDIInputILh2EEED2Ev
FNDA:80,_ZNK16DoublyLinkedListI9UpdatableI15NormalUpdatableEE18node_iterator_baseIS2_EneERKS5_
FNDA:8,_ZN16DoublyLinkedListI20MIDIInputElementNoteE8moveDownEPS0_
FNDA:40,_ZN16DoublyLinkedListI9UpdatableI15NormalUpdatableEE3endEv
FNDA:0,_ZN16DoublyLinkedListI18MIDIInputElementPCE6removeEPS0_
FNDA:1,_ZNK16DoublyLinkedListI8TestNodeE6rbeginEv
FNDA:10,_ZN16DoublyLinkedListI20MIDIInputElementNoteE5beginEv
FNDA:78,_ZN16DoublyLinkedListI8TestNodeE13node_iteratorIS0_EC2EPS0_
FNDA:0,_ZN16DoublyLinkedListI18MIDIInputElementPCE3endEv
FNDA:0,_ZNK16DoublyLinkedListI16DisplayInterfaceE18node_iterator_baseIS0_EneERKS3_
FNDA:13,_ZN16DoublyLinkedListI8TestNodeE12insertSortedIZN45DoublyLinkedList_insertSortedGreaterThan_Test8TestBodyEvEUlRS0_S4_E_EEvPS0_T_
FNDA:15,_ZN16DoublyLinkedListI8TestNodeE12couldContainEPS0_
FNDA:2,_ZN16DoublyLinkedListI20MIDIInputElementNoteE13node_iteratorIS0_EppEv
FNDA:34,_ZN16DoublyLinkedListI31MIDIInputElementChannelPressureE13node_iteratorIS0_EC2EPS0_
FNDA:4,_ZN16DoublyLinkedListI8TestNodeE18node_iterator_baseIKS0_EC2EPS3_
FNDA:2,_ZN16DoublyLinkedListI17BankableMIDIInputILh3EEE5beginEv
FNDA:13,_ZN16DoublyLinkedListI18MIDIInputElementCCE6removeEPS0_
FNDA:8,_ZN16DoublyLinkedListI17BankableMIDIInputILh2EEE3endEv
FNDA:0,_ZN16DoublyLinkedListI18MIDIInputElementCCE5beginEv
FNDA:1,_ZN16DoublyLinkedListI17BankableMIDIInputILh3EEE6removeEPS1_
FNDA:0,_ZN16DoublyLinkedListI9UpdatableI13PotentiometerEE18node_iterator_baseIS2_EC2EPS2_
FNDA:31,_ZN16DoublyLinkedListI9UpdatableI15NormalUpdatableEE6removeEPS2_
FNDA:13,_ZN14DoublyLinkableI18MIDIInputElementCCED2Ev
FNDA:0,_ZN16DoublyLinkedListI9UpdatableI13PotentiometerEE3endEv
FNDA:44,_ZN16DoublyLinkedListI17ExtendedIOElementE13node_iteratorIS0_EC2EPS0_
FNDA:0,_ZNK16DoublyLinkedListI9UpdatableI10MotorFaderEE18node_iterator_baseIS2_EdeEv
FNDA:0,_ZN16DoublyLinkedListI18MIDIInputElementCCE13node_iteratorIS0_EC2EPS0_
FNDA:20,_ZN16DoublyLinkedListI20MIDIInputElementNoteE13node_iteratorIS0_EC2EPS0_
FNDA:10,_ZN16DoublyLinkedListI17BankableMIDIInputILh10EEE13node_iteratorIS1_EC2EPS1_
FNDA:1,_ZN14DoublyLinkableI17BankableMIDIInputILh3EEED2Ev
FNDA:0,_ZN16DoublyLinkedListI9UpdatableI10MotorFaderEE5beginEv
FNDA:0,_ZN16DoublyLinkedListI18MIDIInputElementCCE13node_iteratorIS0_EppEv
FNDA:5,_ZN14DoublyLinkableI20MIDIInputElementNoteED2Ev
FNDA:0,_ZN14DoublyLinkableI9UpdatableI15NormalUpdatableEED0Ev
FNDA:9,_ZN14DoublyLinkableI31MIDIInputElementChannelPressureED2Ev
FNDA:1,_ZN16DoublyLinkedListI8TestNodeE6rbeginEv
FNDA:13,_ZN16DoublyLinkedListI18MIDIInputElementCCE6appendEPS0_
FNDA:0,_ZNK16DoublyLinkedListI9UpdatableI7DisplayEE18node_iterator_baseIS2_EdeEv
FNDA:5,_ZN16DoublyLinkedListI8TestNodeE21reverse_node_iteratorIKS0_EppEv
FNDA:0,_ZN16DoublyLinkedListI9UpdatableI10MotorFaderEE3endEv
FNDA:0,_ZN16DoublyLinkedListI9UpdatableI10MotorFaderEE13node_iteratorIS2_EC2EPS2_
FNDA:0,_ZN16DoublyLinkedListI18MIDIInputElementPCE6appendEPS0_
FNDA:0,_ZN16DoublyLinkedListI9UpdatableI13PotentiometerEE13node_iteratorIS2_EC2EPS2_
FNDA:0,_ZN16DoublyLinkedListI16DisplayInterfaceE13node_iteratorIS0_EC2EPS0_
FNDA:17,_ZN16DoublyLinkedListI31MIDIInputElementChannelPressureE3endEv
FNDA:40,_ZNK16DoublyLinkedListI9UpdatableI15NormalUpdatableEE18node_iterator_baseIS2_EdeEv
FNDA:9,_ZN16DoublyLinkedListI31MIDIInputElementChannelPressureE6removeEPS0_
FNDA:0,_ZN16DoublyLinkedListI14DisplayElementE13node_iteratorIS0_EC2EPS0_
FNDA:8,_ZN16DoublyLinkedListI17BankableMIDIInputILh2EEE5beginEv
FNDA:0,_ZN16DoublyLinkedListI16DisplayInterfaceE18node_iterator_baseIS0_EC2EPS0_
FNDA:20,_ZN16DoublyLinkedListI20MIDIInputElementNoteE18node_iterator_baseIS0_EC2EPS0_
FNDA:5,_ZN16DoublyLinkedListI17BankableMIDIInputILh10EEE3endEv
FNDA:80,_ZN16DoublyLinkedListI9UpdatableI15NormalUpdatableEE13node_iteratorIS2_EC2EPS2_
FNDA:2,_ZN16DoublyLinkedListI17BankableMIDIInputILh3EEE13node_iteratorIS1_EppEv
FNDA:67,_ZN16DoublyLinkedListI18MIDIInputElementCCE8moveDownEPS0_
FNDA:1,_ZNK16DoublyLinkedListI8TestNodeE3endEv
FNDA:0,_ZN16DoublyLinkedListI18MIDIInputElementPCE18node_iterator_baseIS0_EC2EPS0_
FNDA:0,_ZN16DoublyLinkedListI18MIDIInputElementCCE18node_iterator_baseIS0_EC2EPS0_
FNDA:16,_ZN16DoublyLinkedListI17BankableMIDIInputILh2EEE13node_iteratorIS1_EC2EPS1_
FNDA:0,_ZN16DoublyLinkedListI9UpdatableI7DisplayEE18node_iterator_baseIS2_EC2EPS2_
FNDA:8,_ZNK16DoublyLinkedListI17BankableMIDIInputILh2EEE18node_iterator_baseIS1_EdeEv
FNDA:14,_ZN16DoublyLinkedListI17ExtendedIOElementE6appendEPS0_
FNDA:2,_ZN16DoublyLinkedListI8TestNodeE21reverse_node_iteratorIKS0_EC2EPS3_
FNDA:2,_ZN16DoublyLinkedListI31MIDIInputElementChannelPressureE13node_iteratorIS0_EppEv
FNDA:27,_ZN16DoublyLinkedListI8TestNodeE12insertBeforeEPS0_S2_
FNDA:199,_ZNK16DoublyLinkedListI8TestNodeE18node_iterator_baseIS0_EdeEv
FNDA:39,_ZN16DoublyLinkedListI8TestNodeE3endEv
FNDA:12,_ZNK16DoublyLinkedListI8TestNodeE7getLastEv
FNDA:0,_ZN16DoublyLinkedListI9UpdatableI7DisplayEE5beginEv
FNDA:10,_ZN16DoublyLinkedListI20MIDIInputElementNoteE3endEv
FNDA:0,_ZNK16DoublyLinkedListI18MIDIInputElementPCE18node_iterator_baseIS0_EdeEv
FNDA:0,_ZN16DoublyLinkedListI9UpdatableI7DisplayEE3endEv
FNDA:1,_ZNK16DoublyLinkedListI8TestNodeE4rendEv
FNDA:144,_ZN16DoublyLinkedListI8TestNodeE13node_iteratorIS0_EppEv
FNDA:2,_ZN16DoublyLinkedListI8TestNodeE21reverse_node_iteratorIS0_EC2EPS0_
FNDA:16,_ZN16DoublyLinkedListI17BankableMIDIInputILh2EEE18node_iterator_baseIS1_EC2EPS1_
FNDA:0,_ZN16DoublyLinkedListI16DisplayInterfaceE5beginEv
FNDA:13,_ZNK16DoublyLinkedListI8TestNodeE8getFirstEv
FNDA:5,_ZN16DoublyLinkedListI8TestNodeE21reverse_node_iteratorIS0_EppEv
FNDA:0,_ZN16DoublyLinkedListI16DisplayInterfaceE3endEv
FNDA:31,_ZN14DoublyLinkableI9UpdatableI15NormalUpdatableEED2Ev
FNDA:22,_ZN16DoublyLinkedListI8TestNodeE12insertSortedEPS0_
FNDA:0,_ZNK16DoublyLinkedListI9UpdatableI7DisplayEE18node_iterator_baseIS2_EneERKS5_
FNDA:0,_ZNK16DoublyLinkedListI9UpdatableI13PotentiometerEE18node_iterator_baseIS2_EdeEv
FNDA:80,_ZN16DoublyLinkedListI9UpdatableI15NormalUpdatableEE18node_iterator_baseIS2_EC2EPS2_
FNDA:10,_ZNK16DoublyLinkedListI17BankableMIDIInputILh10EEE18node_iterator_baseIS1_EneERKS4_
FNDA:12,_ZNK16DoublyLinkedListI8TestNodeE18node_iterator_baseIKS0_EneERKS4_
FNDA:5,_ZN16DoublyLinkedListI8TestNodeE13node_iteratorIKS0_EppEv
FNDA:22,_ZN16DoublyLinkedListI8TestNodeE12insertSortedIZNS1_12insertSortedEPS0_EUlRS0_S4_E_EEvS3_T_
FNDA:1,_ZN16DoublyLinkedListI17BankableMIDIInputILh3EEE6appendEPS1_
FNDA:22,_ZN16DoublyLinkedListI17ExtendedIOElementE5beginEv
FNDA:0,_ZN16DoublyLinkedListI16DisplayInterfaceE13node_iteratorIS0_EppEv
FNDA:40,_ZN16DoublyLinkedListI9UpdatableI15NormalUpdatableEE5beginEv
FNDA:4,_ZN16DoublyLinkedListI17BankableMIDIInputILh3EEE13node_iteratorIS1_EC2EPS1_
FNDA:4,_ZNK16DoublyLinkedListI17BankableMIDIInputILh3EEE18node_iterator_baseIS1_EneERKS4_
FNDA:5,_ZN16DoublyLinkedListI20MIDIInputElementNoteE6removeEPS0_
FNDA:0,_ZN16DoublyLinkedListI9UpdatableI13PotentiometerEE5beginEv
FNDA:5,_ZN16DoublyLinkedListI17BankableMIDIInputILh10EEE5beginEv
FNDA:5,_ZN16DoublyLinkedListI8TestNodeE8moveDownEPS0_
FNDA:0,_ZN14DoublyLinkableI18MIDIInputElementPCED2Ev
FNF:176
FNH:113
DA:25,292
DA:27,374
DA:28,374
DA:31,316
DA:33,316
DA:44,288
DA:55,218
DA:57,218
DA:58,218
DA:73,4
DA:84,10
DA:86,10
DA:87,10
DA:109,167
DA:110,167
DA:111,96
DA:112,167
DA:113,167
DA:114,71
DA:115,167
DA:116,167
DA:117,167
DA:125,28
DA:136,27
DA:137,27
DA:138,7
DA:140,20
DA:141,27
DA:142,27
DA:143,27
DA:144,27
DA:147,27
DA:148,27
DA:149,27
DA:162,35
DA:163,35
DA:164,35
DA:165,139
DA:166,129
DA:167,25
DA:168,25
DA:170,104
DA:172,10
DA:182,22
DA:183,96
DA:184,22
DA:192,85
DA:193,85
DA:194,9
DA:195,85
DA:196,81
DA:197,85
DA:198,4
DA:199,85
DA:200,76
DA:201,85
DA:202,85
DA:203,85
DA:224,95
DA:225,95
DA:226,95
DA:227,92
DA:228,3
DA:229,3
DA:231,3
DA:232,2
DA:234,1
DA:235,3
DA:236,3
DA:237,3
DA:238,3
DA:239,3
DA:240,2
DA:242,1
DA:260,46
DA:261,57
DA:262,57
DA:265,143
DA:266,143
DA:268,1
DA:269,1
DA:271,1
DA:272,1
DA:274,1
DA:275,1
DA:278,13
DA:280,12
DA:299,192
LF:88
LH:88
end_of_record
TN:
SF:/home/pieter/GitHub/Control-Surface/src/Helpers/MillisTimer.hpp
FN:10,_ZN5TimerIXadL_Z6microsvEEEC2Em
FN:11,_ZN5TimerIXadL_Z6microsvEEE5beginEv
FN:12,_ZN5TimerIXadL_Z6microsvEEEcvbEv
FNDA:0,_ZN5TimerIXadL_Z6microsvEEE5beginEv
FNDA:0,_ZN5TimerIXadL_Z6microsvEEEcvbEv
FNDA:2,_ZN5TimerIXadL_Z6microsvEEEC2Em
FNF:3
FNH:1
DA:10,2
DA:11,0
DA:12,0
DA:13,0
DA:14,0
DA:15,0
DA:17,0
LF:7
LH:1
end_of_record
TN:
SF:/home/pieter/GitHub/Control-Surface/src/Helpers/Updatable.hpp
FN:21,_ZN9UpdatableI15NormalUpdatableEC2Ev
FN:25,_ZN9UpdatableI15NormalUpdatableED2Ev
FN:25,_ZN9UpdatableI15NormalUpdatableED0Ev
FN:62,_ZN9UpdatableI15NormalUpdatableE9isEnabledEv
FN:66,_ZN9UpdatableI10MotorFaderE8beginAllEv
FN:66,_ZN9UpdatableI15NormalUpdatableE8beginAllEv
FN:66,_ZN9UpdatableI7DisplayE8beginAllEv
FN:66,_ZN9UpdatableI13PotentiometerE8beginAllEv
FN:73,_ZN9UpdatableI15NormalUpdatableE9updateAllEv
FN:73,_ZN9UpdatableI13PotentiometerE9updateAllEv
FNDA:31,_ZN9UpdatableI15NormalUpdatableED2Ev
FNDA:8,_ZN9UpdatableI15NormalUpdatableE8beginAllEv
FNDA:0,_ZN9UpdatableI10MotorFaderE8beginAllEv
FNDA:31,_ZN9UpdatableI15NormalUpdatableEC2Ev
FNDA:32,_ZN9UpdatableI15NormalUpdatableE9updateAllEv
FNDA:31,_ZN9UpdatableI15NormalUpdatableE9isEnabledEv
FNDA:0,_ZN9UpdatableI13PotentiometerE9updateAllEv
FNDA:0,_ZN9UpdatableI7DisplayE8beginAllEv
FNDA:0,_ZN9UpdatableI13PotentiometerE8beginAllEv
FNDA:0,_ZN9UpdatableI15NormalUpdatableED0Ev
FNF:10
FNH:5
DA:21,31
DA:25,31
DA:26,31
DA:27,31
DA:28,62
DA:62,31
DA:66,8
DA:67,16
DA:68,8
DA:69,8
DA:73,32
DA:74,64
DA:75,32
DA:76,32
LF:14
LH:14
end_of_record
TN:
SF:/home/pieter/GitHub/Control-Surface/src/Helpers/unique_ptr.hpp
FN:12,_ZN10unique_ptrI9TestClassEC2EPS0_
FN:14,_ZN10unique_ptrI9TestClassED2Ev
FN:16,_ZN10unique_ptrI9TestClassEaSEOS1_
FN:21,_ZN10unique_ptrI9TestClassE5resetEPS0_
FN:27,_ZN10unique_ptrI9TestClassE7releaseEv
FN:38,_ZN10unique_ptrI9TestClassEptEv
FNDA:3,_ZN10unique_ptrI9TestClassE5resetEPS0_
FNDA:5,_ZN10unique_ptrI9TestClassEC2EPS0_
FNDA:1,_ZN10unique_ptrI9TestClassEptEv
FNDA:1,_ZN10unique_ptrI9TestClassEaSEOS1_
FNDA:5,_ZN10unique_ptrI9TestClassED2Ev
FNDA:2,_ZN10unique_ptrI9TestClassE7releaseEv
FNF:6
FNH:6
DA:12,5
DA:14,5
DA:16,1
DA:17,1
DA:18,1
DA:21,3
DA:22,3
DA:23,3
DA:24,3
DA:25,3
DA:27,2
DA:28,2
DA:29,2
DA:30,2
DA:38,1
LF:15
LH:15
end_of_record
TN:
SF:/home/pieter/GitHub/Control-Surface/src/MIDI_Constants/Chords/Chords.hpp
FN:8,_ZN6IChordD0Ev
FN:8,_ZN6IChordD2Ev
FN:16,_ZN5ChordILh1EEC2ERK5ArrayIaLm1EE
FN:16,_ZN5ChordILh2EEC2ERK5ArrayIaLm2EE
FN:16,_ZN5ChordILh3EEC2ERK5ArrayIaLm3EE
FN:17,_ZNK5ChordILh2EE5beginEv
FN:17,_ZNK5ChordILh3EE5beginEv
FN:17,_ZNK5ChordILh1EE5beginEv
FN:18,_ZNK5ChordILh1EE3endEv
FN:18,_ZNK5ChordILh3EE3endEv
FN:18,_ZNK5ChordILh2EE3endEv
FNDA:0,_ZN6IChordD2Ev
FNDA:0,_ZNK5ChordILh1EE5beginEv
FNDA:0,_ZNK5ChordILh3EE3endEv
FNDA:0,_ZNK5ChordILh2EE3endEv
FNDA:0,_ZN5ChordILh3EEC2ERK5ArrayIaLm3EE
FNDA:0,_ZNK5ChordILh2EE5beginEv
FNDA:0,_ZNK5ChordILh3EE5beginEv
FNDA:0,_ZNK5ChordILh1EE3endEv
FNDA:0,_ZN5ChordILh2EEC2ERK5ArrayIaLm2EE
FNDA:0,_ZN5ChordILh1EEC2ERK5ArrayIaLm1EE
FNDA:0,_ZN6IChordD0Ev
FNF:11
FNH:0
DA:8,0
DA:16,0
DA:17,0
DA:18,0
LF:4
LH:0
end_of_record
TN:
SF:/home/pieter/GitHub/Control-Surface/src/MIDI_Inputs/LEDs/MCU/VULEDs.hpp
FN:11,_ZN3MCU11VULEDs_BaseILh2EEC2ERK17DotBarDisplayLEDsILh2EE
FN:14,_ZN3MCU11VULEDs_BaseILh2EE5beginEv
FN:16,_ZNK3MCU11VULEDs_BaseILh2EE7displayEv
FN:57,_ZN3MCU8Bankable6VULEDsILh2ELh2EEC1ERK10BankConfigILh2EERK17DotBarDisplayLEDsILh2EERK20MIDICNChannelAddressj
FN:63,_ZNK3MCU8Bankable6VULEDsILh2ELh2EE19onBankSettingChangeEv
FNDA:1,_ZN3MCU11VULEDs_BaseILh2EEC2ERK17DotBarDisplayLEDsILh2EE
FNDA:1,_ZN3MCU8Bankable6VULEDsILh2ELh2EEC1ERK10BankConfigILh2EERK17DotBarDisplayLEDsILh2EERK20MIDICNChannelAddressj
FNDA:2,_ZNK3MCU8Bankable6VULEDsILh2ELh2EE19onBankSettingChangeEv
FNDA:1,_ZN3MCU11VULEDs_BaseILh2EE5beginEv
FNDA:4,_ZNK3MCU11VULEDs_BaseILh2EE7displayEv
FNF:5
FNH:5
DA:11,1
DA:14,1
DA:16,4
DA:17,4
DA:18,4
DA:19,4
DA:20,4
DA:57,1
DA:60,1
DA:63,2
LF:10
LH:10
end_of_record
TN:
SF:/home/pieter/GitHub/Control-Surface/src/MIDI_Inputs/LEDs/MIDINoteLED.hpp
FN:9,_ZN16MIDINoteLED_BaseC2Et
FN:12,_ZN16MIDINoteLED_Base5beginEv
FN:15,_ZNK16MIDINoteLED_Base7displayEv
FN:35,_ZN11MIDINoteLEDC1EtRK20MIDICNChannelAddress
FNDA:1,_ZN16MIDINoteLED_Base5beginEv
FNDA:1,_ZN11MIDINoteLEDC1EtRK20MIDICNChannelAddress
FNDA:1,_ZN16MIDINoteLED_BaseC2Et
FNDA:2,_ZNK16MIDINoteLED_Base7displayEv
FNF:4
FNH:4
DA:9,1
DA:12,1
DA:15,2
DA:35,1
DA:36,1
LF:5
LH:5
end_of_record
TN:
SF:/home/pieter/GitHub/Control-Surface/src/MIDI_Inputs/MCU/SevenSegmentDisplay.hpp
FN:16,_ZN3MCU19SevenSegmentDisplayILh10EEC2ERK20MIDICNChannelAddress
FN:21,_ZN3MCU19SevenSegmentDisplayILh10EE5resetEv
FN:30,_ZN3MCU19SevenSegmentDisplayILh10EE10updateImplERK20MIDI_message_matcherRK20MIDICNChannelAddress
FN:47,_ZNK3MCU19SevenSegmentDisplayILh10EE5matchERK20MIDICNChannelAddress
FN:61,_ZNK3MCU19SevenSegmentDisplayILh10EE7getTextEPchh
FN:76,_ZNK3MCU19SevenSegmentDisplayILh10EE14getCharacterAtEh
FN:96,_ZNK3MCU19SevenSegmentDisplayILh10EE17getDecimalPointAtEh
FN:103,_ZNK3MCU19SevenSegmentDisplayILh10EE7printToER5Print
FNDA:0,_ZNK3MCU19SevenSegmentDisplayILh10EE17getDecimalPointAtEh
FNDA:67,_ZN3MCU19SevenSegmentDisplayILh10EE10updateImplERK20MIDI_message_matcherRK20MIDICNChannelAddress
FNDA:176,_ZNK3MCU19SevenSegmentDisplayILh10EE14getCharacterAtEh
FNDA:30,_ZNK3MCU19SevenSegmentDisplayILh10EE7getTextEPchh
FNDA:67,_ZNK3MCU19SevenSegmentDisplayILh10EE5matchERK20MIDICNChannelAddress
FNDA:13,_ZN3MCU19SevenSegmentDisplayILh10EEC2ERK20MIDICNChannelAddress
FNDA:0,_ZNK3MCU19SevenSegmentDisplayILh10EE7printToER5Print
FNDA:13,_ZN3MCU19SevenSegmentDisplayILh10EE5resetEv
FNF:8
FNH:6
DA:16,13
DA:17,13
DA:18,13
DA:19,13
DA:21,13
DA:22,143
DA:23,130
DA:24,13
DA:30,67
DA:32,67
DA:33,67
DA:35,67
DA:36,67
DA:37,67
DA:38,67
DA:39,67
DA:40,67
DA:47,67
DA:48,67
DA:49,67
DA:61,30
DA:63,30
DA:64,1
DA:65,30
DA:66,4
DA:67,172
DA:68,142
DA:69,30
DA:70,30
DA:76,176
DA:77,176
DA:96,0
DA:97,0
DA:103,0
DA:104,0
DA:105,0
DA:106,0
DA:107,0
DA:108,0
DA:110,0
LF:40
LH:31
end_of_record
TN:
SF:/home/pieter/GitHub/Control-Surface/src/MIDI_Inputs/MCU/TimeDisplay.hpp
FN:12,_ZN3MCU11TimeDisplayC2E7Channel
FN:24,_ZNK3MCU11TimeDisplay7getBarsEPc
FN:33,_ZNK3MCU11TimeDisplay8getBeatsEPc
FN:42,_ZNK3MCU11TimeDisplay9getFramesEPc
FNDA:6,_ZNK3MCU11TimeDisplay9getFramesEPc
FNDA:13,_ZN3MCU11TimeDisplayC2E7Channel
FNDA:6,_ZNK3MCU11TimeDisplay8getBeatsEPc
FNDA:6,_ZNK3MCU11TimeDisplay7getBarsEPc
FNF:4
FNH:4
DA:12,13
DA:13,13
DA:14,13
DA:24,6
DA:25,6
DA:26,4
DA:27,2
DA:28,1
DA:30,1
DA:32,6
DA:33,6
DA:34,6
DA:35,4
DA:36,2
DA:37,1
DA:39,1
DA:41,6
DA:42,6
DA:43,6
DA:44,4
DA:45,2
DA:46,1
DA:48,1
DA:50,6
LF:24
LH:24
end_of_record
TN:
SF:/home/pieter/GitHub/Control-Surface/src/MIDI_Inputs/MCU/VU.hpp
FN:18,_ZN3IVUC2Eh
FN:40,_ZN3MCU7VU_BaseC2ERK20MIDICNChannelAddressj
FN:45,_ZNK3MCU7VU_Base8getValueEv
FN:47,_ZNK3MCU7VU_Base11getOverloadEv
FN:57,_ZN3MCU7VU_Base6updateEv
FN:66,_ZNK3MCU7VU_Base9getTargetERK20MIDI_message_matcher
FN:86,_ZN3MCU7VU_Base14setValueHelperEhh
FN:94,_ZN3MCU7VU_Base17setOverloadHelperEh
FN:100,_ZN3MCU7VU_Base19clearOverloadHelperEh
FN:104,_ZN3MCU7VU_Base14getValueHelperEh
FN:108,_ZN3MCU7VU_Base17getOverloadHelperEh
FN:138,_ZN3MCU2VUC1ERK20MIDICNChannelAddressj
FN:141,_ZN3MCU2VU10updateImplERK20MIDI_message_matcherRK20MIDICNChannelAddress
FN:153,_ZN3MCU2VU5resetEv
FN:156,_ZN3MCU2VU8decayAllEv
FN:161,_ZNK3MCU2VU11getRawValueEv
FN:163,_ZN3MCU2VU8setValueEh
FN:164,_ZN3MCU2VU11setOverloadEv
FN:165,_ZN3MCU2VU13clearOverloadEv
FN:203,_ZN3MCU8Bankable2VUILm2EEC2ERK10BankConfigILh2EERK20MIDICNChannelAddressj
FN:203,_ZN3MCU8Bankable2VUILm2EEC1ERK10BankConfigILh2EERK20MIDICNChannelAddressj
FN:203,_ZN3MCU8Bankable2VUILm3EEC1ERK10BankConfigILh3EERK20MIDICNChannelAddressj
FN:207,_ZN3MCU8Bankable2VUILm3EE10updateImplERK20MIDI_message_matcherRK20MIDICNChannelAddress
FN:207,_ZN3MCU8Bankable2VUILm2EE10updateImplERK20MIDI_message_matcherRK20MIDICNChannelAddress
FN:221,_ZNK3MCU8Bankable2VUILm3EE5matchERK20MIDICNChannelAddress
FN:221,_ZNK3MCU8Bankable2VUILm2EE5matchERK20MIDICNChannelAddress
FN:225,_ZN3MCU8Bankable2VUILm3EE5resetEv
FN:225,_ZN3MCU8Bankable2VUILm2EE5resetEv
FN:231,_ZN3MCU8Bankable2VUILm3EE8decayAllEv
FN:231,_ZN3MCU8Bankable2VUILm2EE8decayAllEv
FN:237,_ZNK3MCU8Bankable2VUILm3EE11getRawValueEv
FN:237,_ZNK3MCU8Bankable2VUILm2EE11getRawValueEv
FN:241,_ZN3MCU8Bankable2VUILm2EE8setValueEhh
FN:241,_ZN3MCU8Bankable2VUILm3EE8setValueEhh
FN:244,_ZN3MCU8Bankable2VUILm2EE11setOverloadEh
FN:244,_ZN3MCU8Bankable2VUILm3EE11setOverloadEh
FN:247,_ZN3MCU8Bankable2VUILm2EE13clearOverloadEh
FN:247,_ZN3MCU8Bankable2VUILm3EE13clearOverloadEh
FNDA:2,_ZN3MCU8Bankable2VUILm3EE8setValueEhh
FNDA:3,_ZN3MCU2VU8setValueEh
FNDA:8,_ZN3MCU7VU_Base14setValueHelperEhh
FNDA:0,_ZN3MCU8Bankable2VUILm3EE11setOverloadEh
FNDA:1,_ZN3MCU2VU8decayAllEv
FNDA:4,_ZN3MCU7VU_Base17setOverloadHelperEh
FNDA:20,_ZNK3MCU7VU_Base8getValueEv
FNDA:0,_ZN3MCU8Bankable2VUILm3EE13clearOverloadEh
FNDA:8,_ZN3MCU2VU10updateImplERK20MIDI_message_matcherRK20MIDICNChannelAddress
FNDA:14,_ZNK3MCU8Bankable2VUILm2EE11getRawValueEv
FNDA:2,_ZNK3MCU8Bankable2VUILm3EE5matchERK20MIDICNChannelAddress
FNDA:9,_ZNK3MCU7VU_Base11getOverloadEv
FNDA:0,_ZN3MCU2VU5resetEv
FNDA:1,_ZN3MCU8Bankable2VUILm2EE13clearOverloadEh
FNDA:15,_ZNK3MCU7VU_Base9getTargetERK20MIDI_message_matcher
FNDA:5,_ZNK3MCU8Bankable2VUILm2EE5matchERK20MIDICNChannelAddress
FNDA:1,_ZN3MCU8Bankable2VUILm3EEC1ERK10BankConfigILh3EERK20MIDICNChannelAddressj
FNDA:9,_ZN3IVUC2Eh
FNDA:0,_ZN3MCU8Bankable2VUILm2EE8decayAllEv
FNDA:3,_ZNK3MCU8Bankable2VUILm3EE11getRawValueEv
FNDA:0,_ZN3MCU8Bankable2VUILm2EE5resetEv
FNDA:5,_ZN3MCU8Bankable2VUILm2EE10updateImplERK20MIDI_message_matcherRK20MIDICNChannelAddress
FNDA:1,_ZN3MCU8Bankable2VUILm2EEC2ERK10BankConfigILh2EERK20MIDICNChannelAddressj
FNDA:20,_ZN3MCU7VU_Base14getValueHelperEh
FNDA:3,_ZN3MCU8Bankable2VUILm2EE8setValueEhh
FNDA:3,_ZN3MCU2VU11setOverloadEv
FNDA:2,_ZN3MCU8Bankable2VUILm3EE10updateImplERK20MIDI_message_matcherRK20MIDICNChannelAddress
FNDA:2,_ZN3MCU8Bankable2VUILm2EEC1ERK10BankConfigILh2EERK20MIDICNChannelAddressj
FNDA:2,_ZN3MCU2VU13clearOverloadEv
FNDA:9,_ZN3MCU7VU_Base17getOverloadHelperEh
FNDA:0,_ZN3MCU8Bankable2VUILm3EE5resetEv
FNDA:9,_ZN3MCU7VU_BaseC2ERK20MIDICNChannelAddressj
FNDA:1,_ZN3MCU7VU_Base6updateEv
FNDA:0,_ZN3MCU8Bankable2VUILm3EE8decayAllEv
FNDA:1,_ZN3MCU8Bankable2VUILm2EE11setOverloadEh
FNDA:12,_ZNK3MCU2VU11getRawValueEv
FNDA:3,_ZN3MCU7VU_Base19clearOverloadHelperEh
FNDA:5,_ZN3MCU2VUC1ERK20MIDICNChannelAddressj
FNF:38
FNH:31
DA:18,9
DA:40,9
DA:41,9
DA:42,18
DA:45,20
DA:47,9
DA:48,9
DA:57,1
DA:58,1
DA:59,1
DA:60,1
DA:61,1
DA:63,1
DA:66,15
DA:68,15
DA:69,15
DA:70,15
DA:71,15
DA:86,8
DA:87,8
DA:88,8
DA:89,8
DA:94,4
DA:95,4
DA:100,3
DA:101,3
DA:104,20
DA:105,20
DA:108,9
DA:109,9
DA:138,5
DA:139,5
DA:141,8
DA:143,8
DA:144,8
DA:145,2
DA:146,3
DA:147,0
DA:148,3
DA:150,8
DA:153,0
DA:156,1
DA:157,1
DA:158,1
DA:159,1
DA:161,12
DA:163,3
DA:164,3
DA:165,2
DA:203,4
DA:205,4
DA:207,7
DA:209,7
DA:210,7
DA:211,7
DA:212,7
DA:213,1
DA:214,1
DA:215,0
DA:216,5
DA:218,7
DA:221,7
DA:222,7
DA:225,0
DA:226,0
DA:227,0
DA:228,0
DA:231,0
DA:232,0
DA:233,0
DA:234,0
DA:235,0
DA:237,17
DA:238,17
DA:241,5
DA:242,5
DA:243,5
DA:244,1
DA:245,1
DA:246,1
DA:247,1
DA:248,1
DA:249,1
LF:83
LH:71
end_of_record
TN:
SF:/home/pieter/GitHub/Control-Surface/src/MIDI_Inputs/MIDIInputElement.hpp
FN:22,_ZN16MIDIInputElementC2ERK20MIDICNChannelAddress
FN:25,_ZN16MIDIInputElementD2Ev
FN:25,_ZN16MIDIInputElementD0Ev
FN:28,_ZN16MIDIInputElement5beginEv
FN:31,_ZNK16MIDIInputElement7displayEv
FN:37,_ZN16MIDIInputElement6updateEv
FN:40,_ZN16MIDIInputElement10updateWithERK20MIDI_message_matcher
FN:66,_ZNK16MIDIInputElement9getTargetERK20MIDI_message_matcher
FN:76,_ZNK16MIDIInputElement5matchERK20MIDICNChannelAddress
FNDA:75,_ZNK16MIDIInputElement9getTargetERK20MIDI_message_matcher
FNDA:0,_ZN16MIDIInputElement5beginEv
FNDA:0,_ZN16MIDIInputElement6updateEv
FNDA:27,_ZN16MIDIInputElementC2ERK20MIDICNChannelAddress
FNDA:27,_ZN16MIDIInputElementD2Ev
FNDA:16,_ZNK16MIDIInputElement5matchERK20MIDICNChannelAddress
FNDA:87,_ZNK16MIDIInputElement7displayEv
FNDA:90,_ZN16MIDIInputElement10updateWithERK20MIDI_message_matcher
FNDA:0,_ZN16MIDIInputElementD0Ev
FNF:9
FNH:6
DA:22,27
DA:25,27
DA:28,0
DA:31,87
DA:37,0
DA:40,90
DA:42,90
DA:43,90
DA:44,0
DA:46,90
DA:47,0
DA:49,90
DA:50,90
DA:51,90
DA:66,75
DA:67,75
DA:76,16
DA:77,16
LF:18
LH:14
end_of_record
TN:
SF:/home/pieter/GitHub/Control-Surface/src/MIDI_Inputs/MIDIInputElementCC.hpp
FN:33,_ZN18MIDIInputElementCCC2ERK20MIDICNChannelAddress
FN:40,_ZN18MIDIInputElementCCD0Ev
FN:40,_ZN18MIDIInputElementCCD2Ev
FN:47,_ZN18MIDIInputElementCC8beginAllEv
FN:55,_ZN18MIDIInputElementCC9updateAllEv
FN:63,_ZN18MIDIInputElementCC8resetAllEv
FN:71,_ZN18MIDIInputElementCC13updateAllWithERK20MIDI_message_matcher
FN:81,_ZN18MIDIInputElementCC8moveDownEv
FNDA:67,_ZN18MIDIInputElementCC8moveDownEv
FNDA:0,_ZN18MIDIInputElementCC8resetAllEv
FNDA:0,_ZN18MIDIInputElementCC8beginAllEv
FNDA:13,_ZN18MIDIInputElementCCC2ERK20MIDICNChannelAddress
FNDA:13,_ZN18MIDIInputElementCCD2Ev
FNDA:0,_ZN18MIDIInputElementCC9updateAllEv
FNDA:0,_ZN18MIDIInputElementCC13updateAllWithERK20MIDI_message_matcher
FNDA:0,_ZN18MIDIInputElementCCD0Ev
FNF:8
FNH:3
DA:33,13
DA:34,13
DA:36,13
DA:37,13
DA:40,13
DA:42,13
DA:43,13
DA:47,0
DA:49,0
DA:50,0
DA:51,0
DA:55,0
DA:57,0
DA:58,0
DA:59,0
DA:63,0
DA:65,0
DA:66,0
DA:67,0
DA:71,0
DA:72,0
DA:73,0
DA:74,0
DA:81,67
DA:83,67
DA:84,67
LF:26
LH:10
end_of_record
TN:
SF:/home/pieter/GitHub/Control-Surface/src/MIDI_Inputs/MIDIInputElementChannelPressure.hpp
FN:21,_ZN31MIDIInputElementChannelPressureC2ERK20MIDICNChannelAddress
FN:31,_ZN31MIDIInputElementChannelPressureD0Ev
FN:31,_ZN31MIDIInputElementChannelPressureD2Ev
FN:36,_ZN31MIDIInputElementChannelPressure8beginAllEv
FN:48,_ZN31MIDIInputElementChannelPressure8resetAllEv
FN:57,_ZN31MIDIInputElementChannelPressure9updateAllEv
FN:69,_ZN31MIDIInputElementChannelPressure13updateAllWithERK20MIDI_message_matcher
FN:80,_ZNK31MIDIInputElementChannelPressure9getTargetERK20MIDI_message_matcher
FN:85,_ZN31MIDIInputElementChannelPressure8moveDownEv
FNDA:0,_ZN31MIDIInputElementChannelPressure8resetAllEv
FNDA:9,_ZN31MIDIInputElementChannelPressureC2ERK20MIDICNChannelAddress
FNDA:0,_ZN31MIDIInputElementChannelPressureD0Ev
FNDA:1,_ZN31MIDIInputElementChannelPressure9updateAllEv
FNDA:1,_ZN31MIDIInputElementChannelPressure8beginAllEv
FNDA:9,_ZN31MIDIInputElementChannelPressureD2Ev
FNDA:0,_ZNK31MIDIInputElementChannelPressure9getTargetERK20MIDI_message_matcher
FNDA:15,_ZN31MIDIInputElementChannelPressure8moveDownEv
FNDA:15,_ZN31MIDIInputElementChannelPressure13updateAllWithERK20MIDI_message_matcher
FNF:9
FNH:6
DA:21,9
DA:22,9
DA:24,9
DA:25,9
DA:31,9
DA:33,9
DA:34,9
DA:36,1
DA:38,2
DA:39,1
DA:40,1
DA:48,0
DA:50,0
DA:51,0
DA:52,0
DA:57,1
DA:59,2
DA:60,1
DA:61,1
DA:69,15
DA:70,15
DA:71,15
DA:72,15
DA:80,0
DA:81,0
DA:85,15
DA:87,15
DA:88,15
LF:28
LH:22
end_of_record
TN:
SF:/home/pieter/GitHub/Control-Surface/src/MIDI_Inputs/MIDIInputElementNote.hpp
FN:28,_ZN20MIDIInputElementNoteC2ERK20MIDICNChannelAddress
FN:38,_ZN20MIDIInputElementNoteD2Ev
FN:38,_ZN20MIDIInputElementNoteD0Ev
FN:48,_ZN20MIDIInputElementNote8beginAllEv
FN:59,_ZN20MIDIInputElementNote9updateAllEv
FN:70,_ZN20MIDIInputElementNote8resetAllEv
FN:82,_ZN20MIDIInputElementNote13updateAllWithERK20MIDI_message_matcher
FN:92,_ZN20MIDIInputElementNote8moveDownEv
FNDA:8,_ZN20MIDIInputElementNote13updateAllWithERK20MIDI_message_matcher
FNDA:8,_ZN20MIDIInputElementNote8moveDownEv
FNDA:5,_ZN20MIDIInputElementNoteD2Ev
FNDA:1,_ZN20MIDIInputElementNote8resetAllEv
FNDA:1,_ZN20MIDIInputElementNote8beginAllEv
FNDA:5,_ZN20MIDIInputElementNoteC2ERK20MIDICNChannelAddress
FNDA:0,_ZN20MIDIInputElementNoteD0Ev
FNDA:0,_ZN20MIDIInputElementNote9updateAllEv
FNF:8
FNH:6
DA:28,5
DA:29,5
DA:31,5
DA:32,5
DA:38,5
DA:40,5
DA:41,5
DA:48,1
DA:50,2
DA:51,1
DA:52,1
DA:59,0
DA:61,0
DA:62,0
DA:63,0
DA:70,1
DA:72,2
DA:73,1
DA:74,1
DA:82,8
DA:83,8
DA:84,8
DA:85,8
DA:92,8
DA:94,8
DA:95,8
LF:26
LH:22
end_of_record
TN:
SF:/home/pieter/GitHub/Control-Surface/src/MIDI_Inputs/MIDIInputElementPC.hpp
FN:20,_ZN18MIDIInputElementPCC2ERK20MIDICNChannelAddress
FN:30,_ZN18MIDIInputElementPCD0Ev
FN:30,_ZN18MIDIInputElementPCD2Ev
FN:35,_ZN18MIDIInputElementPC8beginAllEv
FN:68,_ZN18MIDIInputElementPC13updateAllWithERK20MIDI_message_matcher
FN:79,_ZNK18MIDIInputElementPC9getTargetERK20MIDI_message_matcher
FN:84,_ZN18MIDIInputElementPC8moveDownEv
FNDA:0,_ZN18MIDIInputElementPCD2Ev
FNDA:0,_ZN18MIDIInputElementPCD0Ev
FNDA:0,_ZN18MIDIInputElementPC8beginAllEv
FNDA:0,_ZN18MIDIInputElementPC8moveDownEv
FNDA:0,_ZN18MIDIInputElementPCC2ERK20MIDICNChannelAddress
FNDA:0,_ZNK18MIDIInputElementPC9getTargetERK20MIDI_message_matcher
FNDA:0,_ZN18MIDIInputElementPC13updateAllWithERK20MIDI_message_matcher
FNF:7
FNH:0
DA:20,0
DA:21,0
DA:23,0
DA:24,0
DA:30,0
DA:32,0
DA:33,0
DA:35,0
DA:37,0
DA:38,0
DA:39,0
DA:68,0
DA:69,0
DA:70,0
DA:71,0
DA:79,0
DA:80,0
DA:84,0
DA:86,0
DA:87,0
LF:20
LH:0
end_of_record
TN:
SF:/home/pieter/GitHub/Control-Surface/src/MIDI_Inputs/MIDINote.hpp
FN:9,_ZN13MIDINote_BaseC2ERK20MIDICNChannelAddress
FN:14,_ZNK13MIDINote_Base8getStateEv
FN:17,_ZN13MIDINote_Base23getValueFromMIDIMessageERK20MIDI_message_matcher
FN:27,_ZN8MIDINoteC2ERK20MIDICNChannelAddress
FN:27,_ZN8MIDINoteC1ERK20MIDICNChannelAddress
FN:29,_ZNK8MIDINote8getValueEv
FN:31,_ZN8MIDINote5resetEv
FN:34,_ZN8MIDINote10updateImplERK20MIDI_message_matcherRK20MIDICNChannelAddress
FNDA:5,_ZN13MIDINote_BaseC2ERK20MIDICNChannelAddress
FNDA:14,_ZNK8MIDINote8getValueEv
FNDA:8,_ZN8MIDINote10updateImplERK20MIDI_message_matcherRK20MIDICNChannelAddress
FNDA:2,_ZN8MIDINote5resetEv
FNDA:8,_ZNK13MIDINote_Base8getStateEv
FNDA:1,_ZN8MIDINoteC2ERK20MIDICNChannelAddress
FNDA:8,_ZN13MIDINote_Base23getValueFromMIDIMessageERK20MIDI_message_matcher
FNDA:4,_ZN8MIDINoteC1ERK20MIDICNChannelAddress
FNF:8
FNH:8
DA:9,5
DA:10,5
DA:14,8
DA:17,8
DA:18,8
DA:27,5
DA:29,14
DA:31,2
DA:34,8
DA:36,8
DA:37,8
LF:11
LH:11
end_of_record
TN:
SF:/home/pieter/GitHub/Control-Surface/src/MIDI_Inputs/MIDI_message_matcher.hpp
FN:9,_ZN20MIDI_message_matcherC2Eh7Channelhhh
FN:13,_ZN20MIDI_message_matcherC2ERK12MIDI_message
FNDA:0,_ZN20MIDI_message_matcherC2ERK12MIDI_message
FNDA:90,_ZN20MIDI_message_matcherC2Eh7Channelhhh
FNF:2
FNH:1
DA:9,90
DA:11,270
DA:12,90
DA:13,0
DA:14,0
DA:15,0
LF:6
LH:3
end_of_record
TN:
SF:/home/pieter/GitHub/Control-Surface/src/MIDI_Inputs/ProgramChangeSelector.hpp
FN:8,_ZN26ProgramChangeSelector_BaseILh3EEC2ERK13MIDICNChannel
FN:11,_ZN26ProgramChangeSelector_BaseILh3EE5beginEv
FN:16,_ZN26ProgramChangeSelector_BaseILh3EE10beginInputEv
FN:18,_ZN26ProgramChangeSelector_BaseILh3EE5resetEv
FN:20,_ZN26ProgramChangeSelector_BaseILh3EE6updateEv
FN:22,_ZN26ProgramChangeSelector_BaseILh3EE10updateImplERK20MIDI_message_matcherRK20MIDICNChannelAddress
FN:40,_ZN21ProgramChangeSelectorILh3EEC2ER10SelectableILh3EERK13MIDICNChannel
FN:40,_ZN21ProgramChangeSelectorILh3EEC1ER10SelectableILh3EERK13MIDICNChannel
FN:44,_ZN21ProgramChangeSelectorILh3EE11beginOutputEv
FN:45,_ZN21ProgramChangeSelectorILh3EE12updateOutputEhh
FNDA:0,_ZN26ProgramChangeSelector_BaseILh3EE6updateEv
FNDA:0,_ZN21ProgramChangeSelectorILh3EEC2ER10SelectableILh3EERK13MIDICNChannel
FNDA:0,_ZN21ProgramChangeSelectorILh3EEC1ER10SelectableILh3EERK13MIDICNChannel
FNDA:0,_ZN26ProgramChangeSelector_BaseILh3EE5beginEv
FNDA:0,_ZN26ProgramChangeSelector_BaseILh3EE10beginInputEv
FNDA:0,_ZN21ProgramChangeSelectorILh3EE12updateOutputEhh
FNDA:0,_ZN26ProgramChangeSelector_BaseILh3EEC2ERK13MIDICNChannel
FNDA:0,_ZN26ProgramChangeSelector_BaseILh3EE5resetEv
FNDA:0,_ZN26ProgramChangeSelector_BaseILh3EE10updateImplERK20MIDI_message_matcherRK20MIDICNChannelAddress
FNDA:0,_ZN21ProgramChangeSelectorILh3EE11beginOutputEv
FNF:10
FNH:0
DA:8,0
DA:9,0
DA:11,0
DA:12,0
DA:13,0
DA:14,0
DA:16,0
DA:18,0
DA:20,0
DA:22,0
DA:25,0
DA:26,0
DA:27,0
DA:33,0
DA:40,0
DA:42,0
DA:44,0
DA:45,0
DA:46,0
LF:19
LH:0
end_of_record
TN:
SF:/home/pieter/GitHub/Control-Surface/src/MIDI_Interfaces/BLEMIDI.hpp
FN:111,_ZN17BLECharacteristic8getValueB5cxx11Ev
FN:112,_ZN17BLECharacteristic8setValueEPhm
FN:117,_ZN26BLECharacteristicCallbacksD2Ev
FN:117,_ZN26BLECharacteristicCallbacksD0Ev
FN:118,_ZN26BLECharacteristicCallbacks6onReadEP17BLECharacteristic
FN:119,_ZN26BLECharacteristicCallbacks7onWriteEP17BLECharacteristic
FN:126,_ZN18BLEServerCallbacksD0Ev
FN:126,_ZN18BLEServerCallbacksD2Ev
FN:127,_ZN18BLEServerCallbacks9onConnectEP9BLEServer
FN:128,_ZN18BLEServerCallbacks12onDisconnectEP9BLEServer
FN:136,_ZN7BLEMIDI5beginEP18BLEServerCallbacksP26BLECharacteristicCallbacks
FN:136,_ZN7BLEMIDI11gmock_beginERKN7testing7MatcherIP18BLEServerCallbacksEERKNS1_IP26BLECharacteristicCallbacksEE
FN:138,_ZN7BLEMIDI11notifyValueEPhm
FNDA:0,_ZN26BLECharacteristicCallbacks6onReadEP17BLECharacteristic
FNDA:10,_ZN7BLEMIDI11gmock_beginERKN7testing7MatcherIP18BLEServerCallbacksEERKNS1_IP26BLECharacteristicCallbacksEE
FNDA:0,_ZN7BLEMIDI11notifyValueEPhm
FNDA:0,_ZN18BLEServerCallbacks12onDisconnectEP9BLEServer
FNDA:0,_ZN26BLECharacteristicCallbacks7onWriteEP17BLECharacteristic
FNDA:0,_ZN26BLECharacteristicCallbacksD0Ev
FNDA:0,_ZN17BLECharacteristic8getValueB5cxx11Ev
FNDA:0,_ZN18BLEServerCallbacks9onConnectEP9BLEServer
FNDA:10,_ZN18BLEServerCallbacksD2Ev
FNDA:10,_ZN26BLECharacteristicCallbacksD2Ev
FNDA:10,_ZN7BLEMIDI5beginEP18BLEServerCallbacksP26BLECharacteristicCallbacks
FNDA:0,_ZN18BLEServerCallbacksD0Ev
FNDA:0,_ZN17BLECharacteristic8setValueEPhm
FNF:13
FNH:4
DA:111,0
DA:112,0
DA:117,10
DA:118,0
DA:119,0
DA:126,10
DA:127,0
DA:128,0
DA:136,20
DA:138,0
LF:10
LH:3
end_of_record
TN:
SF:/home/pieter/GitHub/Control-Surface/src/MIDI_Interfaces/BluetoothMIDI_Interface.hpp
FN:19,_ZN23BluetoothMIDI_Interface9onConnectEP9BLEServer
FN:23,_ZN23BluetoothMIDI_Interface12onDisconnectEP9BLEServer
FN:32,_ZN23BluetoothMIDI_Interface6onReadEP17BLECharacteristic
FN:36,_ZN23BluetoothMIDI_Interface7onWriteEP17BLECharacteristic
FN:65,_ZN23BluetoothMIDI_Interface11hasSpaceForEm
FN:68,_ZN23BluetoothMIDI_InterfaceC2Ev
FN:70,_ZN23BluetoothMIDI_Interface5beginEv
FN:72,_ZN23BluetoothMIDI_Interface7publishEv
FN:83,_ZN23BluetoothMIDI_Interface4readEv
FN:89,_ZN23BluetoothMIDI_Interface11addToBufferILm3EEEvRAT__Kh
FN:89,_ZN23BluetoothMIDI_Interface11addToBufferILm2EEEvRAT__Kh
FN:93,_ZN23BluetoothMIDI_Interface11addToBufferEPKhm
FN:116,_ZN23BluetoothMIDI_Interface6updateEv
FN:121,_ZN23BluetoothMIDI_Interface8sendImplEhhhhh
FN:127,_ZN23BluetoothMIDI_Interface8sendImplEhhhh
FN:133,_ZN23BluetoothMIDI_Interface8sendImplEPKhmh
FN:139,_ZN23BluetoothMIDI_Interface5parseEPKhm
FN:159,_ZN23BluetoothMIDI_Interface5parseEh
FN:164,_ZN23BluetoothMIDI_Interface10getBLEMIDIEv
FNDA:0,_ZN23BluetoothMIDI_Interface6updateEv
FNDA:0,_ZN23BluetoothMIDI_Interface8sendImplEPKhmh
FNDA:0,_ZN23BluetoothMIDI_Interface7publishEv
FNDA:0,_ZN23BluetoothMIDI_Interface11addToBufferILm3EEEvRAT__Kh
FNDA:10,_ZN23BluetoothMIDI_Interface5beginEv
FNDA:0,_ZN23BluetoothMIDI_Interface9onConnectEP9BLEServer
FNDA:0,_ZN23BluetoothMIDI_Interface12onDisconnectEP9BLEServer
FNDA:0,_ZN23BluetoothMIDI_Interface6onReadEP17BLECharacteristic
FNDA:0,_ZN23BluetoothMIDI_Interface8sendImplEhhhhh
FNDA:0,_ZN23BluetoothMIDI_Interface11addToBufferILm2EEEvRAT__Kh
FNDA:10,_ZN23BluetoothMIDI_Interface10getBLEMIDIEv
FNDA:61,_ZN23BluetoothMIDI_Interface5parseEh
FNDA:10,_ZN23BluetoothMIDI_InterfaceC2Ev
FNDA:0,_ZN23BluetoothMIDI_Interface11hasSpaceForEm
FNDA:0,_ZN23BluetoothMIDI_Interface11addToBufferEPKhm
FNDA:0,_ZN23BluetoothMIDI_Interface4readEv
FNDA:0,_ZN23BluetoothMIDI_Interface8sendImplEhhhh
FNDA:0,_ZN23BluetoothMIDI_Interface7onWriteEP17BLECharacteristic
FNDA:10,_ZN23BluetoothMIDI_Interface5parseEPKhm
FNF:19
FNH:5
DA:19,0
DA:21,0
DA:22,0
DA:23,0
DA:25,0
DA:26,0
DA:29,0
DA:32,0
DA:34,0
DA:35,0
DA:36,0
DA:38,0
DA:40,0
DA:41,0
DA:42,0
DA:43,0
DA:44,0
DA:46,0
DA:47,0
DA:48,0
DA:65,0
DA:68,10
DA:70,10
DA:72,0
DA:73,0
DA:74,0
DA:75,0
DA:77,0
DA:79,0
DA:80,0
DA:83,0
DA:84,0
DA:85,0
DA:89,0
DA:90,0
DA:91,0
DA:93,0
DA:94,0
DA:95,0
DA:97,0
DA:98,0
DA:100,0
DA:104,0
DA:105,0
DA:107,0
DA:108,0
DA:109,0
DA:110,0
DA:111,0
DA:113,0
DA:116,0
DA:117,0
DA:118,0
DA:119,0
DA:121,0
DA:124,0
DA:125,0
DA:126,0
DA:127,0
DA:129,0
DA:130,0
DA:131,0
DA:133,0
DA:137,0
DA:139,10
DA:140,10
DA:141,0
DA:142,10
DA:143,0
DA:144,10
DA:145,1
DA:146,10
DA:147,84
DA:148,74
DA:149,39
DA:150,39
DA:152,35
DA:153,21
DA:154,35
DA:159,61
DA:160,61
DA:161,61
DA:162,61
DA:164,10
LF:84
LH:20
end_of_record
TN:
SF:/home/pieter/GitHub/Control-Surface/src/MIDI_Interfaces/MIDI_Interface.cpp
FN:3,_ZN14MIDI_InterfaceC2ER11MIDI_Parser
FN:7,_ZN14MIDI_InterfaceD2Ev
FN:7,_ZN14MIDI_InterfaceD0Ev
FN:14,_ZN14MIDI_Interface12setAsDefaultEv
FN:16,_ZN14MIDI_Interface10getDefaultEv
FN:20,_ZN14MIDI_Interface6updateEv
FN:33,_ZN14MIDI_Interface17dispatchMIDIEventE11MIDI_read_t
FN:44,_ZN14MIDI_Interface17onRealtimeMessageEh
FN:49,_ZN14MIDI_Interface16onChannelMessageEv
FN:54,_ZN14MIDI_Interface14onSysExMessageEv
FN:61,_ZN14MIDI_Interface4sendEhhhh
FN:65,_ZN14MIDI_Interface4sendEhhh
FN:69,_ZN14MIDI_Interface6sendCNEhhhhh
FN:81,_ZN14MIDI_Interface6sendCNEhhhh
FN:92,_ZN14MIDI_Interface10sendNoteOnE20MIDICNChannelAddressh
FN:98,_ZN14MIDI_Interface11sendNoteOffE20MIDICNChannelAddressh
FN:104,_ZN14MIDI_Interface6sendCCE20MIDICNChannelAddressh
FN:109,_ZN14MIDI_Interface6sendPBE20MIDICNChannelAddresst
FN:114,_ZN14MIDI_Interface6sendPBE13MIDICNChannelt
FN:118,_ZN14MIDI_Interface6sendPCE13MIDICNChannelh
FN:125,_ZN14MIDI_Interface17getChannelMessageEv
FN:129,_ZNK14MIDI_Interface15getSysExMessageEv
FN:133,_ZNK14MIDI_Interface5getCNEv
FNDA:0,_ZN14MIDI_InterfaceD0Ev
FNDA:4,_ZN14MIDI_Interface14onSysExMessageEv
FNDA:4,_ZNK14MIDI_Interface15getSysExMessageEv
FNDA:13,_ZN14MIDI_Interface16onChannelMessageEv
FNDA:0,_ZN14MIDI_Interface4sendEhhhh
FNDA:0,_ZN14MIDI_Interface4sendEhhh
FNDA:16,_ZN14MIDI_Interface11sendNoteOffE20MIDICNChannelAddressh
FNDA:0,_ZNK14MIDI_Interface5getCNEv
FNDA:0,_ZN14MIDI_Interface6sendCNEhhhh
FNDA:16,_ZN14MIDI_Interface10sendNoteOnE20MIDICNChannelAddressh
FNDA:13,_ZN14MIDI_Interface17getChannelMessageEv
FNDA:33,_ZN14MIDI_Interface12setAsDefaultEv
FNDA:0,_ZN14MIDI_Interface6sendPBE13MIDICNChannelt
FNDA:0,_ZN14MIDI_Interface6updateEv
FNDA:33,_ZN14MIDI_InterfaceD2Ev
FNDA:0,_ZN14MIDI_Interface6sendPBE20MIDICNChannelAddresst
FNDA:34,_ZN14MIDI_Interface6sendCCE20MIDICNChannelAddressh
FNDA:0,_ZN14MIDI_Interface6sendCNEhhhhh
FNDA:0,_ZN14MIDI_Interface6sendPCE13MIDICNChannelh
FNDA:61,_ZN14MIDI_Interface17dispatchMIDIEventE11MIDI_read_t
FNDA:99,_ZN14MIDI_Interface10getDefaultEv
FNDA:2,_ZN14MIDI_Interface17onRealtimeMessageEh
FNDA:33,_ZN14MIDI_InterfaceC2ER11MIDI_Parser
FNF:23
FNH:13
DA:3,33
DA:4,33
DA:5,33
DA:7,66
DA:8,33
DA:9,33
DA:10,33
DA:14,33
DA:16,99
DA:20,0
DA:21,0
DA:22,0
DA:23,0
DA:24,0
DA:25,0
DA:26,0
DA:33,61
DA:34,61
DA:35,42
DA:36,13
DA:37,4
DA:38,2
DA:44,2
DA:45,2
DA:46,2
DA:47,2
DA:49,13
