TN:
SF:/home/pieter/GitHub/Control-Surface/ArduinoMock/HardwareSerial0.cpp
FN:4,_ZN14HardwareSerial5beginEm
FNDA:0,_ZN14HardwareSerial5beginEm
FN:7,_ZN14HardwareSerial3endEv
FNDA:0,_ZN14HardwareSerial3endEv
FN:9,_ZN14HardwareSerial9availableEv
FNDA:0,_ZN14HardwareSerial9availableEv
FN:10,_ZN14HardwareSerial4readEv
FNDA:0,_ZN14HardwareSerial4readEv
FN:11,_ZN14HardwareSerial4peekEv
FNDA:0,_ZN14HardwareSerial4peekEv
FN:13,_ZN14HardwareSerial5writeEh
FNDA:1,_ZN14HardwareSerial5writeEh
FN:16,_ZN14HardwareSerial5writeEPKhm
FNDA:4,_ZN14HardwareSerial5writeEPKhm
DA:4,0
DA:5,0
DA:6,0
DA:7,0
DA:9,0
DA:10,0
DA:11,0
DA:13,1
DA:14,1
DA:16,4
DA:17,4
end_of_record
SF:/home/pieter/GitHub/Control-Surface/build/googletest/googletest-src/googlemock/include/gmock/gmock-spec-builders.h
FN:1317,_ZN7testing8internal23ReferenceOrValueWrapperImE6UnwrapEv
FNDA:0,_ZN7testing8internal23ReferenceOrValueWrapperImE6UnwrapEv
FN:1317,_ZN7testing8internal23ReferenceOrValueWrapperIiE6UnwrapEv
FNDA:0,_ZN7testing8internal23ReferenceOrValueWrapperIiE6UnwrapEv
FN:1376,_ZN7testing8internal18ActionResultHolderImE6UnwrapEv
FNDA:0,_ZN7testing8internal18ActionResultHolderImE6UnwrapEv
FN:1376,_ZN7testing8internal18ActionResultHolderIiE6UnwrapEv
FNDA:0,_ZN7testing8internal18ActionResultHolderIiE6UnwrapEv
FN:1423,_ZN7testing8internal18ActionResultHolderIvE6UnwrapEv
FNDA:0,_ZN7testing8internal18ActionResultHolderIvE6UnwrapEv
FN:1592,_ZN7testing8internal14FunctionMockerIFmPKhmEE6InvokeES3_m
FNDA:4,_ZN7testing8internal14FunctionMockerIFmPKhmEE6InvokeES3_m
FN:1592,_ZN7testing8internal14FunctionMockerIFmhEE6InvokeEh
FNDA:1,_ZN7testing8internal14FunctionMockerIFmhEE6InvokeEh
FN:1592,_ZN7testing8internal14FunctionMockerIFivEE6InvokeEv
FNDA:0,_ZN7testing8internal14FunctionMockerIFivEE6InvokeEv
FN:1592,_ZN7testing8internal14FunctionMockerIFvvEE6InvokeEv
FNDA:0,_ZN7testing8internal14FunctionMockerIFvvEE6InvokeEv
FN:1592,_ZN7testing8internal14FunctionMockerIFvmEE6InvokeEm
FNDA:0,_ZN7testing8internal14FunctionMockerIFvmEE6InvokeEm
DA:1317,0
DA:1317,0
DA:1376,0
DA:1377,0
DA:1376,0
DA:1377,0
DA:1423,0
DA:1592,4
DA:1593,4
DA:1594,4
DA:1596,8
DA:1592,1
DA:1593,1
DA:1594,1
DA:1596,2
DA:1592,0
DA:1594,0
DA:1596,0
DA:1592,0
DA:1594,0
DA:1596,0
DA:1592,0
DA:1593,0
DA:1594,0
DA:1596,0
end_of_record
SF:/home/pieter/GitHub/Control-Surface/ArduinoMock/HardwareSerial.h
FN:38,_ZN12SerialHelper5beginEm
FNDA:0,_ZN12SerialHelper5beginEm
FN:39,_ZN12SerialHelper3endEv
FNDA:0,_ZN12SerialHelper3endEv
FN:41,_ZN12SerialHelper9availableEv
FNDA:0,_ZN12SerialHelper9availableEv
FN:42,_ZN12SerialHelper4readEv
FNDA:0,_ZN12SerialHelper4readEv
FN:43,_ZN12SerialHelper4peekEv
FNDA:0,_ZN12SerialHelper4peekEv
FN:45,_ZN12SerialHelper5writeEh
FNDA:1,_ZN12SerialHelper5writeEh
FN:46,_ZN12SerialHelper5writeEPKhm
FNDA:4,_ZN12SerialHelper5writeEPKhm
DA:38,0
DA:39,0
DA:41,0
DA:42,0
DA:43,0
DA:45,1
DA:46,4
end_of_record
SF:/home/pieter/GitHub/Control-Surface/ArduinoMock/Print.h
FN:48,_ZN5PrintC2Ev
FNDA:1,_ZN5PrintC2Ev
FN:66,_ZN5Print17availableForWriteEv
FNDA:0,_ZN5Print17availableForWriteEv
FN:89,_ZN5Print5flushEv
FNDA:0,_ZN5Print5flushEv
DA:48,1
DA:66,0
DA:89,0
DA:90,0
end_of_record
SF:/usr/include/c++/9/bits/unique_ptr.h
FN:75,_ZNKSt14default_deleteIN7testing8internal18ActionResultHolderIvEEEclEPS3_
FNDA:0,_ZNKSt14default_deleteIN7testing8internal18ActionResultHolderIvEEEclEPS3_
FN:75,_ZNKSt14default_deleteIN7testing8internal18ActionResultHolderImEEEclEPS3_
FNDA:0,_ZNKSt14default_deleteIN7testing8internal18ActionResultHolderImEEEclEPS3_
FN:75,_ZNKSt14default_deleteIN7testing8internal18ActionResultHolderIiEEEclEPS3_
FNDA:0,_ZNKSt14default_deleteIN7testing8internal18ActionResultHolderIiEEEclEPS3_
FN:147,_ZNSt15__uniq_ptr_implIN7testing8internal18ActionResultHolderIvEESt14default_deleteIS3_EEC2EPS3_
FNDA:0,_ZNSt15__uniq_ptr_implIN7testing8internal18ActionResultHolderIvEESt14default_deleteIS3_EEC2EPS3_
FN:147,_ZNSt15__uniq_ptr_implIN7testing8internal18ActionResultHolderIiEESt14default_deleteIS3_EEC2EPS3_
FNDA:0,_ZNSt15__uniq_ptr_implIN7testing8internal18ActionResultHolderIiEESt14default_deleteIS3_EEC2EPS3_
FN:147,_ZNSt15__uniq_ptr_implIN7testing8internal18ActionResultHolderImEESt14default_deleteIS3_EEC2EPS3_
FNDA:0,_ZNSt15__uniq_ptr_implIN7testing8internal18ActionResultHolderImEESt14default_deleteIS3_EEC2EPS3_
FN:153,_ZNSt15__uniq_ptr_implIN7testing8internal18ActionResultHolderIvEESt14default_deleteIS3_EE6_M_ptrEv
FNDA:0,_ZNSt15__uniq_ptr_implIN7testing8internal18ActionResultHolderIvEESt14default_deleteIS3_EE6_M_ptrEv
FN:153,_ZNSt15__uniq_ptr_implIN7testing8internal18ActionResultHolderImEESt14default_deleteIS3_EE6_M_ptrEv
FNDA:0,_ZNSt15__uniq_ptr_implIN7testing8internal18ActionResultHolderImEESt14default_deleteIS3_EE6_M_ptrEv
FN:153,_ZNSt15__uniq_ptr_implIN7testing8internal18ActionResultHolderIiEESt14default_deleteIS3_EE6_M_ptrEv
FNDA:0,_ZNSt15__uniq_ptr_implIN7testing8internal18ActionResultHolderIiEESt14default_deleteIS3_EE6_M_ptrEv
FN:154,_ZNKSt15__uniq_ptr_implIN7testing8internal18ActionResultHolderImEESt14default_deleteIS3_EE6_M_ptrEv
FNDA:0,_ZNKSt15__uniq_ptr_implIN7testing8internal18ActionResultHolderImEESt14default_deleteIS3_EE6_M_ptrEv
FN:154,_ZNKSt15__uniq_ptr_implIN7testing8internal18ActionResultHolderIiEESt14default_deleteIS3_EE6_M_ptrEv
FNDA:0,_ZNKSt15__uniq_ptr_implIN7testing8internal18ActionResultHolderIiEESt14default_deleteIS3_EE6_M_ptrEv
FN:154,_ZNKSt15__uniq_ptr_implIN7testing8internal18ActionResultHolderIvEESt14default_deleteIS3_EE6_M_ptrEv
FNDA:0,_ZNKSt15__uniq_ptr_implIN7testing8internal18ActionResultHolderIvEESt14default_deleteIS3_EE6_M_ptrEv
FN:155,_ZNSt15__uniq_ptr_implIN7testing8internal18ActionResultHolderImEESt14default_deleteIS3_EE10_M_deleterEv
FNDA:0,_ZNSt15__uniq_ptr_implIN7testing8internal18ActionResultHolderImEESt14default_deleteIS3_EE10_M_deleterEv
FN:155,_ZNSt15__uniq_ptr_implIN7testing8internal18ActionResultHolderIvEESt14default_deleteIS3_EE10_M_deleterEv
FNDA:0,_ZNSt15__uniq_ptr_implIN7testing8internal18ActionResultHolderIvEESt14default_deleteIS3_EE10_M_deleterEv
FN:155,_ZNSt15__uniq_ptr_implIN7testing8internal18ActionResultHolderIiEESt14default_deleteIS3_EE10_M_deleterEv
FNDA:0,_ZNSt15__uniq_ptr_implIN7testing8internal18ActionResultHolderIiEESt14default_deleteIS3_EE10_M_deleterEv
FN:208,_ZNSt10unique_ptrIN7testing8internal18ActionResultHolderIvEESt14default_deleteIS3_EEC2IS5_vEEPS3_
FNDA:0,_ZNSt10unique_ptrIN7testing8internal18ActionResultHolderIvEESt14default_deleteIS3_EEC2IS5_vEEPS3_
FN:208,_ZNSt10unique_ptrIN7testing8internal18ActionResultHolderIiEESt14default_deleteIS3_EEC2IS5_vEEPS3_
FNDA:0,_ZNSt10unique_ptrIN7testing8internal18ActionResultHolderIiEESt14default_deleteIS3_EEC2IS5_vEEPS3_
FN:208,_ZNSt10unique_ptrIN7testing8internal18ActionResultHolderImEESt14default_deleteIS3_EEC2IS5_vEEPS3_
FNDA:0,_ZNSt10unique_ptrIN7testing8internal18ActionResultHolderImEESt14default_deleteIS3_EEC2IS5_vEEPS3_
FN:283,_ZNSt10unique_ptrIN7testing8internal18ActionResultHolderIvEESt14default_deleteIS3_EED2Ev
FNDA:0,_ZNSt10unique_ptrIN7testing8internal18ActionResultHolderIvEESt14default_deleteIS3_EED2Ev
FN:283,_ZNSt10unique_ptrIN7testing8internal18ActionResultHolderIiEESt14default_deleteIS3_EED2Ev
FNDA:0,_ZNSt10unique_ptrIN7testing8internal18ActionResultHolderIiEESt14default_deleteIS3_EED2Ev
FN:283,_ZNSt10unique_ptrIN7testing8internal18ActionResultHolderImEESt14default_deleteIS3_EED2Ev
FNDA:0,_ZNSt10unique_ptrIN7testing8internal18ActionResultHolderImEESt14default_deleteIS3_EED2Ev
FN:349,_ZNKSt10unique_ptrIN7testing8internal18ActionResultHolderImEESt14default_deleteIS3_EEptEv
FNDA:0,_ZNKSt10unique_ptrIN7testing8internal18ActionResultHolderImEESt14default_deleteIS3_EEptEv
FN:349,_ZNKSt10unique_ptrIN7testing8internal18ActionResultHolderIvEESt14default_deleteIS3_EEptEv
FNDA:0,_ZNKSt10unique_ptrIN7testing8internal18ActionResultHolderIvEESt14default_deleteIS3_EEptEv
FN:349,_ZNKSt10unique_ptrIN7testing8internal18ActionResultHolderIiEESt14default_deleteIS3_EEptEv
FNDA:0,_ZNKSt10unique_ptrIN7testing8internal18ActionResultHolderIiEESt14default_deleteIS3_EEptEv
FN:357,_ZNKSt10unique_ptrIN7testing8internal18ActionResultHolderImEESt14default_deleteIS3_EE3getEv
FNDA:0,_ZNKSt10unique_ptrIN7testing8internal18ActionResultHolderImEESt14default_deleteIS3_EE3getEv
FN:357,_ZNKSt10unique_ptrIN7testing8internal18ActionResultHolderIvEESt14default_deleteIS3_EE3getEv
FNDA:0,_ZNKSt10unique_ptrIN7testing8internal18ActionResultHolderIvEESt14default_deleteIS3_EE3getEv
FN:357,_ZNKSt10unique_ptrIN7testing8internal18ActionResultHolderIiEESt14default_deleteIS3_EE3getEv
FNDA:0,_ZNKSt10unique_ptrIN7testing8internal18ActionResultHolderIiEESt14default_deleteIS3_EE3getEv
FN:362,_ZNSt10unique_ptrIN7testing8internal18ActionResultHolderIiEESt14default_deleteIS3_EE11get_deleterEv
FNDA:0,_ZNSt10unique_ptrIN7testing8internal18ActionResultHolderIiEESt14default_deleteIS3_EE11get_deleterEv
FN:362,_ZNSt10unique_ptrIN7testing8internal18ActionResultHolderIvEESt14default_deleteIS3_EE11get_deleterEv
FNDA:0,_ZNSt10unique_ptrIN7testing8internal18ActionResultHolderIvEESt14default_deleteIS3_EE11get_deleterEv
FN:362,_ZNSt10unique_ptrIN7testing8internal18ActionResultHolderImEESt14default_deleteIS3_EE11get_deleterEv
FNDA:0,_ZNSt10unique_ptrIN7testing8internal18ActionResultHolderImEESt14default_deleteIS3_EE11get_deleterEv
DA:75,0
DA:81,0
DA:82,0
DA:75,0
DA:81,0
DA:82,0
DA:75,0
DA:81,0
DA:82,0
DA:147,0
DA:147,0
DA:147,0
DA:153,0
DA:153,0
DA:153,0
DA:154,0
DA:154,0
DA:154,0
DA:155,0
DA:155,0
DA:155,0
DA:208,0
DA:209,0
DA:210,0
DA:208,0
DA:209,0
DA:210,0
DA:208,0
DA:209,0
DA:210,0
DA:283,0
DA:287,0
DA:288,0
DA:289,0
DA:290,0
DA:291,0
DA:283,0
DA:287,0
DA:288,0
DA:289,0
DA:290,0
DA:291,0
DA:283,0
DA:287,0
DA:288,0
DA:289,0
DA:290,0
DA:291,0
DA:349,0
DA:352,0
DA:349,0
DA:352,0
DA:349,0
DA:352,0
DA:357,0
DA:358,0
DA:357,0
DA:358,0
DA:357,0
DA:358,0
DA:362,0
DA:363,0
DA:362,0
DA:363,0
DA:362,0
DA:363,0
end_of_record
SF:/home/pieter/GitHub/Control-Surface/ArduinoMock/Stream.h
end_of_record
SF:/usr/include/c++/9/tuple
FN:76,_ZNSt10_Head_baseILm1ESt14default_deleteIN7testing8internal18ActionResultHolderIvEEELb1EEC2Ev
FNDA:0,_ZNSt10_Head_baseILm1ESt14default_deleteIN7testing8internal18ActionResultHolderIvEEELb1EEC2Ev
FN:76,_ZNSt10_Head_baseILm1ESt14default_deleteIN7testing8internal18ActionResultHolderIiEEELb1EEC2Ev
FNDA:0,_ZNSt10_Head_baseILm1ESt14default_deleteIN7testing8internal18ActionResultHolderIiEEELb1EEC2Ev
FN:76,_ZNSt10_Head_baseILm1ESt14default_deleteIN7testing8internal18ActionResultHolderImEEELb1EEC2Ev
FNDA:0,_ZNSt10_Head_baseILm1ESt14default_deleteIN7testing8internal18ActionResultHolderImEEELb1EEC2Ev
FN:113,_ZNSt10_Head_baseILm1ESt14default_deleteIN7testing8internal18ActionResultHolderImEEELb1EE7_M_headERS6_
FNDA:0,_ZNSt10_Head_baseILm1ESt14default_deleteIN7testing8internal18ActionResultHolderImEEELb1EE7_M_headERS6_
FN:113,_ZNSt10_Head_baseILm1ESt14default_deleteIN7testing8internal18ActionResultHolderIiEEELb1EE7_M_headERS6_
FNDA:0,_ZNSt10_Head_baseILm1ESt14default_deleteIN7testing8internal18ActionResultHolderIiEEELb1EE7_M_headERS6_
FN:113,_ZNSt10_Head_baseILm1ESt14default_deleteIN7testing8internal18ActionResultHolderIvEEELb1EE7_M_headERS6_
FNDA:0,_ZNSt10_Head_baseILm1ESt14default_deleteIN7testing8internal18ActionResultHolderIvEEELb1EE7_M_headERS6_
FN:122,_ZNSt10_Head_baseILm0EPN7testing8internal18ActionResultHolderIvEELb0EEC2Ev
FNDA:0,_ZNSt10_Head_baseILm0EPN7testing8internal18ActionResultHolderIvEELb0EEC2Ev
FN:122,_ZNSt10_Head_baseILm0EPN7testing8internal18ActionResultHolderIiEELb0EEC2Ev
FNDA:0,_ZNSt10_Head_baseILm0EPN7testing8internal18ActionResultHolderIiEELb0EEC2Ev
FN:122,_ZNSt10_Head_baseILm0EPN7testing8internal18ActionResultHolderImEELb0EEC2Ev
FNDA:0,_ZNSt10_Head_baseILm0EPN7testing8internal18ActionResultHolderImEELb0EEC2Ev
FN:132,_ZNSt10_Head_baseILm0EhLb0EEC2IhEEOT_
FNDA:0,_ZNSt10_Head_baseILm0EhLb0EEC2IhEEOT_
FN:132,_ZNSt10_Head_baseILm0EmLb0EEC2ImEEOT_
FNDA:0,_ZNSt10_Head_baseILm0EmLb0EEC2ImEEOT_
FN:132,_ZNSt10_Head_baseILm1EmLb0EEC2ImEEOT_
FNDA:0,_ZNSt10_Head_baseILm1EmLb0EEC2ImEEOT_
FN:132,_ZNSt10_Head_baseILm0EPKhLb0EEC2IS1_EEOT_
FNDA:0,_ZNSt10_Head_baseILm0EPKhLb0EEC2IS1_EEOT_
FN:160,_ZNSt10_Head_baseILm0EPN7testing8internal18ActionResultHolderImEELb0EE7_M_headERS5_
FNDA:0,_ZNSt10_Head_baseILm0EPN7testing8internal18ActionResultHolderImEELb0EE7_M_headERS5_
FN:160,_ZNSt10_Head_baseILm0EPN7testing8internal18ActionResultHolderIvEELb0EE7_M_headERS5_
FNDA:0,_ZNSt10_Head_baseILm0EPN7testing8internal18ActionResultHolderIvEELb0EE7_M_headERS5_
FN:160,_ZNSt10_Head_baseILm0EPN7testing8internal18ActionResultHolderIiEELb0EE7_M_headERS5_
FNDA:0,_ZNSt10_Head_baseILm0EPN7testing8internal18ActionResultHolderIiEELb0EE7_M_headERS5_
FN:163,_ZNSt10_Head_baseILm0EPN7testing8internal18ActionResultHolderIvEELb0EE7_M_headERKS5_
FNDA:0,_ZNSt10_Head_baseILm0EPN7testing8internal18ActionResultHolderIvEELb0EE7_M_headERKS5_
FN:163,_ZNSt10_Head_baseILm0EPN7testing8internal18ActionResultHolderImEELb0EE7_M_headERKS5_
FNDA:0,_ZNSt10_Head_baseILm0EPN7testing8internal18ActionResultHolderImEELb0EE7_M_headERKS5_
FN:163,_ZNSt10_Head_baseILm0EPN7testing8internal18ActionResultHolderIiEELb0EE7_M_headERKS5_
FNDA:0,_ZNSt10_Head_baseILm0EPN7testing8internal18ActionResultHolderIiEELb0EE7_M_headERKS5_
FN:195,_ZNSt11_Tuple_implILm0EJPN7testing8internal18ActionResultHolderImEESt14default_deleteIS3_EEE7_M_headERS7_
FNDA:0,_ZNSt11_Tuple_implILm0EJPN7testing8internal18ActionResultHolderImEESt14default_deleteIS3_EEE7_M_headERS7_
FN:195,_ZNSt11_Tuple_implILm0EJPN7testing8internal18ActionResultHolderIvEESt14default_deleteIS3_EEE7_M_headERS7_
FNDA:0,_ZNSt11_Tuple_implILm0EJPN7testing8internal18ActionResultHolderIvEESt14default_deleteIS3_EEE7_M_headERS7_
FN:195,_ZNSt11_Tuple_implILm0EJPN7testing8internal18ActionResultHolderIiEESt14default_deleteIS3_EEE7_M_headERS7_
FNDA:0,_ZNSt11_Tuple_implILm0EJPN7testing8internal18ActionResultHolderIiEESt14default_deleteIS3_EEE7_M_headERS7_
FN:198,_ZNSt11_Tuple_implILm0EJPN7testing8internal18ActionResultHolderIvEESt14default_deleteIS3_EEE7_M_headERKS7_
FNDA:0,_ZNSt11_Tuple_implILm0EJPN7testing8internal18ActionResultHolderIvEESt14default_deleteIS3_EEE7_M_headERKS7_
FN:198,_ZNSt11_Tuple_implILm0EJPN7testing8internal18ActionResultHolderImEESt14default_deleteIS3_EEE7_M_headERKS7_
FNDA:0,_ZNSt11_Tuple_implILm0EJPN7testing8internal18ActionResultHolderImEESt14default_deleteIS3_EEE7_M_headERKS7_
FN:198,_ZNSt11_Tuple_implILm0EJPN7testing8internal18ActionResultHolderIiEESt14default_deleteIS3_EEE7_M_headERKS7_
FNDA:0,_ZNSt11_Tuple_implILm0EJPN7testing8internal18ActionResultHolderIiEESt14default_deleteIS3_EEE7_M_headERKS7_
FN:206,_ZNSt11_Tuple_implILm0EJPN7testing8internal18ActionResultHolderImEESt14default_deleteIS3_EEEC2Ev
FNDA:0,_ZNSt11_Tuple_implILm0EJPN7testing8internal18ActionResultHolderImEESt14default_deleteIS3_EEEC2Ev
FN:206,_ZNSt11_Tuple_implILm0EJPN7testing8internal18ActionResultHolderIiEESt14default_deleteIS3_EEEC2Ev
FNDA:0,_ZNSt11_Tuple_implILm0EJPN7testing8internal18ActionResultHolderIiEESt14default_deleteIS3_EEEC2Ev
FN:206,_ZNSt11_Tuple_implILm0EJPN7testing8internal18ActionResultHolderIvEESt14default_deleteIS3_EEEC2Ev
FNDA:0,_ZNSt11_Tuple_implILm0EJPN7testing8internal18ActionResultHolderIvEESt14default_deleteIS3_EEEC2Ev
FN:216,_ZNSt11_Tuple_implILm0EJPKhmEEC2IS1_JmEvEEOT_DpOT0_
FNDA:4,_ZNSt11_Tuple_implILm0EJPKhmEEC2IS1_JmEvEEOT_DpOT0_
FN:334,_ZNSt11_Tuple_implILm1EJSt14default_deleteIN7testing8internal18ActionResultHolderIvEEEEE7_M_headERS6_
FNDA:0,_ZNSt11_Tuple_implILm1EJSt14default_deleteIN7testing8internal18ActionResultHolderIvEEEEE7_M_headERS6_
FN:334,_ZNSt11_Tuple_implILm1EJSt14default_deleteIN7testing8internal18ActionResultHolderImEEEEE7_M_headERS6_
FNDA:0,_ZNSt11_Tuple_implILm1EJSt14default_deleteIN7testing8internal18ActionResultHolderImEEEEE7_M_headERS6_
FN:334,_ZNSt11_Tuple_implILm1EJSt14default_deleteIN7testing8internal18ActionResultHolderIiEEEEE7_M_headERS6_
FNDA:0,_ZNSt11_Tuple_implILm1EJSt14default_deleteIN7testing8internal18ActionResultHolderIiEEEEE7_M_headERS6_
FN:339,_ZNSt11_Tuple_implILm1EJSt14default_deleteIN7testing8internal18ActionResultHolderIiEEEEEC2Ev
FNDA:0,_ZNSt11_Tuple_implILm1EJSt14default_deleteIN7testing8internal18ActionResultHolderIiEEEEEC2Ev
FN:339,_ZNSt11_Tuple_implILm1EJSt14default_deleteIN7testing8internal18ActionResultHolderImEEEEEC2Ev
FNDA:0,_ZNSt11_Tuple_implILm1EJSt14default_deleteIN7testing8internal18ActionResultHolderImEEEEEC2Ev
FN:339,_ZNSt11_Tuple_implILm1EJSt14default_deleteIN7testing8internal18ActionResultHolderIvEEEEEC2Ev
FNDA:0,_ZNSt11_Tuple_implILm1EJSt14default_deleteIN7testing8internal18ActionResultHolderIvEEEEEC2Ev
FN:348,_ZNSt11_Tuple_implILm0EJhEEC2IhEEOT_
FNDA:0,_ZNSt11_Tuple_implILm0EJhEEC2IhEEOT_
FN:348,_ZNSt11_Tuple_implILm1EJmEEC2ImEEOT_
FNDA:0,_ZNSt11_Tuple_implILm1EJmEEC2ImEEOT_
FN:348,_ZNSt11_Tuple_implILm0EJmEEC2ImEEOT_
FNDA:0,_ZNSt11_Tuple_implILm0EJmEEC2ImEEOT_
FN:626,_ZNSt5tupleIJhEEC2IJhELb1EEEDpOT_
FNDA:0,_ZNSt5tupleIJhEEC2IJhELb1EEEDpOT_
FN:626,_ZNSt5tupleIJmEEC2IJmELb1EEEDpOT_
FNDA:0,_ZNSt5tupleIJmEEC2IJmELb1EEEDpOT_
FN:918,_ZNSt5tupleIJPN7testing8internal18ActionResultHolderImEESt14default_deleteIS3_EEEC2IS4_S6_Lb1EEEv
FNDA:0,_ZNSt5tupleIJPN7testing8internal18ActionResultHolderImEESt14default_deleteIS3_EEEC2IS4_S6_Lb1EEEv
FN:918,_ZNSt5tupleIJPN7testing8internal18ActionResultHolderIiEESt14default_deleteIS3_EEEC2IS4_S6_Lb1EEEv
FNDA:0,_ZNSt5tupleIJPN7testing8internal18ActionResultHolderIiEESt14default_deleteIS3_EEEC2IS4_S6_Lb1EEEv
FN:918,_ZNSt5tupleIJPN7testing8internal18ActionResultHolderIvEESt14default_deleteIS3_EEEC2IS4_S6_Lb1EEEv
FNDA:0,_ZNSt5tupleIJPN7testing8internal18ActionResultHolderIvEESt14default_deleteIS3_EEEC2IS4_S6_Lb1EEEv
FN:968,_ZNSt5tupleIJPKhmEEC2IS1_mLb1EEEOT_OT0_
FNDA:4,_ZNSt5tupleIJPKhmEEC2IS1_mLb1EEEOT_OT0_
FN:1309,_ZSt12__get_helperILm1ESt14default_deleteIN7testing8internal18ActionResultHolderIiEEEJEERT0_RSt11_Tuple_implIXT_EJS6_DpT1_EE
FNDA:0,_ZSt12__get_helperILm1ESt14default_deleteIN7testing8internal18ActionResultHolderIiEEEJEERT0_RSt11_Tuple_implIXT_EJS6_DpT1_EE
FN:1309,_ZSt12__get_helperILm0EPN7testing8internal18ActionResultHolderIvEEJSt14default_deleteIS3_EEERT0_RSt11_Tuple_implIXT_EJS7_DpT1_EE
FNDA:0,_ZSt12__get_helperILm0EPN7testing8internal18ActionResultHolderIvEEJSt14default_deleteIS3_EEERT0_RSt11_Tuple_implIXT_EJS7_DpT1_EE
FN:1309,_ZSt12__get_helperILm1ESt14default_deleteIN7testing8internal18ActionResultHolderIvEEEJEERT0_RSt11_Tuple_implIXT_EJS6_DpT1_EE
FNDA:0,_ZSt12__get_helperILm1ESt14default_deleteIN7testing8internal18ActionResultHolderIvEEEJEERT0_RSt11_Tuple_implIXT_EJS6_DpT1_EE
FN:1309,_ZSt12__get_helperILm1ESt14default_deleteIN7testing8internal18ActionResultHolderImEEEJEERT0_RSt11_Tuple_implIXT_EJS6_DpT1_EE
FNDA:0,_ZSt12__get_helperILm1ESt14default_deleteIN7testing8internal18ActionResultHolderImEEEJEERT0_RSt11_Tuple_implIXT_EJS6_DpT1_EE
FN:1309,_ZSt12__get_helperILm0EPN7testing8internal18ActionResultHolderImEEJSt14default_deleteIS3_EEERT0_RSt11_Tuple_implIXT_EJS7_DpT1_EE
FNDA:0,_ZSt12__get_helperILm0EPN7testing8internal18ActionResultHolderImEEJSt14default_deleteIS3_EEERT0_RSt11_Tuple_implIXT_EJS7_DpT1_EE
FN:1309,_ZSt12__get_helperILm0EPN7testing8internal18ActionResultHolderIiEEJSt14default_deleteIS3_EEERT0_RSt11_Tuple_implIXT_EJS7_DpT1_EE
FNDA:0,_ZSt12__get_helperILm0EPN7testing8internal18ActionResultHolderIiEEJSt14default_deleteIS3_EEERT0_RSt11_Tuple_implIXT_EJS7_DpT1_EE
FN:1314,_ZSt12__get_helperILm0EPN7testing8internal18ActionResultHolderIiEEJSt14default_deleteIS3_EEERKT0_RKSt11_Tuple_implIXT_EJS7_DpT1_EE
FNDA:0,_ZSt12__get_helperILm0EPN7testing8internal18ActionResultHolderIiEEJSt14default_deleteIS3_EEERKT0_RKSt11_Tuple_implIXT_EJS7_DpT1_EE
FN:1314,_ZSt12__get_helperILm0EPN7testing8internal18ActionResultHolderIvEEJSt14default_deleteIS3_EEERKT0_RKSt11_Tuple_implIXT_EJS7_DpT1_EE
FNDA:0,_ZSt12__get_helperILm0EPN7testing8internal18ActionResultHolderIvEEJSt14default_deleteIS3_EEERKT0_RKSt11_Tuple_implIXT_EJS7_DpT1_EE
FN:1314,_ZSt12__get_helperILm0EPN7testing8internal18ActionResultHolderImEEJSt14default_deleteIS3_EEERKT0_RKSt11_Tuple_implIXT_EJS7_DpT1_EE
FNDA:0,_ZSt12__get_helperILm0EPN7testing8internal18ActionResultHolderImEEJSt14default_deleteIS3_EEERKT0_RKSt11_Tuple_implIXT_EJS7_DpT1_EE
FN:1320,_ZSt3getILm0EJPN7testing8internal18ActionResultHolderIvEESt14default_deleteIS3_EEERNSt13tuple_elementIXT_ESt5tupleIJDpT0_EEE4typeERSB_
FNDA:0,_ZSt3getILm0EJPN7testing8internal18ActionResultHolderIvEESt14default_deleteIS3_EEERNSt13tuple_elementIXT_ESt5tupleIJDpT0_EEE4typeERSB_
FN:1320,_ZSt3getILm1EJPN7testing8internal18ActionResultHolderImEESt14default_deleteIS3_EEERNSt13tuple_elementIXT_ESt5tupleIJDpT0_EEE4typeERSB_
FNDA:0,_ZSt3getILm1EJPN7testing8internal18ActionResultHolderImEESt14default_deleteIS3_EEERNSt13tuple_elementIXT_ESt5tupleIJDpT0_EEE4typeERSB_
FN:1320,_ZSt3getILm0EJPN7testing8internal18ActionResultHolderIiEESt14default_deleteIS3_EEERNSt13tuple_elementIXT_ESt5tupleIJDpT0_EEE4typeERSB_
FNDA:0,_ZSt3getILm0EJPN7testing8internal18ActionResultHolderIiEESt14default_deleteIS3_EEERNSt13tuple_elementIXT_ESt5tupleIJDpT0_EEE4typeERSB_
FN:1320,_ZSt3getILm0EJPN7testing8internal18ActionResultHolderImEESt14default_deleteIS3_EEERNSt13tuple_elementIXT_ESt5tupleIJDpT0_EEE4typeERSB_
FNDA:0,_ZSt3getILm0EJPN7testing8internal18ActionResultHolderImEESt14default_deleteIS3_EEERNSt13tuple_elementIXT_ESt5tupleIJDpT0_EEE4typeERSB_
FN:1320,_ZSt3getILm1EJPN7testing8internal18ActionResultHolderIiEESt14default_deleteIS3_EEERNSt13tuple_elementIXT_ESt5tupleIJDpT0_EEE4typeERSB_
FNDA:0,_ZSt3getILm1EJPN7testing8internal18ActionResultHolderIiEESt14default_deleteIS3_EEERNSt13tuple_elementIXT_ESt5tupleIJDpT0_EEE4typeERSB_
FN:1320,_ZSt3getILm1EJPN7testing8internal18ActionResultHolderIvEESt14default_deleteIS3_EEERNSt13tuple_elementIXT_ESt5tupleIJDpT0_EEE4typeERSB_
FNDA:0,_ZSt3getILm1EJPN7testing8internal18ActionResultHolderIvEESt14default_deleteIS3_EEERNSt13tuple_elementIXT_ESt5tupleIJDpT0_EEE4typeERSB_
FN:1326,_ZSt3getILm0EJPN7testing8internal18ActionResultHolderIiEESt14default_deleteIS3_EEERKNSt13tuple_elementIXT_ESt5tupleIJDpT0_EEE4typeERKSB_
FNDA:0,_ZSt3getILm0EJPN7testing8internal18ActionResultHolderIiEESt14default_deleteIS3_EEERKNSt13tuple_elementIXT_ESt5tupleIJDpT0_EEE4typeERKSB_
FN:1326,_ZSt3getILm0EJPN7testing8internal18ActionResultHolderImEESt14default_deleteIS3_EEERKNSt13tuple_elementIXT_ESt5tupleIJDpT0_EEE4typeERKSB_
FNDA:0,_ZSt3getILm0EJPN7testing8internal18ActionResultHolderImEESt14default_deleteIS3_EEERKNSt13tuple_elementIXT_ESt5tupleIJDpT0_EEE4typeERKSB_
FN:1326,_ZSt3getILm0EJPN7testing8internal18ActionResultHolderIvEESt14default_deleteIS3_EEERKNSt13tuple_elementIXT_ESt5tupleIJDpT0_EEE4typeERKSB_
FNDA:0,_ZSt3getILm0EJPN7testing8internal18ActionResultHolderIvEESt14default_deleteIS3_EEERKNSt13tuple_elementIXT_ESt5tupleIJDpT0_EEE4typeERKSB_
DA:76,0
DA:77,0
DA:76,0
DA:77,0
DA:76,0
DA:77,0
DA:113,0
DA:113,0
DA:113,0
DA:122,0
DA:123,0
DA:122,0
DA:123,0
DA:122,0
DA:123,0
DA:132,0
DA:133,0
DA:132,0
DA:133,0
DA:132,0
DA:133,0
DA:132,0
DA:133,0
DA:160,0
DA:160,0
DA:160,0
DA:163,0
DA:163,0
DA:163,0
DA:195,0
DA:195,0
DA:195,0
DA:198,0
DA:198,0
DA:198,0
DA:206,0
DA:207,0
DA:206,0
DA:207,0
DA:206,0
DA:207,0
DA:216,4
DA:218,4
DA:334,0
DA:334,0
DA:334,0
DA:339,0
DA:340,0
DA:339,0
DA:340,0
DA:339,0
DA:340,0
DA:348,0
DA:349,0
DA:348,0
DA:349,0
DA:348,0
DA:349,0
DA:626,0
DA:627,0
DA:626,0
DA:627,0
DA:918,0
DA:919,0
DA:918,0
DA:919,0
DA:918,0
DA:919,0
DA:968,4
DA:969,4
DA:1309,0
DA:1310,0
DA:1309,0
DA:1310,0
DA:1309,0
DA:1310,0
DA:1309,0
DA:1310,0
DA:1309,0
DA:1310,0
DA:1309,0
DA:1310,0
DA:1314,0
DA:1315,0
DA:1314,0
DA:1315,0
DA:1314,0
DA:1315,0
DA:1320,0
DA:1321,0
DA:1320,0
DA:1321,0
DA:1320,0
DA:1321,0
DA:1320,0
DA:1321,0
DA:1320,0
DA:1321,0
DA:1320,0
DA:1321,0
DA:1326,0
DA:1327,0
DA:1326,0
DA:1327,0
DA:1326,0
DA:1327,0
end_of_record
SF:/usr/include/c++/9/bits/move.h
FN:74,_ZSt7forwardIPKhEOT_RNSt16remove_referenceIS2_E4typeE
FNDA:0,_ZSt7forwardIPKhEOT_RNSt16remove_referenceIS2_E4typeE
FN:74,_ZSt7forwardIhEOT_RNSt16remove_referenceIS0_E4typeE
FNDA:0,_ZSt7forwardIhEOT_RNSt16remove_referenceIS0_E4typeE
FN:74,_ZSt7forwardImEOT_RNSt16remove_referenceIS0_E4typeE
FNDA:0,_ZSt7forwardImEOT_RNSt16remove_referenceIS0_E4typeE
FN:99,_ZSt4moveIRmEONSt16remove_referenceIT_E4typeEOS2_
FNDA:0,_ZSt4moveIRmEONSt16remove_referenceIT_E4typeEOS2_
FN:99,_ZSt4moveIRiEONSt16remove_referenceIT_E4typeEOS2_
FNDA:0,_ZSt4moveIRiEONSt16remove_referenceIT_E4typeEOS2_
FN:99,_ZSt4moveIRPN7testing8internal18ActionResultHolderImEEEONSt16remove_referenceIT_E4typeEOS7_
FNDA:0,_ZSt4moveIRPN7testing8internal18ActionResultHolderImEEEONSt16remove_referenceIT_E4typeEOS7_
FN:99,_ZSt4moveIRPN7testing8internal18ActionResultHolderIiEEEONSt16remove_referenceIT_E4typeEOS7_
FNDA:0,_ZSt4moveIRPN7testing8internal18ActionResultHolderIiEEEONSt16remove_referenceIT_E4typeEOS7_
FN:99,_ZSt4moveIRPN7testing8internal18ActionResultHolderIvEEEONSt16remove_referenceIT_E4typeEOS7_
FNDA:0,_ZSt4moveIRPN7testing8internal18ActionResultHolderIvEEEONSt16remove_referenceIT_E4typeEOS7_
DA:74,0
DA:75,0
DA:74,0
DA:75,0
DA:74,0
DA:75,0
DA:99,0
DA:100,0
DA:99,0
DA:100,0
DA:99,0
DA:100,0
DA:99,0
DA:100,0
DA:99,0
DA:100,0
end_of_record
SF:/usr/include/c++/9/iostream
end_of_record
SF:/home/pieter/GitHub/Control-Surface/build/googletest/googletest-src/googletest/include/gtest/internal/gtest-port.h
FN:980,_ZN7testing8internal8GTestLog9GetStreamEv
FNDA:0,_ZN7testing8internal8GTestLog9GetStreamEv
FN:1110,_ZN7testing8internal9DownCast_IPNS0_18ActionResultHolderImEENS0_29UntypedActionResultHolderBaseEEET_PT0_
FNDA:0,_ZN7testing8internal9DownCast_IPNS0_18ActionResultHolderImEENS0_29UntypedActionResultHolderBaseEEET_PT0_
FN:1110,_ZN7testing8internal9DownCast_IPNS0_18ActionResultHolderIiEENS0_29UntypedActionResultHolderBaseEEET_PT0_
FNDA:0,_ZN7testing8internal9DownCast_IPNS0_18ActionResultHolderIiEENS0_29UntypedActionResultHolderBaseEEET_PT0_
FN:1110,_ZN7testing8internal9DownCast_IPNS0_18ActionResultHolderIvEENS0_29UntypedActionResultHolderBaseEEET_PT0_
FNDA:0,_ZN7testing8internal9DownCast_IPNS0_18ActionResultHolderIvEENS0_29UntypedActionResultHolderBaseEEET_PT0_
DA:980,0
DA:1110,0
DA:1124,0
DA:1126,0
DA:1110,0
DA:1124,0
DA:1126,0
DA:1110,0
DA:1124,0
DA:1126,0
end_of_record
TN:
SF:/usr/include/c++/9/bits/alloc_traits.h
FN:469,_ZNSt16allocator_traitsISaIPKvEE10deallocateERS2_PS1_m
FNDA:0,_ZNSt16allocator_traitsISaIPKvEE10deallocateERS2_PS1_m
FN:469,_ZNSt16allocator_traitsISaISt13_Rb_tree_nodeIN7testing11ExpectationEEEE10deallocateERS4_PS3_m
FNDA:0,_ZNSt16allocator_traitsISaISt13_Rb_tree_nodeIN7testing11ExpectationEEEE10deallocateERS4_PS3_m
FN:495,_ZNSt16allocator_traitsISaISt13_Rb_tree_nodeIN7testing11ExpectationEEEE7destroyIS2_EEvRS4_PT_
FNDA:0,_ZNSt16allocator_traitsISaISt13_Rb_tree_nodeIN7testing11ExpectationEEEE7destroyIS2_EEvRS4_PT_
FN:514,_ZNSt16allocator_traitsISaIcEE37select_on_container_copy_constructionERKS0_
FNDA:0,_ZNSt16allocator_traitsISaIcEE37select_on_container_copy_constructionERKS0_
FN:568,_ZSt18__do_alloc_on_swapISaIPKvEEvRT_S4_St17integral_constantIbLb0EE
FNDA:0,_ZSt18__do_alloc_on_swapISaIPKvEEvRT_S4_St17integral_constantIbLb0EE
FN:572,_ZSt15__alloc_on_swapISaIPKvEEvRT_S4_
FNDA:0,_ZSt15__alloc_on_swapISaIPKvEEvRT_S4_
DA:469,0
DA:470,0
DA:469,0
DA:470,0
DA:495,0
DA:497,0
DA:514,0
DA:515,0
DA:568,0
DA:569,0
DA:572,0
DA:576,0
DA:577,0
end_of_record
SF:/usr/include/c++/9/ext/aligned_buffer.h
FN:64,_ZN9__gnu_cxx16__aligned_membufIN7testing11ExpectationEE7_M_addrEv
FNDA:0,_ZN9__gnu_cxx16__aligned_membufIN7testing11ExpectationEE7_M_addrEv
FN:68,_ZNK9__gnu_cxx16__aligned_membufIN7testing11ExpectationEE7_M_addrEv
FNDA:0,_ZNK9__gnu_cxx16__aligned_membufIN7testing11ExpectationEE7_M_addrEv
FN:72,_ZN9__gnu_cxx16__aligned_membufIN7testing11ExpectationEE6_M_ptrEv
FNDA:0,_ZN9__gnu_cxx16__aligned_membufIN7testing11ExpectationEE6_M_ptrEv
FN:76,_ZNK9__gnu_cxx16__aligned_membufIN7testing11ExpectationEE6_M_ptrEv
FNDA:0,_ZNK9__gnu_cxx16__aligned_membufIN7testing11ExpectationEE6_M_ptrEv
DA:64,0
DA:65,0
DA:68,0
DA:69,0
DA:72,0
DA:73,0
DA:76,0
DA:77,0
end_of_record
SF:/home/pieter/GitHub/Control-Surface/build/googletest/googletest-src/googletest/include/gtest/gtest-matchers.h
FN:84,_ZN7testing19MatchResultListenerC2EPSo
FNDA:0,_ZN7testing19MatchResultListenerC2EPSo
FN:110,_ZN7testing19MatchResultListenerD2Ev
FNDA:0,_ZN7testing19MatchResultListenerD2Ev
FN:110,_ZN7testing19MatchResultListenerD0Ev
FNDA:0,_ZN7testing19MatchResultListenerD0Ev
FN:236,_ZN7testing8internal24DummyMatchResultListenerC2Ev
FNDA:0,_ZN7testing8internal24DummyMatchResultListenerC2Ev
FN:262,_ZNK7testing8internal11MatcherBaseIPKhE15MatchAndExplainERKS3_PNS_19MatchResultListenerE
FNDA:0,_ZNK7testing8internal11MatcherBaseIPKhE15MatchAndExplainERKS3_PNS_19MatchResultListenerE
FN:262,_ZNK7testing8internal11MatcherBaseIRKSt5tupleIJEEE15MatchAndExplainES5_PNS_19MatchResultListenerE
FNDA:0,_ZNK7testing8internal11MatcherBaseIRKSt5tupleIJEEE15MatchAndExplainES5_PNS_19MatchResultListenerE
FN:262,_ZNK7testing8internal11MatcherBaseIRKSt5tupleIJhiEEE15MatchAndExplainES5_PNS_19MatchResultListenerE
FNDA:0,_ZNK7testing8internal11MatcherBaseIRKSt5tupleIJhiEEE15MatchAndExplainES5_PNS_19MatchResultListenerE
FN:262,_ZNK7testing8internal11MatcherBaseIRKSt5tupleIJhEEE15MatchAndExplainES5_PNS_19MatchResultListenerE
FNDA:0,_ZNK7testing8internal11MatcherBaseIRKSt5tupleIJhEEE15MatchAndExplainES5_PNS_19MatchResultListenerE
FN:262,_ZNK7testing8internal11MatcherBaseIRKSt5tupleIJhhEEE15MatchAndExplainES5_PNS_19MatchResultListenerE
FNDA:175,_ZNK7testing8internal11MatcherBaseIRKSt5tupleIJhhEEE15MatchAndExplainES5_PNS_19MatchResultListenerE
FN:262,_ZNK7testing8internal11MatcherBaseIRKSt5tupleIJPKhmEEE15MatchAndExplainES7_PNS_19MatchResultListenerE
FNDA:0,_ZNK7testing8internal11MatcherBaseIRKSt5tupleIJPKhmEEE15MatchAndExplainES7_PNS_19MatchResultListenerE
FN:262,_ZNK7testing8internal11MatcherBaseIRKSt5tupleIJmEEE15MatchAndExplainES5_PNS_19MatchResultListenerE
FNDA:0,_ZNK7testing8internal11MatcherBaseIRKSt5tupleIJmEEE15MatchAndExplainES5_PNS_19MatchResultListenerE
FN:262,_ZNK7testing8internal11MatcherBaseIiE15MatchAndExplainERKiPNS_19MatchResultListenerE
FNDA:0,_ZNK7testing8internal11MatcherBaseIiE15MatchAndExplainERKiPNS_19MatchResultListenerE
FN:262,_ZNK7testing8internal11MatcherBaseImE15MatchAndExplainERKmPNS_19MatchResultListenerE
FNDA:0,_ZNK7testing8internal11MatcherBaseImE15MatchAndExplainERKmPNS_19MatchResultListenerE
FN:262,_ZNK7testing8internal11MatcherBaseIhE15MatchAndExplainERKhPNS_19MatchResultListenerE
FNDA:0,_ZNK7testing8internal11MatcherBaseIhE15MatchAndExplainERKhPNS_19MatchResultListenerE
FN:267,_ZNK7testing8internal11MatcherBaseIiE7MatchesERKi
FNDA:0,_ZNK7testing8internal11MatcherBaseIiE7MatchesERKi
FN:267,_ZNK7testing8internal11MatcherBaseIRKSt5tupleIJmEEE7MatchesES5_
FNDA:0,_ZNK7testing8internal11MatcherBaseIRKSt5tupleIJmEEE7MatchesES5_
FN:267,_ZNK7testing8internal11MatcherBaseIPKhE7MatchesERKS3_
FNDA:0,_ZNK7testing8internal11MatcherBaseIPKhE7MatchesERKS3_
FN:267,_ZNK7testing8internal11MatcherBaseIRKSt5tupleIJPKhmEEE7MatchesES7_
FNDA:0,_ZNK7testing8internal11MatcherBaseIRKSt5tupleIJPKhmEEE7MatchesES7_
FN:267,_ZNK7testing8internal11MatcherBaseIhE7MatchesERKh
FNDA:0,_ZNK7testing8internal11MatcherBaseIhE7MatchesERKh
FN:267,_ZNK7testing8internal11MatcherBaseIRKSt5tupleIJhhEEE7MatchesES5_
FNDA:175,_ZNK7testing8internal11MatcherBaseIRKSt5tupleIJhhEEE7MatchesES5_
FN:267,_ZNK7testing8internal11MatcherBaseIRKSt5tupleIJhEEE7MatchesES5_
FNDA:0,_ZNK7testing8internal11MatcherBaseIRKSt5tupleIJhEEE7MatchesES5_
FN:267,_ZNK7testing8internal11MatcherBaseIRKSt5tupleIJEEE7MatchesES5_
FNDA:0,_ZNK7testing8internal11MatcherBaseIRKSt5tupleIJEEE7MatchesES5_
FN:267,_ZNK7testing8internal11MatcherBaseImE7MatchesERKm
FNDA:0,_ZNK7testing8internal11MatcherBaseImE7MatchesERKm
FN:267,_ZNK7testing8internal11MatcherBaseIRKSt5tupleIJhiEEE7MatchesES5_
FNDA:0,_ZNK7testing8internal11MatcherBaseIRKSt5tupleIJhiEEE7MatchesES5_
FN:273,_ZNK7testing8internal11MatcherBaseIRKSt5tupleIJmEEE10DescribeToEPSo
FNDA:0,_ZNK7testing8internal11MatcherBaseIRKSt5tupleIJmEEE10DescribeToEPSo
FN:273,_ZNK7testing8internal11MatcherBaseIPKhE10DescribeToEPSo
FNDA:0,_ZNK7testing8internal11MatcherBaseIPKhE10DescribeToEPSo
FN:273,_ZNK7testing8internal11MatcherBaseImE10DescribeToEPSo
FNDA:0,_ZNK7testing8internal11MatcherBaseImE10DescribeToEPSo
FN:273,_ZNK7testing8internal11MatcherBaseIhE10DescribeToEPSo
FNDA:0,_ZNK7testing8internal11MatcherBaseIhE10DescribeToEPSo
FN:273,_ZNK7testing8internal11MatcherBaseIRKSt5tupleIJPKhmEEE10DescribeToEPSo
FNDA:0,_ZNK7testing8internal11MatcherBaseIRKSt5tupleIJPKhmEEE10DescribeToEPSo
FN:273,_ZNK7testing8internal11MatcherBaseIiE10DescribeToEPSo
FNDA:0,_ZNK7testing8internal11MatcherBaseIiE10DescribeToEPSo
FN:273,_ZNK7testing8internal11MatcherBaseIRKSt5tupleIJhhEEE10DescribeToEPSo
FNDA:0,_ZNK7testing8internal11MatcherBaseIRKSt5tupleIJhhEEE10DescribeToEPSo
FN:273,_ZNK7testing8internal11MatcherBaseIRKSt5tupleIJhEEE10DescribeToEPSo
FNDA:0,_ZNK7testing8internal11MatcherBaseIRKSt5tupleIJhEEE10DescribeToEPSo
FN:273,_ZNK7testing8internal11MatcherBaseIRKSt5tupleIJEEE10DescribeToEPSo
FNDA:0,_ZNK7testing8internal11MatcherBaseIRKSt5tupleIJEEE10DescribeToEPSo
FN:273,_ZNK7testing8internal11MatcherBaseIRKSt5tupleIJhiEEE10DescribeToEPSo
FNDA:0,_ZNK7testing8internal11MatcherBaseIRKSt5tupleIJhiEEE10DescribeToEPSo
FN:306,_ZN7testing8internal11MatcherBaseImEC2ERKS2_
FNDA:0,_ZN7testing8internal11MatcherBaseImEC2ERKS2_
FN:306,_ZN7testing8internal11MatcherBaseIhEC2ERKS2_
FNDA:0,_ZN7testing8internal11MatcherBaseIhEC2ERKS2_
FN:306,_ZN7testing8internal11MatcherBaseIPKhEC2ERKS4_
FNDA:0,_ZN7testing8internal11MatcherBaseIPKhEC2ERKS4_
FN:306,_ZN7testing8internal11MatcherBaseIiEC2ERKS2_
FNDA:0,_ZN7testing8internal11MatcherBaseIiEC2ERKS2_
FN:311,_ZN7testing8internal11MatcherBaseIPKhED2Ev
FNDA:0,_ZN7testing8internal11MatcherBaseIPKhED2Ev
FN:311,_ZN7testing8internal11MatcherBaseIRKSt5tupleIJhiEEED0Ev
FNDA:0,_ZN7testing8internal11MatcherBaseIRKSt5tupleIJhiEEED0Ev
FN:311,_ZN7testing8internal11MatcherBaseIRKSt5tupleIJhiEEED2Ev
FNDA:0,_ZN7testing8internal11MatcherBaseIRKSt5tupleIJhiEEED2Ev
FN:311,_ZN7testing8internal11MatcherBaseImED2Ev
FNDA:0,_ZN7testing8internal11MatcherBaseImED2Ev
FN:311,_ZN7testing8internal11MatcherBaseImED0Ev
FNDA:0,_ZN7testing8internal11MatcherBaseImED0Ev
FN:311,_ZN7testing8internal11MatcherBaseIhED2Ev
FNDA:0,_ZN7testing8internal11MatcherBaseIhED2Ev
FN:311,_ZN7testing8internal11MatcherBaseIhED0Ev
FNDA:0,_ZN7testing8internal11MatcherBaseIhED0Ev
FN:311,_ZN7testing8internal11MatcherBaseIRKSt5tupleIJhhEEED0Ev
FNDA:0,_ZN7testing8internal11MatcherBaseIRKSt5tupleIJhhEEED0Ev
FN:311,_ZN7testing8internal11MatcherBaseIPKhED0Ev
FNDA:0,_ZN7testing8internal11MatcherBaseIPKhED0Ev
FN:311,_ZN7testing8internal11MatcherBaseIiED2Ev
FNDA:0,_ZN7testing8internal11MatcherBaseIiED2Ev
FN:311,_ZN7testing8internal11MatcherBaseIiED0Ev
FNDA:0,_ZN7testing8internal11MatcherBaseIiED0Ev
FN:311,_ZN7testing8internal11MatcherBaseIRKSt5tupleIJmEEED2Ev
FNDA:0,_ZN7testing8internal11MatcherBaseIRKSt5tupleIJmEEED2Ev
FN:311,_ZN7testing8internal11MatcherBaseIRKSt5tupleIJmEEED0Ev
FNDA:0,_ZN7testing8internal11MatcherBaseIRKSt5tupleIJmEEED0Ev
FN:311,_ZN7testing8internal11MatcherBaseIRKSt5tupleIJEEED2Ev
FNDA:0,_ZN7testing8internal11MatcherBaseIRKSt5tupleIJEEED2Ev
FN:311,_ZN7testing8internal11MatcherBaseIRKSt5tupleIJEEED0Ev
FNDA:0,_ZN7testing8internal11MatcherBaseIRKSt5tupleIJEEED0Ev
FN:311,_ZN7testing8internal11MatcherBaseIRKSt5tupleIJhEEED2Ev
FNDA:0,_ZN7testing8internal11MatcherBaseIRKSt5tupleIJhEEED2Ev
FN:311,_ZN7testing8internal11MatcherBaseIRKSt5tupleIJhEEED0Ev
FNDA:0,_ZN7testing8internal11MatcherBaseIRKSt5tupleIJhEEED0Ev
FN:311,_ZN7testing8internal11MatcherBaseIRKSt5tupleIJPKhmEEED2Ev
FNDA:0,_ZN7testing8internal11MatcherBaseIRKSt5tupleIJPKhmEEED2Ev
FN:311,_ZN7testing8internal11MatcherBaseIRKSt5tupleIJPKhmEEED0Ev
FNDA:0,_ZN7testing8internal11MatcherBaseIRKSt5tupleIJPKhmEEED0Ev
FN:311,_ZN7testing8internal11MatcherBaseIRKSt5tupleIJhhEEED2Ev
FNDA:0,_ZN7testing8internal11MatcherBaseIRKSt5tupleIJhhEEED2Ev
DA:84,0
DA:110,0
DA:111,0
DA:110,0
DA:111,0
DA:236,0
DA:262,0
DA:263,0
DA:262,0
DA:263,0
DA:262,0
DA:263,0
DA:262,0
DA:263,0
DA:262,0
DA:263,0
DA:262,0
DA:263,0
DA:262,175
DA:263,175
DA:262,0
DA:263,0
DA:262,0
DA:263,0
DA:262,0
DA:263,0
DA:267,0
DA:268,0
DA:269,0
DA:267,0
DA:268,0
DA:269,0
DA:267,0
DA:268,0
DA:269,0
DA:267,0
DA:268,0
DA:269,0
DA:267,0
DA:268,0
DA:269,0
DA:267,0
DA:268,0
DA:269,0
DA:267,175
DA:268,175
DA:269,350
DA:267,0
DA:268,0
DA:269,0
DA:267,0
DA:268,0
DA:269,0
DA:267,0
DA:268,0
DA:269,0
DA:273,0
DA:273,0
DA:273,0
DA:273,0
DA:273,0
DA:273,0
DA:273,0
DA:273,0
DA:273,0
DA:273,0
DA:306,0
DA:306,0
DA:306,0
DA:306,0
DA:311,0
DA:311,0
DA:311,0
DA:311,0
DA:311,0
DA:311,0
DA:311,0
DA:311,0
DA:311,0
DA:311,0
DA:311,0
DA:311,0
DA:311,0
DA:311,0
DA:311,0
DA:311,0
DA:311,0
DA:311,0
DA:311,0
DA:311,0
end_of_record
SF:/usr/include/c++/9/bits/stl_tree.h
FN:146,_ZNSt20_Rb_tree_key_compareIN7testing11Expectation4LessEEC2Ev
FNDA:0,_ZNSt20_Rb_tree_key_compareIN7testing11Expectation4LessEEC2Ev
FN:173,_ZNSt15_Rb_tree_headerC2Ev
FNDA:0,_ZNSt15_Rb_tree_headerC2Ev
FN:206,_ZNSt15_Rb_tree_header8_M_resetEv
FNDA:0,_ZNSt15_Rb_tree_header8_M_resetEv
FN:234,_ZNSt13_Rb_tree_nodeIN7testing11ExpectationEE9_M_valptrEv
FNDA:0,_ZNSt13_Rb_tree_nodeIN7testing11ExpectationEE9_M_valptrEv
FN:238,_ZNKSt13_Rb_tree_nodeIN7testing11ExpectationEE9_M_valptrEv
FNDA:0,_ZNKSt13_Rb_tree_nodeIN7testing11ExpectationEE9_M_valptrEv
FN:345,_ZNSt23_Rb_tree_const_iteratorIN7testing11ExpectationEEC2EPKSt18_Rb_tree_node_base
FNDA:0,_ZNSt23_Rb_tree_const_iteratorIN7testing11ExpectationEEC2EPKSt18_Rb_tree_node_base
FN:360,_ZNKSt23_Rb_tree_const_iteratorIN7testing11ExpectationEEptEv
FNDA:0,_ZNKSt23_Rb_tree_const_iteratorIN7testing11ExpectationEEptEv
FN:364,_ZNSt23_Rb_tree_const_iteratorIN7testing11ExpectationEEppEv
FNDA:0,_ZNSt23_Rb_tree_const_iteratorIN7testing11ExpectationEEppEv
FN:398,_ZStneRKSt23_Rb_tree_const_iteratorIN7testing11ExpectationEES4_
FNDA:0,_ZStneRKSt23_Rb_tree_const_iteratorIN7testing11ExpectationEES4_
FN:566,_ZNSt8_Rb_treeIN7testing11ExpectationES1_St9_IdentityIS1_ENS1_4LessESaIS1_EE21_M_get_Node_allocatorEv
FNDA:0,_ZNSt8_Rb_treeIN7testing11ExpectationES1_St9_IdentityIS1_ENS1_4LessESaIS1_EE21_M_get_Node_allocatorEv
FN:583,_ZNSt8_Rb_treeIN7testing11ExpectationES1_St9_IdentityIS1_ENS1_4LessESaIS1_EE11_M_put_nodeEPSt13_Rb_tree_nodeIS1_E
FNDA:0,_ZNSt8_Rb_treeIN7testing11ExpectationES1_St9_IdentityIS1_ENS1_4LessESaIS1_EE11_M_put_nodeEPSt13_Rb_tree_nodeIS1_E
FN:637,_ZNSt8_Rb_treeIN7testing11ExpectationES1_St9_IdentityIS1_ENS1_4LessESaIS1_EE15_M_destroy_nodeEPSt13_Rb_tree_nodeIS1_E
FNDA:0,_ZNSt8_Rb_treeIN7testing11ExpectationES1_St9_IdentityIS1_ENS1_4LessESaIS1_EE15_M_destroy_nodeEPSt13_Rb_tree_nodeIS1_E
FN:648,_ZNSt8_Rb_treeIN7testing11ExpectationES1_St9_IdentityIS1_ENS1_4LessESaIS1_EE12_M_drop_nodeEPSt13_Rb_tree_nodeIS1_E
FNDA:0,_ZNSt8_Rb_treeIN7testing11ExpectationES1_St9_IdentityIS1_ENS1_4LessESaIS1_EE12_M_drop_nodeEPSt13_Rb_tree_nodeIS1_E
FN:680,_ZNSt8_Rb_treeIN7testing11ExpectationES1_St9_IdentityIS1_ENS1_4LessESaIS1_EE13_Rb_tree_implIS4_Lb1EEC2Ev
FNDA:0,_ZNSt8_Rb_treeIN7testing11ExpectationES1_St9_IdentityIS1_ENS1_4LessESaIS1_EE13_Rb_tree_implIS4_Lb1EEC2Ev
FN:744,_ZNSt8_Rb_treeIN7testing11ExpectationES1_St9_IdentityIS1_ENS1_4LessESaIS1_EE8_M_beginEv
FNDA:0,_ZNSt8_Rb_treeIN7testing11ExpectationES1_St9_IdentityIS1_ENS1_4LessESaIS1_EE8_M_beginEv
FN:771,_ZNSt8_Rb_treeIN7testing11ExpectationES1_St9_IdentityIS1_ENS1_4LessESaIS1_EE7_S_leftEPSt18_Rb_tree_node_base
FNDA:0,_ZNSt8_Rb_treeIN7testing11ExpectationES1_St9_IdentityIS1_ENS1_4LessESaIS1_EE7_S_leftEPSt18_Rb_tree_node_base
FN:779,_ZNSt8_Rb_treeIN7testing11ExpectationES1_St9_IdentityIS1_ENS1_4LessESaIS1_EE8_S_rightEPSt18_Rb_tree_node_base
FNDA:0,_ZNSt8_Rb_treeIN7testing11ExpectationES1_St9_IdentityIS1_ENS1_4LessESaIS1_EE8_S_rightEPSt18_Rb_tree_node_base
FN:921,_ZNSt8_Rb_treeIN7testing11ExpectationES1_St9_IdentityIS1_ENS1_4LessESaIS1_EEC2Ev
FNDA:0,_ZNSt8_Rb_treeIN7testing11ExpectationES1_St9_IdentityIS1_ENS1_4LessESaIS1_EEC2Ev
FN:976,_ZNSt8_Rb_treeIN7testing11ExpectationES1_St9_IdentityIS1_ENS1_4LessESaIS1_EED2Ev
FNDA:0,_ZNSt8_Rb_treeIN7testing11ExpectationES1_St9_IdentityIS1_ENS1_4LessESaIS1_EED2Ev
FN:1006,_ZNKSt8_Rb_treeIN7testing11ExpectationES1_St9_IdentityIS1_ENS1_4LessESaIS1_EE5beginEv
FNDA:0,_ZNKSt8_Rb_treeIN7testing11ExpectationES1_St9_IdentityIS1_ENS1_4LessESaIS1_EE5beginEv
FN:1014,_ZNKSt8_Rb_treeIN7testing11ExpectationES1_St9_IdentityIS1_ENS1_4LessESaIS1_EE3endEv
FNDA:0,_ZNKSt8_Rb_treeIN7testing11ExpectationES1_St9_IdentityIS1_ENS1_4LessESaIS1_EE3endEv
FN:1903,_ZNSt8_Rb_treeIN7testing11ExpectationES1_St9_IdentityIS1_ENS1_4LessESaIS1_EE8_M_eraseEPSt13_Rb_tree_nodeIS1_E
FNDA:0,_ZNSt8_Rb_treeIN7testing11ExpectationES1_St9_IdentityIS1_ENS1_4LessESaIS1_EE8_M_eraseEPSt13_Rb_tree_nodeIS1_E
DA:146,0
DA:150,0
DA:173,0
DA:174,0
DA:175,0
DA:176,0
DA:177,0
DA:206,0
DA:208,0
DA:209,0
DA:210,0
DA:211,0
DA:212,0
DA:234,0
DA:235,0
DA:238,0
DA:239,0
DA:345,0
DA:346,0
DA:360,0
DA:361,0
DA:364,0
DA:366,0
DA:367,0
DA:398,0
DA:399,0
DA:566,0
DA:567,0
DA:583,0
DA:584,0
DA:637,0
DA:642,0
DA:643,0
DA:645,0
DA:648,0
DA:650,0
DA:651,0
DA:652,0
DA:680,0
DA:684,0
DA:685,0
DA:744,0
DA:745,0
DA:771,0
DA:772,0
DA:779,0
DA:780,0
DA:921,0
DA:976,0
DA:978,0
DA:991,0
DA:1006,0
DA:1007,0
DA:1014,0
DA:1015,0
DA:1903,0
DA:1907,0
DA:1909,0
DA:1910,0
DA:1911,0
DA:1912,0
DA:1914,0
end_of_record
SF:/usr/include/c++/9/ext/new_allocator.h
FN:80,_ZN9__gnu_cxx13new_allocatorIPKvEC2Ev
FNDA:0,_ZN9__gnu_cxx13new_allocatorIPKvEC2Ev
FN:80,_ZN9__gnu_cxx13new_allocatorISt13_Rb_tree_nodeIN7testing11ExpectationEEEC2Ev
FNDA:0,_ZN9__gnu_cxx13new_allocatorISt13_Rb_tree_nodeIN7testing11ExpectationEEEC2Ev
FN:80,_ZN9__gnu_cxx13new_allocatorIcEC2Ev
FNDA:0,_ZN9__gnu_cxx13new_allocatorIcEC2Ev
FN:83,_ZN9__gnu_cxx13new_allocatorIcEC2ERKS1_
FNDA:0,_ZN9__gnu_cxx13new_allocatorIcEC2ERKS1_
FN:89,_ZN9__gnu_cxx13new_allocatorIPKvED2Ev
FNDA:0,_ZN9__gnu_cxx13new_allocatorIPKvED2Ev
FN:89,_ZN9__gnu_cxx13new_allocatorISt13_Rb_tree_nodeIN7testing11ExpectationEEED2Ev
FNDA:0,_ZN9__gnu_cxx13new_allocatorISt13_Rb_tree_nodeIN7testing11ExpectationEEED2Ev
FN:89,_ZN9__gnu_cxx13new_allocatorIcED2Ev
FNDA:0,_ZN9__gnu_cxx13new_allocatorIcED2Ev
FN:119,_ZN9__gnu_cxx13new_allocatorIPKvE10deallocateEPS2_m
FNDA:0,_ZN9__gnu_cxx13new_allocatorIPKvE10deallocateEPS2_m
FN:119,_ZN9__gnu_cxx13new_allocatorISt13_Rb_tree_nodeIN7testing11ExpectationEEE10deallocateEPS4_m
FNDA:0,_ZN9__gnu_cxx13new_allocatorISt13_Rb_tree_nodeIN7testing11ExpectationEEE10deallocateEPS4_m
FN:151,_ZN9__gnu_cxx13new_allocatorISt13_Rb_tree_nodeIN7testing11ExpectationEEE7destroyIS3_EEvPT_
FNDA:0,_ZN9__gnu_cxx13new_allocatorISt13_Rb_tree_nodeIN7testing11ExpectationEEE7destroyIS3_EEvPT_
DA:80,0
DA:80,0
DA:80,0
DA:83,0
DA:89,0
DA:89,0
DA:89,0
DA:119,0
DA:128,0
DA:129,0
DA:119,0
DA:128,0
DA:129,0
DA:151,0
DA:153,0
end_of_record
SF:/home/pieter/GitHub/Control-Surface/build/googletest/googletest-src/googlemock/include/gmock/gmock-matchers.h
FN:90,_ZN7testing25StringMatchResultListenerC2Ev
FNDA:0,_ZN7testing25StringMatchResultListenerC2Ev
FN:93,_ZNK7testing25StringMatchResultListener3strB5cxx11Ev
FNDA:0,_ZNK7testing25StringMatchResultListener3strB5cxx11Ev
FN:313,_ZN7testing8internal15PrintIfNotEmptyERKNSt7__cxx1112basic_stringIcSt11char_traitsIcESaIcEEEPSo
FNDA:0,_ZN7testing8internal15PrintIfNotEmptyERKNSt7__cxx1112basic_stringIcSt11char_traitsIcESaIcEEEPSo
FN:367,_ZN7testing8internal11TuplePrefixILm2EE7MatchesISt5tupleIJNS_7MatcherIhEES6_EES4_IJhhEEEEbRKT_RKT0_
FNDA:414,_ZN7testing8internal11TuplePrefixILm2EE7MatchesISt5tupleIJNS_7MatcherIhEES6_EES4_IJhhEEEEbRKT_RKT0_
FN:367,_ZN7testing8internal11TuplePrefixILm2EE7MatchesISt5tupleIJNS_7MatcherIhEENS5_IiEEEES4_IJhiEEEEbRKT_RKT0_
FNDA:0,_ZN7testing8internal11TuplePrefixILm2EE7MatchesISt5tupleIJNS_7MatcherIhEENS5_IiEEEES4_IJhiEEEEbRKT_RKT0_
FN:367,_ZN7testing8internal11TuplePrefixILm1EE7MatchesISt5tupleIJNS_7MatcherIhEEEES4_IJhEEEEbRKT_RKT0_
FNDA:0,_ZN7testing8internal11TuplePrefixILm1EE7MatchesISt5tupleIJNS_7MatcherIhEEEES4_IJhEEEEbRKT_RKT0_
FN:367,_ZN7testing8internal11TuplePrefixILm2EE7MatchesISt5tupleIJNS_7MatcherIPKhEENS5_ImEEEES4_IJS7_mEEEEbRKT_RKT0_
FNDA:5,_ZN7testing8internal11TuplePrefixILm2EE7MatchesISt5tupleIJNS_7MatcherIPKhEENS5_ImEEEES4_IJS7_mEEEEbRKT_RKT0_
FN:367,_ZN7testing8internal11TuplePrefixILm1EE7MatchesISt5tupleIJNS_7MatcherImEEEES4_IJmEEEEbRKT_RKT0_
FNDA:0,_ZN7testing8internal11TuplePrefixILm1EE7MatchesISt5tupleIJNS_7MatcherImEEEES4_IJmEEEEbRKT_RKT0_
FN:367,_ZN7testing8internal11TuplePrefixILm1EE7MatchesISt5tupleIJNS_7MatcherIhEENS5_IiEEEES4_IJhiEEEEbRKT_RKT0_
FNDA:0,_ZN7testing8internal11TuplePrefixILm1EE7MatchesISt5tupleIJNS_7MatcherIhEENS5_IiEEEES4_IJhiEEEEbRKT_RKT0_
FN:367,_ZN7testing8internal11TuplePrefixILm1EE7MatchesISt5tupleIJNS_7MatcherIhEES6_EES4_IJhhEEEEbRKT_RKT0_
FNDA:414,_ZN7testing8internal11TuplePrefixILm1EE7MatchesISt5tupleIJNS_7MatcherIhEES6_EES4_IJhhEEEEbRKT_RKT0_
FN:367,_ZN7testing8internal11TuplePrefixILm1EE7MatchesISt5tupleIJNS_7MatcherIPKhEENS5_ImEEEES4_IJS7_mEEEEbRKT_RKT0_
FNDA:5,_ZN7testing8internal11TuplePrefixILm1EE7MatchesISt5tupleIJNS_7MatcherIPKhEENS5_ImEEEES4_IJS7_mEEEEbRKT_RKT0_
FN:378,_ZN7testing8internal11TuplePrefixILm1EE22ExplainMatchFailuresToISt5tupleIJNS_7MatcherIhEES6_EES4_IJhhEEEEvRKT_RKT0_PSo
FNDA:0,_ZN7testing8internal11TuplePrefixILm1EE22ExplainMatchFailuresToISt5tupleIJNS_7MatcherIhEES6_EES4_IJhhEEEEvRKT_RKT0_PSo
FN:378,_ZN7testing8internal11TuplePrefixILm1EE22ExplainMatchFailuresToISt5tupleIJNS_7MatcherIhEENS5_IiEEEES4_IJhiEEEEvRKT_RKT0_PSo
FNDA:0,_ZN7testing8internal11TuplePrefixILm1EE22ExplainMatchFailuresToISt5tupleIJNS_7MatcherIhEENS5_IiEEEES4_IJhiEEEEvRKT_RKT0_PSo
FN:378,_ZN7testing8internal11TuplePrefixILm1EE22ExplainMatchFailuresToISt5tupleIJNS_7MatcherIPKhEENS5_ImEEEES4_IJS7_mEEEEvRKT_RKT0_PSo
FNDA:0,_ZN7testing8internal11TuplePrefixILm1EE22ExplainMatchFailuresToISt5tupleIJNS_7MatcherIPKhEENS5_ImEEEES4_IJS7_mEEEEvRKT_RKT0_PSo
FN:378,_ZN7testing8internal11TuplePrefixILm1EE22ExplainMatchFailuresToISt5tupleIJNS_7MatcherImEEEES4_IJmEEEEvRKT_RKT0_PSo
FNDA:0,_ZN7testing8internal11TuplePrefixILm1EE22ExplainMatchFailuresToISt5tupleIJNS_7MatcherImEEEES4_IJmEEEEvRKT_RKT0_PSo
FN:378,_ZN7testing8internal11TuplePrefixILm2EE22ExplainMatchFailuresToISt5tupleIJNS_7MatcherIPKhEENS5_ImEEEES4_IJS7_mEEEEvRKT_RKT0_PSo
FNDA:0,_ZN7testing8internal11TuplePrefixILm2EE22ExplainMatchFailuresToISt5tupleIJNS_7MatcherIPKhEENS5_ImEEEES4_IJS7_mEEEEvRKT_RKT0_PSo
FN:378,_ZN7testing8internal11TuplePrefixILm2EE22ExplainMatchFailuresToISt5tupleIJNS_7MatcherIhEENS5_IiEEEES4_IJhiEEEEvRKT_RKT0_PSo
FNDA:0,_ZN7testing8internal11TuplePrefixILm2EE22ExplainMatchFailuresToISt5tupleIJNS_7MatcherIhEENS5_IiEEEES4_IJhiEEEEvRKT_RKT0_PSo
FN:378,_ZN7testing8internal11TuplePrefixILm2EE22ExplainMatchFailuresToISt5tupleIJNS_7MatcherIhEES6_EES4_IJhhEEEEvRKT_RKT0_PSo
FNDA:0,_ZN7testing8internal11TuplePrefixILm2EE22ExplainMatchFailuresToISt5tupleIJNS_7MatcherIhEES6_EES4_IJhhEEEEvRKT_RKT0_PSo
FN:378,_ZN7testing8internal11TuplePrefixILm1EE22ExplainMatchFailuresToISt5tupleIJNS_7MatcherIhEEEES4_IJhEEEEvRKT_RKT0_PSo
FNDA:0,_ZN7testing8internal11TuplePrefixILm1EE22ExplainMatchFailuresToISt5tupleIJNS_7MatcherIhEEEES4_IJhEEEEvRKT_RKT0_PSo
FN:412,_ZN7testing8internal11TuplePrefixILm0EE7MatchesISt5tupleIJNS_7MatcherIPKhEENS5_ImEEEES4_IJS7_mEEEEbRKT_RKT0_
FNDA:5,_ZN7testing8internal11TuplePrefixILm0EE7MatchesISt5tupleIJNS_7MatcherIPKhEENS5_ImEEEES4_IJS7_mEEEEbRKT_RKT0_
FN:412,_ZN7testing8internal11TuplePrefixILm0EE7MatchesISt5tupleIJNS_7MatcherIhEES6_EES4_IJhhEEEEbRKT_RKT0_
FNDA:414,_ZN7testing8internal11TuplePrefixILm0EE7MatchesISt5tupleIJNS_7MatcherIhEES6_EES4_IJhhEEEEbRKT_RKT0_
FN:412,_ZN7testing8internal11TuplePrefixILm0EE7MatchesISt5tupleIJEES5_EEbRKT_RKT0_
FNDA:0,_ZN7testing8internal11TuplePrefixILm0EE7MatchesISt5tupleIJEES5_EEbRKT_RKT0_
FN:412,_ZN7testing8internal11TuplePrefixILm0EE7MatchesISt5tupleIJNS_7MatcherIhEENS5_IiEEEES4_IJhiEEEEbRKT_RKT0_
FNDA:0,_ZN7testing8internal11TuplePrefixILm0EE7MatchesISt5tupleIJNS_7MatcherIhEENS5_IiEEEES4_IJhiEEEEbRKT_RKT0_
FN:412,_ZN7testing8internal11TuplePrefixILm0EE7MatchesISt5tupleIJNS_7MatcherIhEEEES4_IJhEEEEbRKT_RKT0_
FNDA:0,_ZN7testing8internal11TuplePrefixILm0EE7MatchesISt5tupleIJNS_7MatcherIhEEEES4_IJhEEEEbRKT_RKT0_
FN:412,_ZN7testing8internal11TuplePrefixILm0EE7MatchesISt5tupleIJNS_7MatcherImEEEES4_IJmEEEEbRKT_RKT0_
FNDA:0,_ZN7testing8internal11TuplePrefixILm0EE7MatchesISt5tupleIJNS_7MatcherImEEEES4_IJmEEEEbRKT_RKT0_
FN:418,_ZN7testing8internal11TuplePrefixILm0EE22ExplainMatchFailuresToISt5tupleIJNS_7MatcherImEEEES4_IJmEEEEvRKT_RKT0_PSo
FNDA:0,_ZN7testing8internal11TuplePrefixILm0EE22ExplainMatchFailuresToISt5tupleIJNS_7MatcherImEEEES4_IJmEEEEvRKT_RKT0_PSo
FN:418,_ZN7testing8internal11TuplePrefixILm0EE22ExplainMatchFailuresToISt5tupleIJNS_7MatcherIhEEEES4_IJhEEEEvRKT_RKT0_PSo
FNDA:0,_ZN7testing8internal11TuplePrefixILm0EE22ExplainMatchFailuresToISt5tupleIJNS_7MatcherIhEEEES4_IJhEEEEvRKT_RKT0_PSo
FN:418,_ZN7testing8internal11TuplePrefixILm0EE22ExplainMatchFailuresToISt5tupleIJNS_7MatcherIhEES6_EES4_IJhhEEEEvRKT_RKT0_PSo
FNDA:0,_ZN7testing8internal11TuplePrefixILm0EE22ExplainMatchFailuresToISt5tupleIJNS_7MatcherIhEES6_EES4_IJhhEEEEvRKT_RKT0_PSo
FN:418,_ZN7testing8internal11TuplePrefixILm0EE22ExplainMatchFailuresToISt5tupleIJEES5_EEvRKT_RKT0_PSo
FNDA:0,_ZN7testing8internal11TuplePrefixILm0EE22ExplainMatchFailuresToISt5tupleIJEES5_EEvRKT_RKT0_PSo
FN:418,_ZN7testing8internal11TuplePrefixILm0EE22ExplainMatchFailuresToISt5tupleIJNS_7MatcherIhEENS5_IiEEEES4_IJhiEEEEvRKT_RKT0_PSo
FNDA:0,_ZN7testing8internal11TuplePrefixILm0EE22ExplainMatchFailuresToISt5tupleIJNS_7MatcherIhEENS5_IiEEEES4_IJhiEEEEvRKT_RKT0_PSo
FN:418,_ZN7testing8internal11TuplePrefixILm0EE22ExplainMatchFailuresToISt5tupleIJNS_7MatcherIPKhEENS5_ImEEEES4_IJS7_mEEEEvRKT_RKT0_PSo
FNDA:0,_ZN7testing8internal11TuplePrefixILm0EE22ExplainMatchFailuresToISt5tupleIJNS_7MatcherIPKhEENS5_ImEEEES4_IJS7_mEEEEvRKT_RKT0_PSo
FN:429,_ZN7testing8internal12TupleMatchesISt5tupleIJNS_7MatcherImEEEES2_IJmEEEEbRKT_RKT0_
FNDA:0,_ZN7testing8internal12TupleMatchesISt5tupleIJNS_7MatcherImEEEES2_IJmEEEEbRKT_RKT0_
FN:429,_ZN7testing8internal12TupleMatchesISt5tupleIJNS_7MatcherIPKhEENS3_ImEEEES2_IJS5_mEEEEbRKT_RKT0_
FNDA:5,_ZN7testing8internal12TupleMatchesISt5tupleIJNS_7MatcherIPKhEENS3_ImEEEES2_IJS5_mEEEEbRKT_RKT0_
FN:429,_ZN7testing8internal12TupleMatchesISt5tupleIJNS_7MatcherIhEES4_EES2_IJhhEEEEbRKT_RKT0_
FNDA:414,_ZN7testing8internal12TupleMatchesISt5tupleIJNS_7MatcherIhEES4_EES2_IJhhEEEEbRKT_RKT0_
FN:429,_ZN7testing8internal12TupleMatchesISt5tupleIJNS_7MatcherIhEEEES2_IJhEEEEbRKT_RKT0_
FNDA:0,_ZN7testing8internal12TupleMatchesISt5tupleIJNS_7MatcherIhEEEES2_IJhEEEEbRKT_RKT0_
FN:429,_ZN7testing8internal12TupleMatchesISt5tupleIJNS_7MatcherIhEENS3_IiEEEES2_IJhiEEEEbRKT_RKT0_
FNDA:0,_ZN7testing8internal12TupleMatchesISt5tupleIJNS_7MatcherIhEENS3_IiEEEES2_IJhiEEEEbRKT_RKT0_
FN:429,_ZN7testing8internal12TupleMatchesISt5tupleIJEES3_EEbRKT_RKT0_
FNDA:0,_ZN7testing8internal12TupleMatchesISt5tupleIJEES3_EEbRKT_RKT0_
FN:443,_ZN7testing8internal26ExplainMatchFailureTupleToISt5tupleIJNS_7MatcherImEEEES2_IJmEEEEvRKT_RKT0_PSo
FNDA:0,_ZN7testing8internal26ExplainMatchFailureTupleToISt5tupleIJNS_7MatcherImEEEES2_IJmEEEEvRKT_RKT0_PSo
FN:443,_ZN7testing8internal26ExplainMatchFailureTupleToISt5tupleIJNS_7MatcherIPKhEENS3_ImEEEES2_IJS5_mEEEEvRKT_RKT0_PSo
FNDA:0,_ZN7testing8internal26ExplainMatchFailureTupleToISt5tupleIJNS_7MatcherIPKhEENS3_ImEEEES2_IJS5_mEEEEvRKT_RKT0_PSo
FN:443,_ZN7testing8internal26ExplainMatchFailureTupleToISt5tupleIJNS_7MatcherIhEES4_EES2_IJhhEEEEvRKT_RKT0_PSo
FNDA:0,_ZN7testing8internal26ExplainMatchFailureTupleToISt5tupleIJNS_7MatcherIhEES4_EES2_IJhhEEEEvRKT_RKT0_PSo
FN:443,_ZN7testing8internal26ExplainMatchFailureTupleToISt5tupleIJNS_7MatcherIhEEEES2_IJhEEEEvRKT_RKT0_PSo
FNDA:0,_ZN7testing8internal26ExplainMatchFailureTupleToISt5tupleIJNS_7MatcherIhEEEES2_IJhEEEEvRKT_RKT0_PSo
FN:443,_ZN7testing8internal26ExplainMatchFailureTupleToISt5tupleIJNS_7MatcherIhEENS3_IiEEEES2_IJhiEEEEvRKT_RKT0_PSo
FNDA:0,_ZN7testing8internal26ExplainMatchFailureTupleToISt5tupleIJNS_7MatcherIhEENS3_IiEEEES2_IJhiEEEEvRKT_RKT0_PSo
FN:443,_ZN7testing8internal26ExplainMatchFailureTupleToISt5tupleIJEES3_EEvRKT_RKT0_PSo
FNDA:0,_ZN7testing8internal26ExplainMatchFailureTupleToISt5tupleIJEES3_EEvRKT_RKT0_PSo
DA:90,0
DA:93,0
DA:313,0
DA:315,0
DA:316,0
DA:318,0
DA:367,5
DA:369,10
DA:370,10
DA:367,414
DA:369,828
DA:370,828
DA:367,0
DA:369,0
DA:370,0
DA:367,0
DA:369,0
DA:370,0
DA:367,5
DA:369,10
DA:370,10
DA:367,414
DA:369,607
DA:370,607
DA:367,0
DA:369,0
DA:370,0
DA:367,0
DA:369,0
DA:370,0
DA:378,0
DA:382,0
DA:386,0
DA:387,0
DA:389,0
DA:390,0
DA:391,0
DA:392,0
DA:393,0
DA:394,0
DA:400,0
DA:401,0
DA:402,0
DA:404,0
DA:378,0
DA:382,0
DA:386,0
DA:387,0
DA:389,0
DA:390,0
DA:391,0
DA:392,0
DA:393,0
DA:394,0
DA:400,0
DA:401,0
DA:402,0
DA:404,0
DA:378,0
DA:382,0
DA:386,0
DA:387,0
DA:389,0
DA:390,0
DA:391,0
DA:392,0
DA:393,0
DA:394,0
DA:400,0
DA:401,0
DA:402,0
DA:404,0
DA:378,0
DA:382,0
DA:386,0
DA:387,0
DA:389,0
DA:390,0
DA:391,0
DA:392,0
DA:393,0
DA:394,0
DA:400,0
DA:401,0
DA:402,0
DA:404,0
DA:378,0
DA:382,0
DA:386,0
DA:387,0
DA:389,0
DA:390,0
DA:391,0
DA:392,0
DA:393,0
DA:394,0
DA:400,0
DA:401,0
DA:402,0
DA:404,0
DA:378,0
DA:382,0
DA:386,0
DA:387,0
DA:389,0
DA:390,0
DA:391,0
DA:392,0
DA:393,0
DA:394,0
DA:400,0
DA:401,0
DA:402,0
DA:404,0
DA:378,0
DA:382,0
DA:386,0
DA:387,0
DA:389,0
DA:390,0
DA:391,0
DA:392,0
DA:393,0
DA:394,0
DA:400,0
DA:401,0
DA:402,0
DA:404,0
DA:378,0
DA:382,0
DA:386,0
DA:387,0
DA:389,0
DA:390,0
DA:391,0
DA:392,0
DA:393,0
DA:394,0
DA:400,0
DA:401,0
DA:402,0
DA:404,0
DA:412,5
DA:414,5
DA:412,414
DA:414,414
DA:412,0
DA:414,0
DA:412,0
DA:414,0
DA:412,0
DA:414,0
DA:412,0
DA:414,0
DA:418,0
DA:420,0
DA:418,0
DA:420,0
DA:418,0
DA:420,0
DA:418,0
DA:420,0
DA:418,0
DA:420,0
DA:418,0
DA:420,0
DA:429,0
DA:436,0
DA:437,0
DA:429,5
DA:436,5
DA:437,5
DA:429,414
DA:436,414
DA:437,414
DA:429,0
DA:436,0
DA:437,0
DA:429,0
DA:436,0
DA:437,0
DA:429,0
DA:436,0
DA:437,0
DA:443,0
DA:446,0
DA:448,0
DA:443,0
DA:446,0
DA:448,0
DA:443,0
DA:446,0
DA:448,0
DA:443,0
DA:446,0
DA:448,0
DA:443,0
DA:446,0
DA:448,0
DA:443,0
DA:446,0
DA:448,0
end_of_record
SF:/usr/include/c++/9/iostream
end_of_record
SF:/usr/include/c++/9/ext/atomicity.h
FN:48,_ZN9__gnu_cxxL18__exchange_and_addEPVii
FNDA:0,_ZN9__gnu_cxxL18__exchange_and_addEPVii
FN:52,_ZN9__gnu_cxxL12__atomic_addEPVii
FNDA:0,_ZN9__gnu_cxxL12__atomic_addEPVii
FN:65,_ZN9__gnu_cxxL25__exchange_and_add_singleEPii
FNDA:0,_ZN9__gnu_cxxL25__exchange_and_add_singleEPii
FN:73,_ZN9__gnu_cxxL19__atomic_add_singleEPii
FNDA:0,_ZN9__gnu_cxxL19__atomic_add_singleEPii
FN:78,_ZN9__gnu_cxxL27__exchange_and_add_dispatchEPii
FNDA:0,_ZN9__gnu_cxxL27__exchange_and_add_dispatchEPii
FN:92,_ZN9__gnu_cxxL21__atomic_add_dispatchEPii
FNDA:0,_ZN9__gnu_cxxL21__atomic_add_dispatchEPii
DA:48,0
DA:49,0
DA:52,0
DA:53,0
DA:65,0
DA:67,0
DA:68,0
DA:69,0
DA:73,0
DA:74,0
DA:78,0
DA:81,0
DA:82,0
DA:84,0
DA:92,0
DA:95,0
DA:96,0
DA:98,0
DA:102,0
end_of_record
SF:/usr/include/c++/9/ext/alloc_traits.h
FN:97,_ZN9__gnu_cxx14__alloc_traitsISaIcEcE17_S_select_on_copyERKS1_
FNDA:0,_ZN9__gnu_cxx14__alloc_traitsISaIcEcE17_S_select_on_copyERKS1_
FN:100,_ZN9__gnu_cxx14__alloc_traitsISaIPKvES2_E10_S_on_swapERS3_S5_
FNDA:0,_ZN9__gnu_cxx14__alloc_traitsISaIPKvES2_E10_S_on_swapERS3_S5_
DA:97,0
DA:98,0
DA:100,0
DA:101,0
end_of_record
SF:/usr/include/c++/9/bits/basic_string.tcc
FN:206,_ZNSt7__cxx1112basic_stringIcSt11char_traitsIcESaIcEE12_M_constructIPcEEvT_S7_St20forward_iterator_tag
FNDA:0,_ZNSt7__cxx1112basic_stringIcSt11char_traitsIcESaIcEE12_M_constructIPcEEvT_S7_St20forward_iterator_tag
FN:206,_ZNSt7__cxx1112basic_stringIcSt11char_traitsIcESaIcEE12_M_constructIPKcEEvT_S8_St20forward_iterator_tag
FNDA:0,_ZNSt7__cxx1112basic_stringIcSt11char_traitsIcESaIcEE12_M_constructIPKcEEvT_S8_St20forward_iterator_tag
DA:206,0
DA:211,0
DA:212,0
DA:215,0
DA:217,0
DA:219,0
DA:220,0
DA:225,0
DA:226,0
DA:228,0
DA:229,0
DA:232,0
DA:233,0
DA:206,0
DA:211,0
DA:212,0
DA:215,0
DA:217,0
DA:219,0
DA:220,0
DA:225,0
DA:226,0
DA:228,0
DA:229,0
DA:232,0
DA:233,0
end_of_record
SF:/usr/include/c++/9/bits/shared_ptr.h
FN:129,_ZNSt10shared_ptrIKN7testing16MatcherInterfaceIRKiEEEC2ERKS6_
FNDA:0,_ZNSt10shared_ptrIKN7testing16MatcherInterfaceIRKiEEEC2ERKS6_
FN:129,_ZNSt10shared_ptrIKN7testing16MatcherInterfaceIRKPKhEEEC2ERKS8_
FNDA:0,_ZNSt10shared_ptrIKN7testing16MatcherInterfaceIRKPKhEEEC2ERKS8_
FN:129,_ZNSt10shared_ptrIKN7testing16MatcherInterfaceIRKhEEEC2ERKS6_
FNDA:0,_ZNSt10shared_ptrIKN7testing16MatcherInterfaceIRKhEEEC2ERKS6_
FN:129,_ZNSt10shared_ptrIKN7testing16MatcherInterfaceIRKmEEEC2ERKS6_
FNDA:0,_ZNSt10shared_ptrIKN7testing16MatcherInterfaceIRKmEEEC2ERKS6_
DA:129,0
DA:129,0
DA:129,0
DA:129,0
end_of_record
SF:/usr/include/x86_64-linux-gnu/c++/9/bits/gthr-default.h
FN:248,_ZL18__gthread_active_pv
FNDA:0,_ZL18__gthread_active_pv
DA:248,0
DA:252,0
end_of_record
SF:/usr/include/c++/9/bits/allocator.h
FN:138,_ZNSaIPKvEC2Ev
FNDA:0,_ZNSaIPKvEC2Ev
FN:138,_ZNSaISt13_Rb_tree_nodeIN7testing11ExpectationEEEC2Ev
FNDA:0,_ZNSaISt13_Rb_tree_nodeIN7testing11ExpectationEEEC2Ev
FN:153,_ZNSaIPKvED2Ev
FNDA:0,_ZNSaIPKvED2Ev
FN:153,_ZNSaISt13_Rb_tree_nodeIN7testing11ExpectationEEED2Ev
FNDA:0,_ZNSaISt13_Rb_tree_nodeIN7testing11ExpectationEEED2Ev
DA:138,0
DA:138,0
DA:153,0
DA:153,0
end_of_record
SF:/usr/include/c++/9/tuple
FN:132,_ZNSt10_Head_baseILm0EmLb0EEC2ImEEOT_
FNDA:0,_ZNSt10_Head_baseILm0EmLb0EEC2ImEEOT_
FN:132,_ZNSt10_Head_baseILm0EhLb0EEC2IhEEOT_
FNDA:0,_ZNSt10_Head_baseILm0EhLb0EEC2IhEEOT_
FN:132,_ZNSt10_Head_baseILm1EmLb0EEC2ImEEOT_
FNDA:0,_ZNSt10_Head_baseILm1EmLb0EEC2ImEEOT_
FN:132,_ZNSt10_Head_baseILm1EhLb0EEC2IhEEOT_
FNDA:0,_ZNSt10_Head_baseILm1EhLb0EEC2IhEEOT_
FN:132,_ZNSt10_Head_baseILm1EiLb0EEC2IiEEOT_
FNDA:0,_ZNSt10_Head_baseILm1EiLb0EEC2IiEEOT_
FN:132,_ZNSt10_Head_baseILm0EPKhLb0EEC2IS1_EEOT_
FNDA:0,_ZNSt10_Head_baseILm0EPKhLb0EEC2IS1_EEOT_
FN:160,_ZNSt10_Head_baseILm0EmLb0EE7_M_headERS0_
FNDA:0,_ZNSt10_Head_baseILm0EmLb0EE7_M_headERS0_
FN:160,_ZNSt10_Head_baseILm1EmLb0EE7_M_headERS0_
FNDA:0,_ZNSt10_Head_baseILm1EmLb0EE7_M_headERS0_
FN:160,_ZNSt10_Head_baseILm1EhLb0EE7_M_headERS0_
FNDA:0,_ZNSt10_Head_baseILm1EhLb0EE7_M_headERS0_
FN:160,_ZNSt10_Head_baseILm1EiLb0EE7_M_headERS0_
FNDA:0,_ZNSt10_Head_baseILm1EiLb0EE7_M_headERS0_
FN:160,_ZNSt10_Head_baseILm0EPKhLb0EE7_M_headERS2_
FNDA:0,_ZNSt10_Head_baseILm0EPKhLb0EE7_M_headERS2_
FN:160,_ZNSt10_Head_baseILm0EhLb0EE7_M_headERS0_
FNDA:0,_ZNSt10_Head_baseILm0EhLb0EE7_M_headERS0_
FN:163,_ZNSt10_Head_baseILm0EN7testing7MatcherImEELb0EE7_M_headERKS3_
FNDA:0,_ZNSt10_Head_baseILm0EN7testing7MatcherImEELb0EE7_M_headERKS3_
FN:163,_ZNSt10_Head_baseILm1EiLb0EE7_M_headERKS0_
FNDA:0,_ZNSt10_Head_baseILm1EiLb0EE7_M_headERKS0_
FN:163,_ZNSt10_Head_baseILm0EhLb0EE7_M_headERKS0_
FNDA:0,_ZNSt10_Head_baseILm0EhLb0EE7_M_headERKS0_
FN:163,_ZNSt10_Head_baseILm1EhLb0EE7_M_headERKS0_
FNDA:0,_ZNSt10_Head_baseILm1EhLb0EE7_M_headERKS0_
FN:163,_ZNSt10_Head_baseILm1EmLb0EE7_M_headERKS0_
FNDA:0,_ZNSt10_Head_baseILm1EmLb0EE7_M_headERKS0_
FN:163,_ZNSt10_Head_baseILm0EmLb0EE7_M_headERKS0_
FNDA:0,_ZNSt10_Head_baseILm0EmLb0EE7_M_headERKS0_
FN:163,_ZNSt10_Head_baseILm0EPKhLb0EE7_M_headERKS2_
FNDA:0,_ZNSt10_Head_baseILm0EPKhLb0EE7_M_headERKS2_
FN:163,_ZNSt10_Head_baseILm0EN7testing7MatcherIPKhEELb0EE7_M_headERKS5_
FNDA:0,_ZNSt10_Head_baseILm0EN7testing7MatcherIPKhEELb0EE7_M_headERKS5_
FN:163,_ZNSt10_Head_baseILm1EN7testing7MatcherImEELb0EE7_M_headERKS3_
FNDA:0,_ZNSt10_Head_baseILm1EN7testing7MatcherImEELb0EE7_M_headERKS3_
FN:163,_ZNSt10_Head_baseILm1EN7testing7MatcherIhEELb0EE7_M_headERKS3_
FNDA:0,_ZNSt10_Head_baseILm1EN7testing7MatcherIhEELb0EE7_M_headERKS3_
FN:163,_ZNSt10_Head_baseILm0EN7testing7MatcherIhEELb0EE7_M_headERKS3_
FNDA:0,_ZNSt10_Head_baseILm0EN7testing7MatcherIhEELb0EE7_M_headERKS3_
FN:163,_ZNSt10_Head_baseILm1EN7testing7MatcherIiEELb0EE7_M_headERKS3_
FNDA:0,_ZNSt10_Head_baseILm1EN7testing7MatcherIiEELb0EE7_M_headERKS3_
FN:195,_ZNSt11_Tuple_implILm0EJPKhmEE7_M_headERS2_
FNDA:0,_ZNSt11_Tuple_implILm0EJPKhmEE7_M_headERS2_
FN:195,_ZNSt11_Tuple_implILm0EJhhEE7_M_headERS0_
FNDA:0,_ZNSt11_Tuple_implILm0EJhhEE7_M_headERS0_
FN:195,_ZNSt11_Tuple_implILm0EJhiEE7_M_headERS0_
FNDA:0,_ZNSt11_Tuple_implILm0EJhiEE7_M_headERS0_
FN:198,_ZNSt11_Tuple_implILm0EJPKhmEE7_M_headERKS2_
FNDA:0,_ZNSt11_Tuple_implILm0EJPKhmEE7_M_headERKS2_
FN:198,_ZNSt11_Tuple_implILm0EJhiEE7_M_headERKS0_
FNDA:0,_ZNSt11_Tuple_implILm0EJhiEE7_M_headERKS0_
FN:198,_ZNSt11_Tuple_implILm0EJhhEE7_M_headERKS0_
FNDA:414,_ZNSt11_Tuple_implILm0EJhhEE7_M_headERKS0_
FN:198,_ZNSt11_Tuple_implILm0EJN7testing7MatcherIhEENS1_IiEEEE7_M_headERKS4_
FNDA:0,_ZNSt11_Tuple_implILm0EJN7testing7MatcherIhEENS1_IiEEEE7_M_headERKS4_
FN:198,_ZNSt11_Tuple_implILm0EJN7testing7MatcherIPKhEENS1_ImEEEE7_M_headERKS6_
FNDA:5,_ZNSt11_Tuple_implILm0EJN7testing7MatcherIPKhEENS1_ImEEEE7_M_headERKS6_
FN:198,_ZNSt11_Tuple_implILm0EJN7testing7MatcherIhEES2_EE7_M_headERKS3_
FNDA:414,_ZNSt11_Tuple_implILm0EJN7testing7MatcherIhEES2_EE7_M_headERKS3_
FN:201,_ZNSt11_Tuple_implILm0EJhhEE7_M_tailERS0_
FNDA:0,_ZNSt11_Tuple_implILm0EJhhEE7_M_tailERS0_
FN:201,_ZNSt11_Tuple_implILm0EJPKhmEE7_M_tailERS2_
FNDA:0,_ZNSt11_Tuple_implILm0EJPKhmEE7_M_tailERS2_
FN:201,_ZNSt11_Tuple_implILm0EJhiEE7_M_tailERS0_
FNDA:0,_ZNSt11_Tuple_implILm0EJhiEE7_M_tailERS0_
FN:227,_ZNSt11_Tuple_implILm0EJPKhmEEC2EOS2_
FNDA:0,_ZNSt11_Tuple_implILm0EJPKhmEEC2EOS2_
FN:227,_ZNSt11_Tuple_implILm0EJhhEEC2EOS0_
FNDA:0,_ZNSt11_Tuple_implILm0EJhhEEC2EOS0_
FN:227,_ZNSt11_Tuple_implILm0EJhiEEC2EOS0_
FNDA:0,_ZNSt11_Tuple_implILm0EJhiEEC2EOS0_
FN:334,_ZNSt11_Tuple_implILm0EJmEE7_M_headERS0_
FNDA:0,_ZNSt11_Tuple_implILm0EJmEE7_M_headERS0_
FN:334,_ZNSt11_Tuple_implILm1EJiEE7_M_headERS0_
FNDA:0,_ZNSt11_Tuple_implILm1EJiEE7_M_headERS0_
FN:334,_ZNSt11_Tuple_implILm1EJhEE7_M_headERS0_
FNDA:0,_ZNSt11_Tuple_implILm1EJhEE7_M_headERS0_
FN:334,_ZNSt11_Tuple_implILm1EJmEE7_M_headERS0_
FNDA:0,_ZNSt11_Tuple_implILm1EJmEE7_M_headERS0_
FN:334,_ZNSt11_Tuple_implILm0EJhEE7_M_headERS0_
FNDA:0,_ZNSt11_Tuple_implILm0EJhEE7_M_headERS0_
FN:337,_ZNSt11_Tuple_implILm0EJmEE7_M_headERKS0_
FNDA:0,_ZNSt11_Tuple_implILm0EJmEE7_M_headERKS0_
FN:337,_ZNSt11_Tuple_implILm1EJmEE7_M_headERKS0_
FNDA:0,_ZNSt11_Tuple_implILm1EJmEE7_M_headERKS0_
FN:337,_ZNSt11_Tuple_implILm1EJN7testing7MatcherIiEEEE7_M_headERKS3_
FNDA:0,_ZNSt11_Tuple_implILm1EJN7testing7MatcherIiEEEE7_M_headERKS3_
FN:337,_ZNSt11_Tuple_implILm0EJN7testing7MatcherIhEEEE7_M_headERKS3_
FNDA:0,_ZNSt11_Tuple_implILm0EJN7testing7MatcherIhEEEE7_M_headERKS3_
FN:337,_ZNSt11_Tuple_implILm1EJN7testing7MatcherIhEEEE7_M_headERKS3_
FNDA:0,_ZNSt11_Tuple_implILm1EJN7testing7MatcherIhEEEE7_M_headERKS3_
FN:337,_ZNSt11_Tuple_implILm0EJhEE7_M_headERKS0_
FNDA:0,_ZNSt11_Tuple_implILm0EJhEE7_M_headERKS0_
FN:337,_ZNSt11_Tuple_implILm1EJiEE7_M_headERKS0_
FNDA:0,_ZNSt11_Tuple_implILm1EJiEE7_M_headERKS0_
FN:337,_ZNSt11_Tuple_implILm1EJN7testing7MatcherImEEEE7_M_headERKS3_
FNDA:0,_ZNSt11_Tuple_implILm1EJN7testing7MatcherImEEEE7_M_headERKS3_
FN:337,_ZNSt11_Tuple_implILm0EJN7testing7MatcherImEEEE7_M_headERKS3_
FNDA:0,_ZNSt11_Tuple_implILm0EJN7testing7MatcherImEEEE7_M_headERKS3_
FN:337,_ZNSt11_Tuple_implILm1EJhEE7_M_headERKS0_
FNDA:0,_ZNSt11_Tuple_implILm1EJhEE7_M_headERKS0_
FN:358,_ZNSt11_Tuple_implILm1EJiEEC2EOS0_
FNDA:0,_ZNSt11_Tuple_implILm1EJiEEC2EOS0_
FN:358,_ZNSt11_Tuple_implILm0EJmEEC2EOS0_
FNDA:0,_ZNSt11_Tuple_implILm0EJmEEC2EOS0_
FN:358,_ZNSt11_Tuple_implILm1EJhEEC2EOS0_
FNDA:0,_ZNSt11_Tuple_implILm1EJhEEC2EOS0_
FN:358,_ZNSt11_Tuple_implILm0EJhEEC2EOS0_
FNDA:0,_ZNSt11_Tuple_implILm0EJhEEC2EOS0_
FN:358,_ZNSt11_Tuple_implILm1EJmEEC2EOS0_
FNDA:0,_ZNSt11_Tuple_implILm1EJmEEC2EOS0_
FN:642,_ZNSt5tupleIJmEEC2EOS0_
FNDA:0,_ZNSt5tupleIJmEEC2EOS0_
FN:642,_ZNSt5tupleIJhEEC2EOS0_
FNDA:0,_ZNSt5tupleIJhEEC2EOS0_
FN:983,_ZNSt5tupleIJhhEEC2EOS0_
FNDA:0,_ZNSt5tupleIJhhEEC2EOS0_
FN:983,_ZNSt5tupleIJPKhmEEC2EOS2_
FNDA:0,_ZNSt5tupleIJPKhmEEC2EOS2_
FN:983,_ZNSt5tupleIJhiEEC2EOS0_
FNDA:0,_ZNSt5tupleIJhiEEC2EOS0_
FN:1309,_ZSt12__get_helperILm1EhJEERT0_RSt11_Tuple_implIXT_EJS0_DpT1_EE
FNDA:0,_ZSt12__get_helperILm1EhJEERT0_RSt11_Tuple_implIXT_EJS0_DpT1_EE
FN:1309,_ZSt12__get_helperILm0EhJiEERT0_RSt11_Tuple_implIXT_EJS0_DpT1_EE
FNDA:0,_ZSt12__get_helperILm0EhJiEERT0_RSt11_Tuple_implIXT_EJS0_DpT1_EE
FN:1309,_ZSt12__get_helperILm1EiJEERT0_RSt11_Tuple_implIXT_EJS0_DpT1_EE
FNDA:0,_ZSt12__get_helperILm1EiJEERT0_RSt11_Tuple_implIXT_EJS0_DpT1_EE
FN:1309,_ZSt12__get_helperILm0EhJEERT0_RSt11_Tuple_implIXT_EJS0_DpT1_EE
FNDA:0,_ZSt12__get_helperILm0EhJEERT0_RSt11_Tuple_implIXT_EJS0_DpT1_EE
FN:1309,_ZSt12__get_helperILm0EhJhEERT0_RSt11_Tuple_implIXT_EJS0_DpT1_EE
FNDA:0,_ZSt12__get_helperILm0EhJhEERT0_RSt11_Tuple_implIXT_EJS0_DpT1_EE
FN:1309,_ZSt12__get_helperILm1EmJEERT0_RSt11_Tuple_implIXT_EJS0_DpT1_EE
FNDA:0,_ZSt12__get_helperILm1EmJEERT0_RSt11_Tuple_implIXT_EJS0_DpT1_EE
FN:1309,_ZSt12__get_helperILm0EPKhJmEERT0_RSt11_Tuple_implIXT_EJS2_DpT1_EE
FNDA:0,_ZSt12__get_helperILm0EPKhJmEERT0_RSt11_Tuple_implIXT_EJS2_DpT1_EE
FN:1309,_ZSt12__get_helperILm0EmJEERT0_RSt11_Tuple_implIXT_EJS0_DpT1_EE
FNDA:0,_ZSt12__get_helperILm0EmJEERT0_RSt11_Tuple_implIXT_EJS0_DpT1_EE
FN:1314,_ZSt12__get_helperILm0EN7testing7MatcherIPKhEEJNS1_ImEEEERKT0_RKSt11_Tuple_implIXT_EJS6_DpT1_EE
FNDA:5,_ZSt12__get_helperILm0EN7testing7MatcherIPKhEEJNS1_ImEEEERKT0_RKSt11_Tuple_implIXT_EJS6_DpT1_EE
FN:1314,_ZSt12__get_helperILm0EhJhEERKT0_RKSt11_Tuple_implIXT_EJS0_DpT1_EE
FNDA:414,_ZSt12__get_helperILm0EhJhEERKT0_RKSt11_Tuple_implIXT_EJS0_DpT1_EE
FN:1314,_ZSt12__get_helperILm1EmJEERKT0_RKSt11_Tuple_implIXT_EJS0_DpT1_EE
FNDA:0,_ZSt12__get_helperILm1EmJEERKT0_RKSt11_Tuple_implIXT_EJS0_DpT1_EE
FN:1314,_ZSt12__get_helperILm1EN7testing7MatcherIiEEJEERKT0_RKSt11_Tuple_implIXT_EJS3_DpT1_EE
FNDA:0,_ZSt12__get_helperILm1EN7testing7MatcherIiEEJEERKT0_RKSt11_Tuple_implIXT_EJS3_DpT1_EE
FN:1314,_ZSt12__get_helperILm0EN7testing7MatcherImEEJEERKT0_RKSt11_Tuple_implIXT_EJS3_DpT1_EE
FNDA:0,_ZSt12__get_helperILm0EN7testing7MatcherImEEJEERKT0_RKSt11_Tuple_implIXT_EJS3_DpT1_EE
FN:1314,_ZSt12__get_helperILm0EhJiEERKT0_RKSt11_Tuple_implIXT_EJS0_DpT1_EE
FNDA:0,_ZSt12__get_helperILm0EhJiEERKT0_RKSt11_Tuple_implIXT_EJS0_DpT1_EE
FN:1314,_ZSt12__get_helperILm0EN7testing7MatcherIhEEJEERKT0_RKSt11_Tuple_implIXT_EJS3_DpT1_EE
FNDA:0,_ZSt12__get_helperILm0EN7testing7MatcherIhEEJEERKT0_RKSt11_Tuple_implIXT_EJS3_DpT1_EE
FN:1314,_ZSt12__get_helperILm1EiJEERKT0_RKSt11_Tuple_implIXT_EJS0_DpT1_EE
FNDA:0,_ZSt12__get_helperILm1EiJEERKT0_RKSt11_Tuple_implIXT_EJS0_DpT1_EE
FN:1314,_ZSt12__get_helperILm0EPKhJmEERKT0_RKSt11_Tuple_implIXT_EJS2_DpT1_EE
FNDA:0,_ZSt12__get_helperILm0EPKhJmEERKT0_RKSt11_Tuple_implIXT_EJS2_DpT1_EE
FN:1314,_ZSt12__get_helperILm0EmJEERKT0_RKSt11_Tuple_implIXT_EJS0_DpT1_EE
FNDA:0,_ZSt12__get_helperILm0EmJEERKT0_RKSt11_Tuple_implIXT_EJS0_DpT1_EE
FN:1314,_ZSt12__get_helperILm0EhJEERKT0_RKSt11_Tuple_implIXT_EJS0_DpT1_EE
FNDA:0,_ZSt12__get_helperILm0EhJEERKT0_RKSt11_Tuple_implIXT_EJS0_DpT1_EE
FN:1314,_ZSt12__get_helperILm1EN7testing7MatcherImEEJEERKT0_RKSt11_Tuple_implIXT_EJS3_DpT1_EE
FNDA:0,_ZSt12__get_helperILm1EN7testing7MatcherImEEJEERKT0_RKSt11_Tuple_implIXT_EJS3_DpT1_EE
FN:1314,_ZSt12__get_helperILm1EhJEERKT0_RKSt11_Tuple_implIXT_EJS0_DpT1_EE
FNDA:0,_ZSt12__get_helperILm1EhJEERKT0_RKSt11_Tuple_implIXT_EJS0_DpT1_EE
FN:1314,_ZSt12__get_helperILm0EN7testing7MatcherIhEEJS2_EERKT0_RKSt11_Tuple_implIXT_EJS3_DpT1_EE
FNDA:414,_ZSt12__get_helperILm0EN7testing7MatcherIhEEJS2_EERKT0_RKSt11_Tuple_implIXT_EJS3_DpT1_EE
FN:1314,_ZSt12__get_helperILm0EN7testing7MatcherIhEEJNS1_IiEEEERKT0_RKSt11_Tuple_implIXT_EJS4_DpT1_EE
FNDA:0,_ZSt12__get_helperILm0EN7testing7MatcherIhEEJNS1_IiEEEERKT0_RKSt11_Tuple_implIXT_EJS4_DpT1_EE
FN:1314,_ZSt12__get_helperILm1EN7testing7MatcherIhEEJEERKT0_RKSt11_Tuple_implIXT_EJS3_DpT1_EE
FNDA:0,_ZSt12__get_helperILm1EN7testing7MatcherIhEEJEERKT0_RKSt11_Tuple_implIXT_EJS3_DpT1_EE
FN:1320,_ZSt3getILm0EJmEERNSt13tuple_elementIXT_ESt5tupleIJDpT0_EEE4typeERS4_
FNDA:0,_ZSt3getILm0EJmEERNSt13tuple_elementIXT_ESt5tupleIJDpT0_EEE4typeERS4_
FN:1320,_ZSt3getILm0EJhhEERNSt13tuple_elementIXT_ESt5tupleIJDpT0_EEE4typeERS4_
FNDA:0,_ZSt3getILm0EJhhEERNSt13tuple_elementIXT_ESt5tupleIJDpT0_EEE4typeERS4_
FN:1320,_ZSt3getILm1EJPKhmEERNSt13tuple_elementIXT_ESt5tupleIJDpT0_EEE4typeERS6_
FNDA:0,_ZSt3getILm1EJPKhmEERNSt13tuple_elementIXT_ESt5tupleIJDpT0_EEE4typeERS6_
FN:1320,_ZSt3getILm0EJPKhmEERNSt13tuple_elementIXT_ESt5tupleIJDpT0_EEE4typeERS6_
FNDA:0,_ZSt3getILm0EJPKhmEERNSt13tuple_elementIXT_ESt5tupleIJDpT0_EEE4typeERS6_
FN:1320,_ZSt3getILm1EJhhEERNSt13tuple_elementIXT_ESt5tupleIJDpT0_EEE4typeERS4_
FNDA:0,_ZSt3getILm1EJhhEERNSt13tuple_elementIXT_ESt5tupleIJDpT0_EEE4typeERS4_
FN:1320,_ZSt3getILm0EJhEERNSt13tuple_elementIXT_ESt5tupleIJDpT0_EEE4typeERS4_
FNDA:0,_ZSt3getILm0EJhEERNSt13tuple_elementIXT_ESt5tupleIJDpT0_EEE4typeERS4_
FN:1320,_ZSt3getILm1EJhiEERNSt13tuple_elementIXT_ESt5tupleIJDpT0_EEE4typeERS4_
FNDA:0,_ZSt3getILm1EJhiEERNSt13tuple_elementIXT_ESt5tupleIJDpT0_EEE4typeERS4_
FN:1320,_ZSt3getILm0EJhiEERNSt13tuple_elementIXT_ESt5tupleIJDpT0_EEE4typeERS4_
FNDA:0,_ZSt3getILm0EJhiEERNSt13tuple_elementIXT_ESt5tupleIJDpT0_EEE4typeERS4_
FN:1326,_ZSt3getILm0EJN7testing7MatcherIhEENS1_IiEEEERKNSt13tuple_elementIXT_ESt5tupleIJDpT0_EEE4typeERKS8_
FNDA:0,_ZSt3getILm0EJN7testing7MatcherIhEENS1_IiEEEERKNSt13tuple_elementIXT_ESt5tupleIJDpT0_EEE4typeERKS8_
FN:1326,_ZSt3getILm0EJN7testing7MatcherIPKhEENS1_ImEEEERKNSt13tuple_elementIXT_ESt5tupleIJDpT0_EEE4typeERKSA_
FNDA:5,_ZSt3getILm0EJN7testing7MatcherIPKhEENS1_ImEEEERKNSt13tuple_elementIXT_ESt5tupleIJDpT0_EEE4typeERKSA_
FN:1326,_ZSt3getILm0EJN7testing7MatcherIhEES2_EERKNSt13tuple_elementIXT_ESt5tupleIJDpT0_EEE4typeERKS7_
FNDA:414,_ZSt3getILm0EJN7testing7MatcherIhEES2_EERKNSt13tuple_elementIXT_ESt5tupleIJDpT0_EEE4typeERKS7_
FN:1326,_ZSt3getILm0EJN7testing7MatcherIhEEEERKNSt13tuple_elementIXT_ESt5tupleIJDpT0_EEE4typeERKS7_
FNDA:0,_ZSt3getILm0EJN7testing7MatcherIhEEEERKNSt13tuple_elementIXT_ESt5tupleIJDpT0_EEE4typeERKS7_
FN:1326,_ZSt3getILm1EJN7testing7MatcherIhEENS1_IiEEEERKNSt13tuple_elementIXT_ESt5tupleIJDpT0_EEE4typeERKS8_
FNDA:0,_ZSt3getILm1EJN7testing7MatcherIhEENS1_IiEEEERKNSt13tuple_elementIXT_ESt5tupleIJDpT0_EEE4typeERKS8_
FN:1326,_ZSt3getILm0EJmEERKNSt13tuple_elementIXT_ESt5tupleIJDpT0_EEE4typeERKS4_
FNDA:0,_ZSt3getILm0EJmEERKNSt13tuple_elementIXT_ESt5tupleIJDpT0_EEE4typeERKS4_
FN:1326,_ZSt3getILm0EJhiEERKNSt13tuple_elementIXT_ESt5tupleIJDpT0_EEE4typeERKS4_
FNDA:0,_ZSt3getILm0EJhiEERKNSt13tuple_elementIXT_ESt5tupleIJDpT0_EEE4typeERKS4_
FN:1326,_ZSt3getILm1EJPKhmEERKNSt13tuple_elementIXT_ESt5tupleIJDpT0_EEE4typeERKS6_
FNDA:0,_ZSt3getILm1EJPKhmEERKNSt13tuple_elementIXT_ESt5tupleIJDpT0_EEE4typeERKS6_
FN:1326,_ZSt3getILm1EJhhEERKNSt13tuple_elementIXT_ESt5tupleIJDpT0_EEE4typeERKS4_
FNDA:193,_ZSt3getILm1EJhhEERKNSt13tuple_elementIXT_ESt5tupleIJDpT0_EEE4typeERKS4_
FN:1326,_ZSt3getILm0EJN7testing7MatcherImEEEERKNSt13tuple_elementIXT_ESt5tupleIJDpT0_EEE4typeERKS7_
FNDA:0,_ZSt3getILm0EJN7testing7MatcherImEEEERKNSt13tuple_elementIXT_ESt5tupleIJDpT0_EEE4typeERKS7_
FN:1326,_ZSt3getILm0EJhEERKNSt13tuple_elementIXT_ESt5tupleIJDpT0_EEE4typeERKS4_
FNDA:0,_ZSt3getILm0EJhEERKNSt13tuple_elementIXT_ESt5tupleIJDpT0_EEE4typeERKS4_
FN:1326,_ZSt3getILm1EJhiEERKNSt13tuple_elementIXT_ESt5tupleIJDpT0_EEE4typeERKS4_
FNDA:0,_ZSt3getILm1EJhiEERKNSt13tuple_elementIXT_ESt5tupleIJDpT0_EEE4typeERKS4_
FN:1326,_ZSt3getILm1EJN7testing7MatcherIhEES2_EERKNSt13tuple_elementIXT_ESt5tupleIJDpT0_EEE4typeERKS7_
FNDA:193,_ZSt3getILm1EJN7testing7MatcherIhEES2_EERKNSt13tuple_elementIXT_ESt5tupleIJDpT0_EEE4typeERKS7_
FN:1326,_ZSt3getILm0EJhhEERKNSt13tuple_elementIXT_ESt5tupleIJDpT0_EEE4typeERKS4_
FNDA:414,_ZSt3getILm0EJhhEERKNSt13tuple_elementIXT_ESt5tupleIJDpT0_EEE4typeERKS4_
FN:1326,_ZSt3getILm1EJN7testing7MatcherIPKhEENS1_ImEEEERKNSt13tuple_elementIXT_ESt5tupleIJDpT0_EEE4typeERKSA_
FNDA:5,_ZSt3getILm1EJN7testing7MatcherIPKhEENS1_ImEEEERKNSt13tuple_elementIXT_ESt5tupleIJDpT0_EEE4typeERKSA_
FN:1326,_ZSt3getILm0EJPKhmEERKNSt13tuple_elementIXT_ESt5tupleIJDpT0_EEE4typeERKS6_
FNDA:0,_ZSt3getILm0EJPKhmEERKNSt13tuple_elementIXT_ESt5tupleIJDpT0_EEE4typeERKS6_
FN:1332,_ZSt3getILm0EJhEEONSt13tuple_elementIXT_ESt5tupleIJDpT0_EEE4typeEOS4_
FNDA:0,_ZSt3getILm0EJhEEONSt13tuple_elementIXT_ESt5tupleIJDpT0_EEE4typeEOS4_
FN:1332,_ZSt3getILm1EJhiEEONSt13tuple_elementIXT_ESt5tupleIJDpT0_EEE4typeEOS4_
FNDA:0,_ZSt3getILm1EJhiEEONSt13tuple_elementIXT_ESt5tupleIJDpT0_EEE4typeEOS4_
FN:1332,_ZSt3getILm0EJhhEEONSt13tuple_elementIXT_ESt5tupleIJDpT0_EEE4typeEOS4_
FNDA:0,_ZSt3getILm0EJhhEEONSt13tuple_elementIXT_ESt5tupleIJDpT0_EEE4typeEOS4_
FN:1332,_ZSt3getILm1EJhhEEONSt13tuple_elementIXT_ESt5tupleIJDpT0_EEE4typeEOS4_
FNDA:0,_ZSt3getILm1EJhhEEONSt13tuple_elementIXT_ESt5tupleIJDpT0_EEE4typeEOS4_
FN:1332,_ZSt3getILm0EJhiEEONSt13tuple_elementIXT_ESt5tupleIJDpT0_EEE4typeEOS4_
FNDA:0,_ZSt3getILm0EJhiEEONSt13tuple_elementIXT_ESt5tupleIJDpT0_EEE4typeEOS4_
FN:1332,_ZSt3getILm0EJPKhmEEONSt13tuple_elementIXT_ESt5tupleIJDpT0_EEE4typeEOS6_
FNDA:0,_ZSt3getILm0EJPKhmEEONSt13tuple_elementIXT_ESt5tupleIJDpT0_EEE4typeEOS6_
FN:1332,_ZSt3getILm1EJPKhmEEONSt13tuple_elementIXT_ESt5tupleIJDpT0_EEE4typeEOS6_
FNDA:0,_ZSt3getILm1EJPKhmEEONSt13tuple_elementIXT_ESt5tupleIJDpT0_EEE4typeEOS6_
FN:1332,_ZSt3getILm0EJmEEONSt13tuple_elementIXT_ESt5tupleIJDpT0_EEE4typeEOS4_
FNDA:0,_ZSt3getILm0EJmEEONSt13tuple_elementIXT_ESt5tupleIJDpT0_EEE4typeEOS4_
DA:132,0
DA:133,0
DA:132,0
DA:133,0
DA:132,0
DA:133,0
DA:132,0
DA:133,0
DA:132,0
DA:133,0
DA:132,0
DA:133,0
DA:160,0
DA:160,0
DA:160,0
DA:160,0
DA:160,0
DA:160,0
DA:163,0
DA:163,0
DA:163,0
DA:163,0
DA:163,0
DA:163,0
DA:163,0
DA:163,0
DA:163,0
DA:163,0
DA:163,0
DA:163,0
DA:195,0
DA:195,0
DA:195,0
DA:198,5
DA:198,414
DA:198,0
DA:198,0
DA:198,414
DA:198,0
DA:201,0
DA:201,0
DA:201,0
DA:227,0
DA:230,0
DA:231,0
DA:227,0
DA:230,0
DA:231,0
DA:227,0
DA:230,0
DA:231,0
DA:334,0
DA:334,0
DA:334,0
DA:334,0
DA:334,0
DA:337,0
DA:337,0
DA:337,0
DA:337,0
DA:337,0
DA:337,0
DA:337,0
DA:337,0
DA:337,0
DA:337,0
DA:358,0
DA:360,0
DA:358,0
DA:360,0
DA:358,0
DA:360,0
DA:358,0
DA:360,0
DA:358,0
DA:360,0
DA:642,0
DA:642,0
DA:983,0
DA:983,0
DA:983,0
DA:1309,0
DA:1310,0
DA:1309,0
DA:1310,0
DA:1309,0
DA:1310,0
DA:1309,0
DA:1310,0
DA:1309,0
DA:1310,0
DA:1309,0
DA:1310,0
DA:1309,0
DA:1310,0
DA:1309,0
DA:1310,0
DA:1314,5
DA:1315,5
DA:1314,414
DA:1315,414
DA:1314,0
DA:1315,0
DA:1314,0
DA:1315,0
DA:1314,0
DA:1315,0
DA:1314,0
DA:1315,0
DA:1314,0
DA:1315,0
DA:1314,0
DA:1315,0
DA:1314,0
DA:1315,0
DA:1314,414
DA:1315,414
DA:1314,0
DA:1315,0
DA:1314,0
DA:1315,0
DA:1314,0
DA:1315,0
DA:1314,0
DA:1315,0
DA:1314,0
DA:1315,0
DA:1314,0
DA:1315,0
DA:1320,0
DA:1321,0
DA:1320,0
DA:1321,0
DA:1320,0
DA:1321,0
DA:1320,0
DA:1321,0
DA:1320,0
DA:1321,0
DA:1320,0
DA:1321,0
DA:1320,0
DA:1321,0
DA:1320,0
DA:1321,0
DA:1326,5
DA:1327,5
DA:1326,414
DA:1327,414
DA:1326,0
DA:1327,0
DA:1326,0
DA:1327,0
DA:1326,0
DA:1327,0
DA:1326,5
DA:1327,5
DA:1326,414
DA:1327,414
DA:1326,193
DA:1327,193
DA:1326,0
DA:1327,0
DA:1326,0
DA:1327,0
DA:1326,0
DA:1327,0
DA:1326,0
DA:1327,0
DA:1326,0
DA:1327,0
DA:1326,193
DA:1327,193
DA:1326,0
DA:1327,0
DA:1326,0
DA:1327,0
DA:1332,0
DA:1335,0
DA:1332,0
DA:1335,0
DA:1332,0
DA:1335,0
DA:1332,0
DA:1335,0
DA:1332,0
DA:1335,0
DA:1332,0
DA:1335,0
DA:1332,0
DA:1335,0
DA:1332,0
DA:1335,0
end_of_record
SF:/usr/include/c++/9/bits/move.h
FN:74,_ZSt7forwardIRKSt8functionIFmvEEEOT_RNSt16remove_referenceIS5_E4typeE
FNDA:378,_ZSt7forwardIRKSt8functionIFmvEEEOT_RNSt16remove_referenceIS5_E4typeE
FN:74,_ZSt7forwardImEOT_RNSt16remove_referenceIS0_E4typeE
FNDA:0,_ZSt7forwardImEOT_RNSt16remove_referenceIS0_E4typeE
FN:74,_ZSt7forwardIhEOT_RNSt16remove_referenceIS0_E4typeE
FNDA:0,_ZSt7forwardIhEOT_RNSt16remove_referenceIS0_E4typeE
FN:74,_ZSt7forwardIPKhEOT_RNSt16remove_referenceIS2_E4typeE
FNDA:0,_ZSt7forwardIPKhEOT_RNSt16remove_referenceIS2_E4typeE
FN:74,_ZSt7forwardIiEOT_RNSt16remove_referenceIS0_E4typeE
FNDA:0,_ZSt7forwardIiEOT_RNSt16remove_referenceIS0_E4typeE
FN:74,_ZSt7forwardIOmEOT_RNSt16remove_referenceIS1_E4typeE
FNDA:0,_ZSt7forwardIOmEOT_RNSt16remove_referenceIS1_E4typeE
FN:74,_ZSt7forwardISt5tupleIJEEEOT_RNSt16remove_referenceIS2_E4typeE
FNDA:0,_ZSt7forwardISt5tupleIJEEEOT_RNSt16remove_referenceIS2_E4typeE
FN:74,_ZSt7forwardIRKSt8functionIFvhiEEEOT_RNSt16remove_referenceIS5_E4typeE
FNDA:0,_ZSt7forwardIRKSt8functionIFvhiEEEOT_RNSt16remove_referenceIS5_E4typeE
FN:74,_ZSt7forwardISt5tupleIJhiEEEOT_RNSt16remove_referenceIS2_E4typeE
FNDA:0,_ZSt7forwardISt5tupleIJhiEEEOT_RNSt16remove_referenceIS2_E4typeE
FN:74,_ZSt7forwardIRKSt8functionIFihEEEOT_RNSt16remove_referenceIS5_E4typeE
FNDA:424,_ZSt7forwardIRKSt8functionIFihEEEOT_RNSt16remove_referenceIS5_E4typeE
FN:74,_ZSt7forwardISt5tupleIJhEEEOT_RNSt16remove_referenceIS2_E4typeE
FNDA:0,_ZSt7forwardISt5tupleIJhEEEOT_RNSt16remove_referenceIS2_E4typeE
FN:74,_ZSt7forwardIRKSt8functionIFvhhEEEOT_RNSt16remove_referenceIS5_E4typeE
FNDA:0,_ZSt7forwardIRKSt8functionIFvhhEEEOT_RNSt16remove_referenceIS5_E4typeE
FN:74,_ZSt7forwardIRKSt8functionIFmPKhmEEEOT_RNSt16remove_referenceIS7_E4typeE
FNDA:0,_ZSt7forwardIRKSt8functionIFmPKhmEEEOT_RNSt16remove_referenceIS7_E4typeE
FN:74,_ZSt7forwardIOPKhEOT_RNSt16remove_referenceIS3_E4typeE
FNDA:0,_ZSt7forwardIOPKhEOT_RNSt16remove_referenceIS3_E4typeE
FN:74,_ZSt7forwardIOiEOT_RNSt16remove_referenceIS1_E4typeE
FNDA:0,_ZSt7forwardIOiEOT_RNSt16remove_referenceIS1_E4typeE
FN:74,_ZSt7forwardIOhEOT_RNSt16remove_referenceIS1_E4typeE
FNDA:0,_ZSt7forwardIOhEOT_RNSt16remove_referenceIS1_E4typeE
FN:74,_ZSt7forwardISt5tupleIJmEEEOT_RNSt16remove_referenceIS2_E4typeE
FNDA:0,_ZSt7forwardISt5tupleIJmEEEOT_RNSt16remove_referenceIS2_E4typeE
FN:74,_ZSt7forwardIRKSt8functionIFvmEEEOT_RNSt16remove_referenceIS5_E4typeE
FNDA:0,_ZSt7forwardIRKSt8functionIFvmEEEOT_RNSt16remove_referenceIS5_E4typeE
FN:74,_ZSt7forwardISt5tupleIJhhEEEOT_RNSt16remove_referenceIS2_E4typeE
FNDA:0,_ZSt7forwardISt5tupleIJhhEEEOT_RNSt16remove_referenceIS2_E4typeE
FN:74,_ZSt7forwardISt5tupleIJPKhmEEEOT_RNSt16remove_referenceIS4_E4typeE
FNDA:0,_ZSt7forwardISt5tupleIJPKhmEEEOT_RNSt16remove_referenceIS4_E4typeE
FN:74,_ZSt7forwardIRKSt8functionIFmhEEEOT_RNSt16remove_referenceIS5_E4typeE
FNDA:0,_ZSt7forwardIRKSt8functionIFmhEEEOT_RNSt16remove_referenceIS5_E4typeE
FN:74,_ZSt7forwardIRKSt8functionIFivEEEOT_RNSt16remove_referenceIS5_E4typeE
FNDA:0,_ZSt7forwardIRKSt8functionIFivEEEOT_RNSt16remove_referenceIS5_E4typeE
FN:74,_ZSt7forwardIRKSt8functionIFvvEEEOT_RNSt16remove_referenceIS5_E4typeE
FNDA:0,_ZSt7forwardIRKSt8functionIFvvEEEOT_RNSt16remove_referenceIS5_E4typeE
FN:99,_ZSt4moveIRSt5tupleIJhEEEONSt16remove_referenceIT_E4typeEOS4_
FNDA:0,_ZSt4moveIRSt5tupleIJhEEEONSt16remove_referenceIT_E4typeEOS4_
FN:99,_ZSt4moveIRSaIcEEONSt16remove_referenceIT_E4typeEOS3_
FNDA:0,_ZSt4moveIRSaIcEEONSt16remove_referenceIT_E4typeEOS3_
FN:99,_ZSt4moveIRiEONSt16remove_referenceIT_E4typeEOS2_
FNDA:0,_ZSt4moveIRiEONSt16remove_referenceIT_E4typeEOS2_
FN:99,_ZSt4moveIRmEONSt16remove_referenceIT_E4typeEOS2_
FNDA:0,_ZSt4moveIRmEONSt16remove_referenceIT_E4typeEOS2_
FN:99,_ZSt4moveIRSt5tupleIJEEEONSt16remove_referenceIT_E4typeEOS4_
FNDA:0,_ZSt4moveIRSt5tupleIJEEEONSt16remove_referenceIT_E4typeEOS4_
FN:99,_ZSt4moveIRSt5tupleIJhiEEEONSt16remove_referenceIT_E4typeEOS4_
FNDA:0,_ZSt4moveIRSt5tupleIJhiEEEONSt16remove_referenceIT_E4typeEOS4_
FN:99,_ZSt4moveIRSt5tupleIJhhEEEONSt16remove_referenceIT_E4typeEOS4_
FNDA:350,_ZSt4moveIRSt5tupleIJhhEEEONSt16remove_referenceIT_E4typeEOS4_
FN:99,_ZSt4moveIRSt5tupleIJPKhmEEEONSt16remove_referenceIT_E4typeEOS6_
FNDA:8,_ZSt4moveIRSt5tupleIJPKhmEEEONSt16remove_referenceIT_E4typeEOS6_
FN:99,_ZSt4moveIRSt5tupleIJmEEEONSt16remove_referenceIT_E4typeEOS4_
FNDA:0,_ZSt4moveIRSt5tupleIJmEEEONSt16remove_referenceIT_E4typeEOS4_
FN:99,_ZSt4moveIRN7testing8internal23ReferenceOrValueWrapperImEEEONSt16remove_referenceIT_E4typeEOS6_
FNDA:194,_ZSt4moveIRN7testing8internal23ReferenceOrValueWrapperImEEEONSt16remove_referenceIT_E4typeEOS6_
FN:99,_ZSt4moveIRSt11_Tuple_implILm1EJiEEEONSt16remove_referenceIT_E4typeEOS4_
FNDA:0,_ZSt4moveIRSt11_Tuple_implILm1EJiEEEONSt16remove_referenceIT_E4typeEOS4_
FN:99,_ZSt4moveIRN7testing8internal23ReferenceOrValueWrapperIiEEEONSt16remove_referenceIT_E4typeEOS6_
FNDA:0,_ZSt4moveIRN7testing8internal23ReferenceOrValueWrapperIiEEEONSt16remove_referenceIT_E4typeEOS6_
FN:99,_ZSt4moveIRSt11_Tuple_implILm1EJhEEEONSt16remove_referenceIT_E4typeEOS4_
FNDA:0,_ZSt4moveIRSt11_Tuple_implILm1EJhEEEONSt16remove_referenceIT_E4typeEOS4_
FN:99,_ZSt4moveIRSt11_Tuple_implILm1EJmEEEONSt16remove_referenceIT_E4typeEOS4_
FNDA:0,_ZSt4moveIRSt11_Tuple_implILm1EJmEEEONSt16remove_referenceIT_E4typeEOS4_
DA:74,0
DA:75,0
DA:74,0
DA:75,0
DA:74,0
DA:75,0
DA:74,0
DA:75,0
DA:74,0
DA:75,0
DA:74,378
DA:75,378
DA:74,0
DA:75,0
DA:74,0
DA:75,0
DA:74,0
DA:75,0
DA:74,424
DA:75,424
DA:74,0
DA:75,0
DA:74,0
DA:75,0
DA:74,0
DA:75,0
DA:74,0
DA:75,0
DA:74,0
DA:75,0
DA:74,0
DA:75,0
DA:74,0
DA:75,0
DA:74,0
DA:75,0
DA:74,0
DA:75,0
DA:74,0
DA:75,0
DA:74,0
DA:75,0
DA:74,0
DA:75,0
DA:74,0
DA:75,0
DA:99,0
DA:100,0
DA:99,0
DA:100,0
DA:99,0
DA:100,0
DA:99,0
DA:100,0
DA:99,194
DA:100,194
DA:99,0
DA:100,0
DA:99,8
DA:100,8
DA:99,350
DA:100,350
DA:99,0
DA:100,0
DA:99,0
DA:100,0
DA:99,0
DA:100,0
DA:99,0
DA:100,0
DA:99,0
DA:100,0
DA:99,0
DA:100,0
end_of_record
SF:/usr/include/c++/9/bits/stl_construct.h
FN:117,_ZNSt12_Destroy_auxILb1EE9__destroyIPPKvEEvT_S5_
FNDA:0,_ZNSt12_Destroy_auxILb1EE9__destroyIPPKvEEvT_S5_
FN:127,_ZSt8_DestroyIPPKvEvT_S3_
FNDA:0,_ZSt8_DestroyIPPKvEvT_S3_
FN:203,_ZSt8_DestroyIPPKvS1_EvT_S3_RSaIT0_E
FNDA:0,_ZSt8_DestroyIPPKvS1_EvT_S3_RSaIT0_E
DA:117,0
DA:127,0
DA:137,0
DA:138,0
DA:203,0
DA:206,0
DA:207,0
end_of_record
SF:/home/pieter/GitHub/Control-Surface/build/googletest/googletest-src/googlemock/include/gmock/gmock-actions.h
FN:161,_ZN7testing8internal19BuiltInDefaultValueIiE6ExistsEv
FNDA:0,_ZN7testing8internal19BuiltInDefaultValueIiE6ExistsEv
FN:161,_ZN7testing8internal19BuiltInDefaultValueIiE3GetEv
FNDA:0,_ZN7testing8internal19BuiltInDefaultValueIiE3GetEv
FN:162,_ZN7testing8internal19BuiltInDefaultValueImE6ExistsEv
FNDA:5,_ZN7testing8internal19BuiltInDefaultValueImE6ExistsEv
FN:162,_ZN7testing8internal19BuiltInDefaultValueImE3GetEv
FNDA:5,_ZN7testing8internal19BuiltInDefaultValueImE3GetEv
FN:212,_ZN7testing12DefaultValueImE5IsSetEv
FNDA:5,_ZN7testing12DefaultValueImE5IsSetEv
FN:212,_ZN7testing12DefaultValueIiE5IsSetEv
FNDA:0,_ZN7testing12DefaultValueIiE5IsSetEv
FN:216,_ZN7testing12DefaultValueIiE6ExistsEv
FNDA:0,_ZN7testing12DefaultValueIiE6ExistsEv
FN:216,_ZN7testing12DefaultValueImE6ExistsEv
FNDA:5,_ZN7testing12DefaultValueImE6ExistsEv
FN:223,_ZN7testing12DefaultValueIiE3GetEv
FNDA:0,_ZN7testing12DefaultValueIiE3GetEv
FN:223,_ZN7testing12DefaultValueImE3GetEv
FNDA:5,_ZN7testing12DefaultValueImE3GetEv
FN:298,_ZN7testing12DefaultValueIvE6ExistsEv
FNDA:0,_ZN7testing12DefaultValueIvE6ExistsEv
FN:299,_ZN7testing12DefaultValueIvE3GetEv
FNDA:0,_ZN7testing12DefaultValueIvE3GetEv
FN:379,_ZNK7testing6ActionIFivEE11IsDoDefaultEv
FNDA:0,_ZNK7testing6ActionIFivEE11IsDoDefaultEv
FN:379,_ZNK7testing6ActionIFmvEE11IsDoDefaultEv
FNDA:378,_ZNK7testing6ActionIFmvEE11IsDoDefaultEv
FN:379,_ZNK7testing6ActionIFvhiEE11IsDoDefaultEv
FNDA:0,_ZNK7testing6ActionIFvhiEE11IsDoDefaultEv
FN:379,_ZNK7testing6ActionIFihEE11IsDoDefaultEv
FNDA:441,_ZNK7testing6ActionIFihEE11IsDoDefaultEv
FN:379,_ZNK7testing6ActionIFvhhEE11IsDoDefaultEv
FNDA:175,_ZNK7testing6ActionIFvhhEE11IsDoDefaultEv
FN:379,_ZNK7testing6ActionIFmPKhmEE11IsDoDefaultEv
FNDA:4,_ZNK7testing6ActionIFmPKhmEE11IsDoDefaultEv
FN:379,_ZNK7testing6ActionIFmhEE11IsDoDefaultEv
FNDA:1,_ZNK7testing6ActionIFmhEE11IsDoDefaultEv
FN:379,_ZNK7testing6ActionIFvvEE11IsDoDefaultEv
FNDA:0,_ZNK7testing6ActionIFvvEE11IsDoDefaultEv
FN:379,_ZNK7testing6ActionIFvmEE11IsDoDefaultEv
FNDA:0,_ZNK7testing6ActionIFvmEE11IsDoDefaultEv
FN:387,_ZNK7testing6ActionIFmvEE7PerformESt5tupleIJEE
FNDA:189,_ZNK7testing6ActionIFmvEE7PerformESt5tupleIJEE
FN:387,_ZNK7testing6ActionIFvhiEE7PerformESt5tupleIJhiEE
FNDA:0,_ZNK7testing6ActionIFvhiEE7PerformESt5tupleIJhiEE
FN:387,_ZNK7testing6ActionIFihEE7PerformESt5tupleIJhEE
FNDA:212,_ZNK7testing6ActionIFihEE7PerformESt5tupleIJhEE
FN:387,_ZNK7testing6ActionIFvhhEE7PerformESt5tupleIJhhEE
FNDA:0,_ZNK7testing6ActionIFvhhEE7PerformESt5tupleIJhhEE
FN:387,_ZNK7testing6ActionIFmPKhmEE7PerformESt5tupleIJS2_mEE
FNDA:0,_ZNK7testing6ActionIFmPKhmEE7PerformESt5tupleIJS2_mEE
FN:387,_ZNK7testing6ActionIFmhEE7PerformESt5tupleIJhEE
FNDA:0,_ZNK7testing6ActionIFmhEE7PerformESt5tupleIJhEE
FN:387,_ZNK7testing6ActionIFivEE7PerformESt5tupleIJEE
FNDA:0,_ZNK7testing6ActionIFivEE7PerformESt5tupleIJEE
FN:387,_ZNK7testing6ActionIFvvEE7PerformESt5tupleIJEE
FNDA:0,_ZNK7testing6ActionIFvvEE7PerformESt5tupleIJEE
FN:387,_ZNK7testing6ActionIFvmEE7PerformESt5tupleIJmEE
FNDA:0,_ZNK7testing6ActionIFvmEE7PerformESt5tupleIJmEE
DA:161,0
DA:161,0
DA:162,5
DA:162,5
DA:212,0
DA:212,5
DA:216,0
DA:217,0
DA:216,5
DA:217,5
DA:223,0
DA:224,0
DA:225,0
DA:223,5
DA:224,5
DA:225,5
DA:298,0
DA:299,0
DA:379,0
DA:379,0
DA:379,0
DA:379,1
DA:379,4
DA:379,175
DA:379,441
DA:379,0
DA:379,378
DA:387,0
DA:388,0
DA:389,0
DA:391,0
DA:387,0
DA:388,0
DA:389,0
DA:391,0
DA:387,0
DA:388,0
DA:389,0
DA:391,0
DA:387,0
DA:388,0
DA:389,0
DA:391,0
DA:387,0
DA:388,0
DA:389,0
DA:391,0
DA:387,0
DA:388,0
DA:389,0
DA:391,0
DA:387,212
DA:388,212
DA:389,0
DA:391,212
DA:387,0
DA:388,0
DA:389,0
DA:391,0
DA:387,189
DA:388,189
DA:389,0
DA:391,189
end_of_record
SF:/usr/include/c++/9/bits/stl_set.h
FN:167,_ZNSt3setIN7testing11ExpectationENS1_4LessESaIS1_EEC2Ev
FNDA:0,_ZNSt3setIN7testing11ExpectationENS1_4LessESaIS1_EEC2Ev
FN:281,_ZNSt3setIN7testing11ExpectationENS1_4LessESaIS1_EED2Ev
FNDA:0,_ZNSt3setIN7testing11ExpectationENS1_4LessESaIS1_EED2Ev
FN:344,_ZNKSt3setIN7testing11ExpectationENS1_4LessESaIS1_EE5beginEv
FNDA:0,_ZNKSt3setIN7testing11ExpectationENS1_4LessESaIS1_EE5beginEv
FN:353,_ZNKSt3setIN7testing11ExpectationENS1_4LessESaIS1_EE3endEv
FNDA:0,_ZNKSt3setIN7testing11ExpectationENS1_4LessESaIS1_EE3endEv
DA:167,0
DA:281,0
DA:344,0
DA:345,0
DA:353,0
DA:354,0
end_of_record
SF:/usr/include/c++/9/bits/char_traits.h
FN:329,_ZNSt11char_traitsIcE6lengthEPKc
FNDA:0,_ZNSt11char_traitsIcE6lengthEPKc
DA:329,0
DA:335,0
end_of_record
SF:/home/pieter/GitHub/Control-Surface/build/googletest/googletest-src/googlemock/include/gmock/gmock-cardinalities.h
FN:107,_ZNK7testing11Cardinality22IsSaturatedByCallCountEi
FNDA:0,_ZNK7testing11Cardinality22IsSaturatedByCallCountEi
DA:107,0
DA:108,0
end_of_record
SF:/home/pieter/GitHub/Control-Surface/build/googletest/googletest-src/googletest/include/gtest/gtest-printers.h
FN:259,_ZN16testing_internal26DefaultPrintNonContainerToIiEEvRKT_PSo
FNDA:0,_ZN16testing_internal26DefaultPrintNonContainerToIiEEvRKT_PSo
FN:259,_ZN16testing_internal26DefaultPrintNonContainerToImEEvRKT_PSo
FNDA:0,_ZN16testing_internal26DefaultPrintNonContainerToImEEvRKT_PSo
FN:438,_ZN7testing8internal14DefaultPrintToIKvEEvNS0_15WrapPrinterTypeILNS0_18DefaultPrinterTypeE1EEEPT_PSo
FNDA:0,_ZN7testing8internal14DefaultPrintToIKvEEvNS0_15WrapPrinterTypeILNS0_18DefaultPrinterTypeE1EEEPT_PSo
FN:465,_ZN7testing8internal14DefaultPrintToIiEEvNS0_15WrapPrinterTypeILNS0_18DefaultPrinterTypeE3EEERKT_PSo
FNDA:0,_ZN7testing8internal14DefaultPrintToIiEEvNS0_15WrapPrinterTypeILNS0_18DefaultPrinterTypeE3EEERKT_PSo
FN:465,_ZN7testing8internal14DefaultPrintToImEEvNS0_15WrapPrinterTypeILNS0_18DefaultPrinterTypeE3EEERKT_PSo
FNDA:0,_ZN7testing8internal14DefaultPrintToImEEvNS0_15WrapPrinterTypeILNS0_18DefaultPrinterTypeE3EEERKT_PSo
FN:482,_ZN7testing8internal7PrintToIPKvEEvRKT_PSo
FNDA:0,_ZN7testing8internal7PrintToIPKvEEvRKT_PSo
FN:482,_ZN7testing8internal7PrintToImEEvRKT_PSo
FNDA:0,_ZN7testing8internal7PrintToImEEvRKT_PSo
FN:482,_ZN7testing8internal7PrintToIiEEvRKT_PSo
FNDA:0,_ZN7testing8internal7PrintToIiEEvRKT_PSo
FN:557,_ZN7testing8internal7PrintToEPKhPSo
FNDA:0,_ZN7testing8internal7PrintToEPKhPSo
FN:622,_ZN7testing8internal12PrintTupleToISt5tupleIJmEEEEvRKT_St17integral_constantImLm0EEPSo
FNDA:0,_ZN7testing8internal12PrintTupleToISt5tupleIJmEEEEvRKT_St17integral_constantImLm0EEPSo
FN:622,_ZN7testing8internal12PrintTupleToISt5tupleIJEEEEvRKT_St17integral_constantImLm0EEPSo
FNDA:0,_ZN7testing8internal12PrintTupleToISt5tupleIJEEEEvRKT_St17integral_constantImLm0EEPSo
FN:622,_ZN7testing8internal12PrintTupleToISt5tupleIJhEEEEvRKT_St17integral_constantImLm0EEPSo
FNDA:0,_ZN7testing8internal12PrintTupleToISt5tupleIJhEEEEvRKT_St17integral_constantImLm0EEPSo
FN:622,_ZN7testing8internal12PrintTupleToISt5tupleIJhiEEEEvRKT_St17integral_constantImLm0EEPSo
FNDA:0,_ZN7testing8internal12PrintTupleToISt5tupleIJhiEEEEvRKT_St17integral_constantImLm0EEPSo
FN:622,_ZN7testing8internal12PrintTupleToISt5tupleIJhhEEEEvRKT_St17integral_constantImLm0EEPSo
FNDA:0,_ZN7testing8internal12PrintTupleToISt5tupleIJhhEEEEvRKT_St17integral_constantImLm0EEPSo
FN:622,_ZN7testing8internal12PrintTupleToISt5tupleIJPKhmEEEEvRKT_St17integral_constantImLm0EEPSo
FNDA:0,_ZN7testing8internal12PrintTupleToISt5tupleIJPKhmEEEEvRKT_St17integral_constantImLm0EEPSo
FN:626,_ZN7testing8internal12PrintTupleToISt5tupleIJhiEELm1EEEvRKT_St17integral_constantImXT0_EEPSo
FNDA:0,_ZN7testing8internal12PrintTupleToISt5tupleIJhiEELm1EEEvRKT_St17integral_constantImXT0_EEPSo
FN:626,_ZN7testing8internal12PrintTupleToISt5tupleIJhiEELm2EEEvRKT_St17integral_constantImXT0_EEPSo
FNDA:0,_ZN7testing8internal12PrintTupleToISt5tupleIJhiEELm2EEEvRKT_St17integral_constantImXT0_EEPSo
FN:626,_ZN7testing8internal12PrintTupleToISt5tupleIJhEELm1EEEvRKT_St17integral_constantImXT0_EEPSo
FNDA:0,_ZN7testing8internal12PrintTupleToISt5tupleIJhEELm1EEEvRKT_St17integral_constantImXT0_EEPSo
FN:626,_ZN7testing8internal12PrintTupleToISt5tupleIJhhEELm2EEEvRKT_St17integral_constantImXT0_EEPSo
FNDA:0,_ZN7testing8internal12PrintTupleToISt5tupleIJhhEELm2EEEvRKT_St17integral_constantImXT0_EEPSo
FN:626,_ZN7testing8internal12PrintTupleToISt5tupleIJPKhmEELm2EEEvRKT_St17integral_constantImXT0_EEPSo
FNDA:0,_ZN7testing8internal12PrintTupleToISt5tupleIJPKhmEELm2EEEvRKT_St17integral_constantImXT0_EEPSo
FN:626,_ZN7testing8internal12PrintTupleToISt5tupleIJmEELm1EEEvRKT_St17integral_constantImXT0_EEPSo
FNDA:0,_ZN7testing8internal12PrintTupleToISt5tupleIJmEELm1EEEvRKT_St17integral_constantImXT0_EEPSo
FN:626,_ZN7testing8internal12PrintTupleToISt5tupleIJhhEELm1EEEvRKT_St17integral_constantImXT0_EEPSo
FNDA:0,_ZN7testing8internal12PrintTupleToISt5tupleIJhhEELm1EEEvRKT_St17integral_constantImXT0_EEPSo
FN:626,_ZN7testing8internal12PrintTupleToISt5tupleIJPKhmEELm1EEEvRKT_St17integral_constantImXT0_EEPSo
FNDA:0,_ZN7testing8internal12PrintTupleToISt5tupleIJPKhmEELm1EEEvRKT_St17integral_constantImXT0_EEPSo
FN:639,_ZN7testing8internal7PrintToIJhhEEEvRKSt5tupleIJDpT_EEPSo
FNDA:0,_ZN7testing8internal7PrintToIJhhEEEvRKSt5tupleIJDpT_EEPSo
FN:639,_ZN7testing8internal7PrintToIJEEEvRKSt5tupleIJDpT_EEPSo
FNDA:0,_ZN7testing8internal7PrintToIJEEEvRKSt5tupleIJDpT_EEPSo
FN:639,_ZN7testing8internal7PrintToIJhiEEEvRKSt5tupleIJDpT_EEPSo
FNDA:0,_ZN7testing8internal7PrintToIJhiEEEvRKSt5tupleIJDpT_EEPSo
FN:639,_ZN7testing8internal7PrintToIJPKhmEEEvRKSt5tupleIJDpT_EEPSo
FNDA:0,_ZN7testing8internal7PrintToIJPKhmEEEvRKSt5tupleIJDpT_EEPSo
FN:639,_ZN7testing8internal7PrintToIJmEEEvRKSt5tupleIJDpT_EEPSo
FNDA:0,_ZN7testing8internal7PrintToIJmEEEvRKSt5tupleIJDpT_EEPSo
FN:639,_ZN7testing8internal7PrintToIJhEEEvRKSt5tupleIJDpT_EEPSo
FNDA:0,_ZN7testing8internal7PrintToIJhEEEvRKSt5tupleIJDpT_EEPSo
FN:669,_ZN7testing8internal16UniversalPrinterISt5tupleIJmEEE5PrintERKS3_PSo
FNDA:0,_ZN7testing8internal16UniversalPrinterISt5tupleIJmEEE5PrintERKS3_PSo
FN:669,_ZN7testing8internal16UniversalPrinterISt5tupleIJPKhmEEE5PrintERKS5_PSo
FNDA:0,_ZN7testing8internal16UniversalPrinterISt5tupleIJPKhmEEE5PrintERKS5_PSo
FN:669,_ZN7testing8internal16UniversalPrinterISt5tupleIJhhEEE5PrintERKS3_PSo
FNDA:0,_ZN7testing8internal16UniversalPrinterISt5tupleIJhhEEE5PrintERKS3_PSo
FN:669,_ZN7testing8internal16UniversalPrinterISt5tupleIJhEEE5PrintERKS3_PSo
FNDA:0,_ZN7testing8internal16UniversalPrinterISt5tupleIJhEEE5PrintERKS3_PSo
FN:669,_ZN7testing8internal16UniversalPrinterISt5tupleIJhiEEE5PrintERKS3_PSo
FNDA:0,_ZN7testing8internal16UniversalPrinterISt5tupleIJhiEEE5PrintERKS3_PSo
FN:669,_ZN7testing8internal16UniversalPrinterISt5tupleIJEEE5PrintERKS3_PSo
FNDA:0,_ZN7testing8internal16UniversalPrinterISt5tupleIJEEE5PrintERKS3_PSo
FN:669,_ZN7testing8internal16UniversalPrinterIhE5PrintERKhPSo
FNDA:0,_ZN7testing8internal16UniversalPrinterIhE5PrintERKhPSo
FN:669,_ZN7testing8internal16UniversalPrinterIPKhE5PrintERKS3_PSo
FNDA:0,_ZN7testing8internal16UniversalPrinterIPKhE5PrintERKS3_PSo
FN:669,_ZN7testing8internal16UniversalPrinterIiE5PrintERKiPSo
FNDA:0,_ZN7testing8internal16UniversalPrinterIiE5PrintERKiPSo
FN:669,_ZN7testing8internal16UniversalPrinterImE5PrintERKmPSo
FNDA:0,_ZN7testing8internal16UniversalPrinterImE5PrintERKmPSo
FN:864,_ZN7testing8internal14UniversalPrintISt5tupleIJEEEEvRKT_PSo
FNDA:0,_ZN7testing8internal14UniversalPrintISt5tupleIJEEEEvRKT_PSo
FN:864,_ZN7testing8internal14UniversalPrintIiEEvRKT_PSo
FNDA:0,_ZN7testing8internal14UniversalPrintIiEEvRKT_PSo
FN:864,_ZN7testing8internal14UniversalPrintIhEEvRKT_PSo
FNDA:0,_ZN7testing8internal14UniversalPrintIhEEvRKT_PSo
FN:864,_ZN7testing8internal14UniversalPrintImEEvRKT_PSo
FNDA:0,_ZN7testing8internal14UniversalPrintImEEvRKT_PSo
FN:864,_ZN7testing8internal14UniversalPrintISt5tupleIJhiEEEEvRKT_PSo
FNDA:0,_ZN7testing8internal14UniversalPrintISt5tupleIJhiEEEEvRKT_PSo
FN:864,_ZN7testing8internal14UniversalPrintISt5tupleIJhEEEEvRKT_PSo
FNDA:0,_ZN7testing8internal14UniversalPrintISt5tupleIJhEEEEvRKT_PSo
FN:864,_ZN7testing8internal14UniversalPrintISt5tupleIJhhEEEEvRKT_PSo
FNDA:0,_ZN7testing8internal14UniversalPrintISt5tupleIJhhEEEEvRKT_PSo
FN:864,_ZN7testing8internal14UniversalPrintISt5tupleIJPKhmEEEEvRKT_PSo
FNDA:0,_ZN7testing8internal14UniversalPrintISt5tupleIJPKhmEEEEvRKT_PSo
FN:864,_ZN7testing8internal14UniversalPrintISt5tupleIJmEEEEvRKT_PSo
FNDA:0,_ZN7testing8internal14UniversalPrintISt5tupleIJmEEEEvRKT_PSo
FN:864,_ZN7testing8internal14UniversalPrintIPKhEEvRKT_PSo
FNDA:0,_ZN7testing8internal14UniversalPrintIPKhEEvRKT_PSo
DA:259,0
DA:286,0
DA:287,0
DA:259,0
DA:286,0
DA:287,0
DA:438,0
DA:440,0
DA:441,0
DA:446,0
DA:448,0
DA:465,0
DA:467,0
DA:468,0
DA:465,0
DA:467,0
DA:468,0
DA:482,0
DA:502,0
DA:513,0
DA:482,0
DA:502,0
DA:513,0
DA:482,0
DA:502,0
DA:513,0
DA:557,0
DA:558,0
DA:559,0
DA:622,0
DA:623,0
DA:622,0
DA:623,0
DA:622,0
DA:623,0
DA:622,0
DA:623,0
DA:622,0
DA:623,0
DA:622,0
DA:623,0
DA:626,0
DA:628,0
DA:634,0
DA:635,0
DA:636,0
DA:626,0
DA:628,0
DA:634,0
DA:635,0
DA:636,0
DA:626,0
DA:628,0
DA:634,0
DA:635,0
DA:636,0
DA:626,0
DA:628,0
DA:634,0
DA:635,0
DA:636,0
DA:626,0
DA:628,0
DA:632,0
DA:634,0
DA:635,0
DA:636,0
DA:626,0
DA:628,0
DA:632,0
DA:634,0
DA:635,0
DA:636,0
DA:626,0
DA:628,0
DA:634,0
DA:635,0
DA:636,0
DA:626,0
DA:628,0
DA:632,0
DA:634,0
DA:635,0
DA:636,0
DA:639,0
DA:640,0
DA:641,0
DA:642,0
DA:643,0
DA:639,0
DA:640,0
DA:641,0
DA:642,0
DA:643,0
DA:639,0
DA:640,0
DA:641,0
DA:642,0
DA:643,0
DA:639,0
DA:640,0
DA:641,0
DA:642,0
DA:643,0
DA:639,0
DA:640,0
DA:641,0
DA:642,0
DA:643,0
DA:639,0
DA:640,0
DA:641,0
DA:642,0
DA:643,0
DA:669,0
DA:678,0
DA:679,0
DA:669,0
DA:678,0
DA:679,0
DA:669,0
DA:678,0
DA:679,0
DA:669,0
DA:678,0
DA:679,0
DA:669,0
DA:678,0
DA:679,0
DA:669,0
DA:678,0
DA:679,0
DA:669,0
DA:678,0
DA:679,0
DA:669,0
DA:678,0
DA:679,0
DA:669,0
DA:678,0
DA:679,0
DA:669,0
DA:678,0
DA:679,0
DA:864,0
DA:868,0
DA:869,0
DA:864,0
DA:868,0
DA:869,0
DA:864,0
DA:868,0
DA:869,0
DA:864,0
DA:868,0
DA:869,0
DA:864,0
DA:868,0
DA:869,0
DA:864,0
DA:868,0
DA:869,0
DA:864,0
DA:868,0
DA:869,0
DA:864,0
DA:868,0
DA:869,0
DA:864,0
DA:868,0
DA:869,0
DA:864,0
DA:868,0
DA:869,0
end_of_record
SF:/home/pieter/GitHub/Control-Surface/build/googletest/googletest-src/googlemock/include/gmock/internal/gmock-internal-utils.h
FN:285,_ZN7testing8internal6AssertEbPKciRKNSt7__cxx1112basic_stringIcSt11char_traitsIcESaIcEEE
FNDA:0,_ZN7testing8internal6AssertEbPKciRKNSt7__cxx1112basic_stringIcSt11char_traitsIcESaIcEEE
FN:518,_ZN7testing8internal9ApplyImplIRKSt8functionIFvvEESt5tupleIJEEJEEEDTclcl7forwardIT_Efp_Espcl3getIXT1_EEcl7forwardIT0_Efp0_EEEEOS9_OSA_NS0_8int_packIJXspT1_EEEE
FNDA:0,_ZN7testing8internal9ApplyImplIRKSt8functionIFvvEESt5tupleIJEEJEEEDTclcl7forwardIT_Efp_Espcl3getIXT1_EEcl7forwardIT0_Efp0_EEEEOS9_OSA_NS0_8int_packIJXspT1_EEEE
FN:518,_ZN7testing8internal9ApplyImplIRKSt8functionIFmvEESt5tupleIJEEJEEEDTclcl7forwardIT_Efp_Espcl3getIXT1_EEcl7forwardIT0_Efp0_EEEEOS9_OSA_NS0_8int_packIJXspT1_EEEE
FNDA:189,_ZN7testing8internal9ApplyImplIRKSt8functionIFmvEESt5tupleIJEEJEEEDTclcl7forwardIT_Efp_Espcl3getIXT1_EEcl7forwardIT0_Efp0_EEEEOS9_OSA_NS0_8int_packIJXspT1_EEEE
FN:518,_ZN7testing8internal9ApplyImplIRKSt8functionIFvhiEESt5tupleIJhiEEJLm0ELm1EEEEDTclcl7forwardIT_Efp_Espcl3getIXT1_EEcl7forwardIT0_Efp0_EEEEOS9_OSA_NS0_8int_packIJXspT1_EEEE
FNDA:0,_ZN7testing8internal9ApplyImplIRKSt8functionIFvhiEESt5tupleIJhiEEJLm0ELm1EEEEDTclcl7forwardIT_Efp_Espcl3getIXT1_EEcl7forwardIT0_Efp0_EEEEOS9_OSA_NS0_8int_packIJXspT1_EEEE
FN:518,_ZN7testing8internal9ApplyImplIRKSt8functionIFihEESt5tupleIJhEEJLm0EEEEDTclcl7forwardIT_Efp_Espcl3getIXT1_EEcl7forwardIT0_Efp0_EEEEOS9_OSA_NS0_8int_packIJXspT1_EEEE
FNDA:212,_ZN7testing8internal9ApplyImplIRKSt8functionIFihEESt5tupleIJhEEJLm0EEEEDTclcl7forwardIT_Efp_Espcl3getIXT1_EEcl7forwardIT0_Efp0_EEEEOS9_OSA_NS0_8int_packIJXspT1_EEEE
FN:518,_ZN7testing8internal9ApplyImplIRKSt8functionIFvhhEESt5tupleIJhhEEJLm0ELm1EEEEDTclcl7forwardIT_Efp_Espcl3getIXT1_EEcl7forwardIT0_Efp0_EEEEOS9_OSA_NS0_8int_packIJXspT1_EEEE
FNDA:0,_ZN7testing8internal9ApplyImplIRKSt8functionIFvhhEESt5tupleIJhhEEJLm0ELm1EEEEDTclcl7forwardIT_Efp_Espcl3getIXT1_EEcl7forwardIT0_Efp0_EEEEOS9_OSA_NS0_8int_packIJXspT1_EEEE
FN:518,_ZN7testing8internal9ApplyImplIRKSt8functionIFmPKhmEESt5tupleIJS4_mEEJLm0ELm1EEEEDTclcl7forwardIT_Efp_Espcl3getIXT1_EEcl7forwardIT0_Efp0_EEEEOSB_OSC_NS0_8int_packIJXspT1_EEEE
FNDA:0,_ZN7testing8internal9ApplyImplIRKSt8functionIFmPKhmEESt5tupleIJS4_mEEJLm0ELm1EEEEDTclcl7forwardIT_Efp_Espcl3getIXT1_EEcl7forwardIT0_Efp0_EEEEOSB_OSC_NS0_8int_packIJXspT1_EEEE
FN:518,_ZN7testing8internal9ApplyImplIRKSt8functionIFmhEESt5tupleIJhEEJLm0EEEEDTclcl7forwardIT_Efp_Espcl3getIXT1_EEcl7forwardIT0_Efp0_EEEEOS9_OSA_NS0_8int_packIJXspT1_EEEE
FNDA:0,_ZN7testing8internal9ApplyImplIRKSt8functionIFmhEESt5tupleIJhEEJLm0EEEEDTclcl7forwardIT_Efp_Espcl3getIXT1_EEcl7forwardIT0_Efp0_EEEEOS9_OSA_NS0_8int_packIJXspT1_EEEE
FN:518,_ZN7testing8internal9ApplyImplIRKSt8functionIFivEESt5tupleIJEEJEEEDTclcl7forwardIT_Efp_Espcl3getIXT1_EEcl7forwardIT0_Efp0_EEEEOS9_OSA_NS0_8int_packIJXspT1_EEEE
FNDA:0,_ZN7testing8internal9ApplyImplIRKSt8functionIFivEESt5tupleIJEEJEEEDTclcl7forwardIT_Efp_Espcl3getIXT1_EEcl7forwardIT0_Efp0_EEEEOS9_OSA_NS0_8int_packIJXspT1_EEEE
FN:518,_ZN7testing8internal9ApplyImplIRKSt8functionIFvmEESt5tupleIJmEEJLm0EEEEDTclcl7forwardIT_Efp_Espcl3getIXT1_EEcl7forwardIT0_Efp0_EEEEOS9_OSA_NS0_8int_packIJXspT1_EEEE
FNDA:0,_ZN7testing8internal9ApplyImplIRKSt8functionIFvmEESt5tupleIJmEEJLm0EEEEDTclcl7forwardIT_Efp_Espcl3getIXT1_EEcl7forwardIT0_Efp0_EEEEOS9_OSA_NS0_8int_packIJXspT1_EEEE
FN:525,_ZN7testing8internal5ApplyIRKSt8functionIFvmEESt5tupleIJmEEEEDTcl9ApplyImplcl7forwardIT_Efp_Ecl7forwardIT0_Efp0_EcvNS0_13make_int_packIXsrSt10tuple_sizeISA_E5valueEEE_EEEOS9_OSA_
FNDA:0,_ZN7testing8internal5ApplyIRKSt8functionIFvmEESt5tupleIJmEEEEDTcl9ApplyImplcl7forwardIT_Efp_Ecl7forwardIT0_Efp0_EcvNS0_13make_int_packIXsrSt10tuple_sizeISA_E5valueEEE_EEEOS9_OSA_
FN:525,_ZN7testing8internal5ApplyIRKSt8functionIFvvEESt5tupleIJEEEEDTcl9ApplyImplcl7forwardIT_Efp_Ecl7forwardIT0_Efp0_EcvNS0_13make_int_packIXsrSt10tuple_sizeISA_E5valueEEE_EEEOS9_OSA_
FNDA:0,_ZN7testing8internal5ApplyIRKSt8functionIFvvEESt5tupleIJEEEEDTcl9ApplyImplcl7forwardIT_Efp_Ecl7forwardIT0_Efp0_EcvNS0_13make_int_packIXsrSt10tuple_sizeISA_E5valueEEE_EEEOS9_OSA_
FN:525,_ZN7testing8internal5ApplyIRKSt8functionIFivEESt5tupleIJEEEEDTcl9ApplyImplcl7forwardIT_Efp_Ecl7forwardIT0_Efp0_EcvNS0_13make_int_packIXsrSt10tuple_sizeISA_E5valueEEE_EEEOS9_OSA_
FNDA:0,_ZN7testing8internal5ApplyIRKSt8functionIFivEESt5tupleIJEEEEDTcl9ApplyImplcl7forwardIT_Efp_Ecl7forwardIT0_Efp0_EcvNS0_13make_int_packIXsrSt10tuple_sizeISA_E5valueEEE_EEEOS9_OSA_
FN:525,_ZN7testing8internal5ApplyIRKSt8functionIFmhEESt5tupleIJhEEEEDTcl9ApplyImplcl7forwardIT_Efp_Ecl7forwardIT0_Efp0_EcvNS0_13make_int_packIXsrSt10tuple_sizeISA_E5valueEEE_EEEOS9_OSA_
FNDA:0,_ZN7testing8internal5ApplyIRKSt8functionIFmhEESt5tupleIJhEEEEDTcl9ApplyImplcl7forwardIT_Efp_Ecl7forwardIT0_Efp0_EcvNS0_13make_int_packIXsrSt10tuple_sizeISA_E5valueEEE_EEEOS9_OSA_
FN:525,_ZN7testing8internal5ApplyIRKSt8functionIFmPKhmEESt5tupleIJS4_mEEEEDTcl9ApplyImplcl7forwardIT_Efp_Ecl7forwardIT0_Efp0_EcvNS0_13make_int_packIXsrSt10tuple_sizeISC_E5valueEEE_EEEOSB_OSC_
FNDA:0,_ZN7testing8internal5ApplyIRKSt8functionIFmPKhmEESt5tupleIJS4_mEEEEDTcl9ApplyImplcl7forwardIT_Efp_Ecl7forwardIT0_Efp0_EcvNS0_13make_int_packIXsrSt10tuple_sizeISC_E5valueEEE_EEEOSB_OSC_
FN:525,_ZN7testing8internal5ApplyIRKSt8functionIFvhhEESt5tupleIJhhEEEEDTcl9ApplyImplcl7forwardIT_Efp_Ecl7forwardIT0_Efp0_EcvNS0_13make_int_packIXsrSt10tuple_sizeISA_E5valueEEE_EEEOS9_OSA_
FNDA:0,_ZN7testing8internal5ApplyIRKSt8functionIFvhhEESt5tupleIJhhEEEEDTcl9ApplyImplcl7forwardIT_Efp_Ecl7forwardIT0_Efp0_EcvNS0_13make_int_packIXsrSt10tuple_sizeISA_E5valueEEE_EEEOS9_OSA_
FN:525,_ZN7testing8internal5ApplyIRKSt8functionIFihEESt5tupleIJhEEEEDTcl9ApplyImplcl7forwardIT_Efp_Ecl7forwardIT0_Efp0_EcvNS0_13make_int_packIXsrSt10tuple_sizeISA_E5valueEEE_EEEOS9_OSA_
FNDA:212,_ZN7testing8internal5ApplyIRKSt8functionIFihEESt5tupleIJhEEEEDTcl9ApplyImplcl7forwardIT_Efp_Ecl7forwardIT0_Efp0_EcvNS0_13make_int_packIXsrSt10tuple_sizeISA_E5valueEEE_EEEOS9_OSA_
FN:525,_ZN7testing8internal5ApplyIRKSt8functionIFvhiEESt5tupleIJhiEEEEDTcl9ApplyImplcl7forwardIT_Efp_Ecl7forwardIT0_Efp0_EcvNS0_13make_int_packIXsrSt10tuple_sizeISA_E5valueEEE_EEEOS9_OSA_
FNDA:0,_ZN7testing8internal5ApplyIRKSt8functionIFvhiEESt5tupleIJhiEEEEDTcl9ApplyImplcl7forwardIT_Efp_Ecl7forwardIT0_Efp0_EcvNS0_13make_int_packIXsrSt10tuple_sizeISA_E5valueEEE_EEEOS9_OSA_
FN:525,_ZN7testing8internal5ApplyIRKSt8functionIFmvEESt5tupleIJEEEEDTcl9ApplyImplcl7forwardIT_Efp_Ecl7forwardIT0_Efp0_EcvNS0_13make_int_packIXsrSt10tuple_sizeISA_E5valueEEE_EEEOS9_OSA_
FNDA:189,_ZN7testing8internal5ApplyIRKSt8functionIFmvEESt5tupleIJEEEEDTcl9ApplyImplcl7forwardIT_Efp_Ecl7forwardIT0_Efp0_EcvNS0_13make_int_packIXsrSt10tuple_sizeISA_E5valueEEE_EEEOS9_OSA_
DA:285,0
DA:287,0
DA:288,0
DA:289,0
DA:291,0
DA:518,0
DA:520,0
DA:518,0
DA:520,0
DA:518,0
DA:520,0
DA:518,0
DA:520,0
DA:518,0
DA:520,0
DA:518,0
DA:520,0
DA:518,212
DA:520,212
DA:518,0
DA:520,0
DA:518,189
DA:520,189
DA:525,0
DA:528,0
DA:529,0
DA:525,0
DA:528,0
DA:529,0
DA:525,0
DA:528,0
DA:529,0
DA:525,0
DA:528,0
DA:529,0
DA:525,0
DA:528,0
DA:529,0
DA:525,0
DA:528,0
DA:529,0
DA:525,212
DA:528,424
DA:529,424
DA:525,0
DA:528,0
DA:529,0
DA:525,189
DA:528,378
DA:529,378
end_of_record
SF:/usr/include/c++/9/bits/stl_vector.h
FN:94,_ZNSt12_Vector_baseIPKvSaIS1_EE17_Vector_impl_dataC2Ev
FNDA:0,_ZNSt12_Vector_baseIPKvSaIS1_EE17_Vector_impl_dataC2Ev
FN:106,_ZNSt12_Vector_baseIPKvSaIS1_EE17_Vector_impl_data12_M_copy_dataERKS4_
FNDA:0,_ZNSt12_Vector_baseIPKvSaIS1_EE17_Vector_impl_data12_M_copy_dataERKS4_
FN:114,_ZNSt12_Vector_baseIPKvSaIS1_EE17_Vector_impl_data12_M_swap_dataERS4_
FNDA:0,_ZNSt12_Vector_baseIPKvSaIS1_EE17_Vector_impl_data12_M_swap_dataERS4_
FN:128,_ZNSt12_Vector_baseIPKvSaIS1_EE12_Vector_implC2Ev
FNDA:0,_ZNSt12_Vector_baseIPKvSaIS1_EE12_Vector_implC2Ev
FN:273,_ZNSt12_Vector_baseIPKvSaIS1_EE19_M_get_Tp_allocatorEv
FNDA:0,_ZNSt12_Vector_baseIPKvSaIS1_EE19_M_get_Tp_allocatorEv
FN:285,_ZNSt12_Vector_baseIPKvSaIS1_EEC2Ev
FNDA:0,_ZNSt12_Vector_baseIPKvSaIS1_EEC2Ev
FN:330,_ZNSt12_Vector_baseIPKvSaIS1_EED2Ev
FNDA:0,_ZNSt12_Vector_baseIPKvSaIS1_EED2Ev
FN:347,_ZNSt12_Vector_baseIPKvSaIS1_EE13_M_deallocateEPS1_m
FNDA:0,_ZNSt12_Vector_baseIPKvSaIS1_EE13_M_deallocateEPS1_m
FN:484,_ZNSt6vectorIPKvSaIS1_EEC2Ev
FNDA:0,_ZNSt6vectorIPKvSaIS1_EEC2Ev
FN:675,_ZNSt6vectorIPKvSaIS1_EED2Ev
FNDA:0,_ZNSt6vectorIPKvSaIS1_EED2Ev
FN:808,_ZNSt6vectorIPKvSaIS1_EE5beginEv
FNDA:0,_ZNSt6vectorIPKvSaIS1_EE5beginEv
FN:817,_ZNKSt6vectorIPKvSaIS1_EE5beginEv
FNDA:0,_ZNKSt6vectorIPKvSaIS1_EE5beginEv
FN:817,_ZNKSt6vectorISt10shared_ptrIN7testing8internal15ExpectationBaseEESaIS4_EE5beginEv
FNDA:0,_ZNKSt6vectorISt10shared_ptrIN7testing8internal15ExpectationBaseEESaIS4_EE5beginEv
FN:826,_ZNSt6vectorIPKvSaIS1_EE3endEv
FNDA:0,_ZNSt6vectorIPKvSaIS1_EE3endEv
FN:835,_ZNKSt6vectorIPKvSaIS1_EE3endEv
FNDA:0,_ZNKSt6vectorIPKvSaIS1_EE3endEv
FN:835,_ZNKSt6vectorISt10shared_ptrIN7testing8internal15ExpectationBaseEESaIS4_EE3endEv
FNDA:0,_ZNKSt6vectorISt10shared_ptrIN7testing8internal15ExpectationBaseEESaIS4_EE3endEv
FN:853,_ZNKSt6vectorISt10shared_ptrIN7testing8internal15ExpectationBaseEESaIS4_EE6rbeginEv
FNDA:0,_ZNKSt6vectorISt10shared_ptrIN7testing8internal15ExpectationBaseEESaIS4_EE6rbeginEv
FN:853,_ZNKSt6vectorIPKvSaIS1_EE6rbeginEv
FNDA:0,_ZNKSt6vectorIPKvSaIS1_EE6rbeginEv
FN:871,_ZNKSt6vectorISt10shared_ptrIN7testing8internal15ExpectationBaseEESaIS4_EE4rendEv
FNDA:0,_ZNKSt6vectorISt10shared_ptrIN7testing8internal15ExpectationBaseEESaIS4_EE4rendEv
FN:871,_ZNKSt6vectorIPKvSaIS1_EE4rendEv
FNDA:0,_ZNKSt6vectorIPKvSaIS1_EE4rendEv
FN:915,_ZNKSt6vectorIPKvSaIS1_EE4sizeEv
FNDA:0,_ZNKSt6vectorIPKvSaIS1_EE4sizeEv
FN:915,_ZNKSt6vectorISt10shared_ptrIN7testing8internal15ExpectationBaseEESaIS4_EE4sizeEv
FNDA:0,_ZNKSt6vectorISt10shared_ptrIN7testing8internal15ExpectationBaseEESaIS4_EE4sizeEv
FN:1058,_ZNKSt6vectorISt10shared_ptrIN7testing8internal15ExpectationBaseEESaIS4_EEixEm
FNDA:0,_ZNKSt6vectorISt10shared_ptrIN7testing8internal15ExpectationBaseEESaIS4_EEixEm
FN:1058,_ZNKSt6vectorIPKvSaIS1_EEixEm
FNDA:0,_ZNKSt6vectorIPKvSaIS1_EEixEm
FN:1477,_ZNSt6vectorIPKvSaIS1_EE4swapERS3_
FNDA:0,_ZNSt6vectorIPKvSaIS1_EE4swapERS3_
DA:94,0
DA:95,0
DA:96,0
DA:106,0
DA:108,0
DA:109,0
DA:110,0
DA:111,0
DA:114,0
DA:118,0
DA:119,0
DA:120,0
DA:121,0
DA:122,0
DA:128,0
DA:130,0
DA:131,0
DA:273,0
DA:274,0
DA:285,0
DA:330,0
DA:332,0
DA:333,0
DA:334,0
DA:347,0
DA:350,0
DA:351,0
DA:352,0
DA:484,0
DA:675,0
DA:677,0
DA:678,0
DA:680,0
DA:808,0
DA:809,0
DA:817,0
DA:818,0
DA:817,0
DA:818,0
DA:826,0
DA:827,0
DA:835,0
DA:836,0
DA:835,0
DA:836,0
DA:853,0
DA:854,0
DA:853,0
DA:854,0
DA:871,0
DA:872,0
DA:871,0
DA:872,0
DA:915,0
DA:916,0
DA:915,0
DA:916,0
DA:1058,0
DA:1061,0
DA:1058,0
DA:1061,0
DA:1477,0
DA:1483,0
DA:1484,0
DA:1486,0
end_of_record
SF:/home/pieter/GitHub/Control-Surface/ArduinoMock/ArduinoMock.cpp
FN:5,_ZN11ArduinoMock11getInstanceEv
FNDA:1179,_ZN11ArduinoMock11getInstanceEv
FN:10,_ZN11ArduinoMock5beginEv
FNDA:1,_ZN11ArduinoMock5beginEv
FN:15,_ZN11ArduinoMock3endEv
FNDA:1,_ZN11ArduinoMock3endEv
FN:22,_ZN11ArduinoMock9getSerialEv
FNDA:10,_ZN11ArduinoMock9getSerialEv
DA:5,1179
DA:6,1179
DA:7,0
DA:8,1179
DA:10,1
DA:11,1
DA:12,0
DA:13,1
DA:14,1
DA:15,1
DA:16,1
DA:17,0
DA:18,1
DA:19,1
DA:20,1
DA:22,10
DA:23,10
end_of_record
SF:/usr/include/c++/9/bits/std_function.h
FN:255,_ZNSt14_Function_baseC2Ev
FNDA:0,_ZNSt14_Function_baseC2Ev
FN:257,_ZNSt14_Function_baseD2Ev
FNDA:0,_ZNSt14_Function_baseD2Ev
FN:263,_ZNKSt14_Function_base8_M_emptyEv
FNDA:0,_ZNKSt14_Function_base8_M_emptyEv
FN:566,_ZNKSt8functionIFihEEcvbEv
FNDA:0,_ZNKSt8functionIFihEEcvbEv
FN:566,_ZNKSt8functionIFvhhEEcvbEv
FNDA:175,_ZNKSt8functionIFvhhEEcvbEv
FN:566,_ZNKSt8functionIFvhiEEcvbEv
FNDA:0,_ZNKSt8functionIFvhiEEcvbEv
FN:566,_ZNKSt8functionIFmPKhmEEcvbEv
FNDA:4,_ZNKSt8functionIFmPKhmEEcvbEv
FN:566,_ZNKSt8functionIFmvEEcvbEv
FNDA:0,_ZNKSt8functionIFmvEEcvbEv
FN:566,_ZNKSt8functionIFmhEEcvbEv
FNDA:1,_ZNKSt8functionIFmhEEcvbEv
FN:566,_ZNKSt8functionIFivEEcvbEv
FNDA:0,_ZNKSt8functionIFivEEcvbEv
FN:566,_ZNKSt8functionIFvvEEcvbEv
FNDA:0,_ZNKSt8functionIFvvEEcvbEv
FN:566,_ZNKSt8functionIFvmEEcvbEv
FNDA:0,_ZNKSt8functionIFvmEEcvbEv
FN:655,_ZNSt8functionIFivEEC2ERKS1_
FNDA:0,_ZNSt8functionIFivEEC2ERKS1_
FN:655,_ZNSt8functionIFvvEEC2ERKS1_
FNDA:0,_ZNSt8functionIFvvEEC2ERKS1_
FN:655,_ZNSt8functionIFmhEEC2ERKS1_
FNDA:0,_ZNSt8functionIFmhEEC2ERKS1_
FN:655,_ZNSt8functionIFvmEEC2ERKS1_
FNDA:0,_ZNSt8functionIFvmEEC2ERKS1_
FN:655,_ZNSt8functionIFmPKhmEEC2ERKS3_
FNDA:0,_ZNSt8functionIFmPKhmEEC2ERKS3_
FN:655,_ZNSt8functionIFvhhEEC2ERKS1_
FNDA:0,_ZNSt8functionIFvhhEEC2ERKS1_
FN:655,_ZNSt8functionIFihEEC2ERKS1_
FNDA:0,_ZNSt8functionIFihEEC2ERKS1_
FN:655,_ZNSt8functionIFvhiEEC2ERKS1_
FNDA:0,_ZNSt8functionIFvhiEEC2ERKS1_
FN:655,_ZNSt8functionIFmvEEC2ERKS1_
FNDA:0,_ZNSt8functionIFmvEEC2ERKS1_
FN:685,_ZNKSt8functionIFvvEEclEv
FNDA:0,_ZNKSt8functionIFvvEEclEv
FN:685,_ZNKSt8functionIFvmEEclEm
FNDA:0,_ZNKSt8functionIFvmEEclEm
FN:685,_ZNKSt8functionIFivEEclEv
FNDA:0,_ZNKSt8functionIFivEEclEv
FN:685,_ZNKSt8functionIFmhEEclEh
FNDA:0,_ZNKSt8functionIFmhEEclEh
FN:685,_ZNKSt8functionIFmPKhmEEclES1_m
FNDA:0,_ZNKSt8functionIFmPKhmEEclES1_m
FN:685,_ZNKSt8functionIFvhhEEclEhh
FNDA:0,_ZNKSt8functionIFvhhEEclEhh
FN:685,_ZNKSt8functionIFihEEclEh
FNDA:212,_ZNKSt8functionIFihEEclEh
FN:685,_ZNKSt8functionIFvhiEEclEhi
FNDA:0,_ZNKSt8functionIFvhiEEclEhi
FN:685,_ZNKSt8functionIFmvEEclEv
FNDA:189,_ZNKSt8functionIFmvEEclEv
FN:748,_ZSteqIvJmEEbRKSt8functionIFT_DpT0_EEDn
FNDA:0,_ZSteqIvJmEEbRKSt8functionIFT_DpT0_EEDn
FN:748,_ZSteqIiJhEEbRKSt8functionIFT_DpT0_EEDn
FNDA:441,_ZSteqIiJhEEbRKSt8functionIFT_DpT0_EEDn
FN:748,_ZSteqIvJEEbRKSt8functionIFT_DpT0_EEDn
FNDA:0,_ZSteqIvJEEbRKSt8functionIFT_DpT0_EEDn
FN:748,_ZSteqIiJEEbRKSt8functionIFT_DpT0_EEDn
FNDA:0,_ZSteqIiJEEbRKSt8functionIFT_DpT0_EEDn
FN:748,_ZSteqImJhEEbRKSt8functionIFT_DpT0_EEDn
FNDA:1,_ZSteqImJhEEbRKSt8functionIFT_DpT0_EEDn
FN:748,_ZSteqImJPKhmEEbRKSt8functionIFT_DpT0_EEDn
FNDA:4,_ZSteqImJPKhmEEbRKSt8functionIFT_DpT0_EEDn
FN:748,_ZSteqImJEEbRKSt8functionIFT_DpT0_EEDn
FNDA:378,_ZSteqImJEEbRKSt8functionIFT_DpT0_EEDn
FN:748,_ZSteqIvJhhEEbRKSt8functionIFT_DpT0_EEDn
FNDA:175,_ZSteqIvJhhEEbRKSt8functionIFT_DpT0_EEDn
FN:748,_ZSteqIvJhiEEbRKSt8functionIFT_DpT0_EEDn
FNDA:0,_ZSteqIvJhiEEbRKSt8functionIFT_DpT0_EEDn
DA:255,0
DA:257,0
DA:258,0
DA:259,0
DA:260,0
DA:261,0
DA:263,0
DA:566,0
DA:567,0
DA:566,0
DA:567,0
DA:566,0
DA:567,0
DA:566,1
DA:567,1
DA:566,4
DA:567,4
DA:566,175
DA:567,175
DA:566,0
DA:567,0
DA:566,0
DA:567,0
DA:566,0
DA:567,0
DA:655,0
DA:657,0
DA:659,0
DA:661,0
DA:662,0
DA:663,0
DA:665,0
DA:655,0
DA:657,0
DA:659,0
DA:661,0
DA:662,0
DA:663,0
DA:665,0
DA:655,0
DA:657,0
DA:659,0
DA:661,0
DA:662,0
DA:663,0
DA:665,0
DA:655,0
DA:657,0
DA:659,0
DA:661,0
DA:662,0
DA:663,0
DA:665,0
DA:655,0
DA:657,0
DA:659,0
DA:661,0
DA:662,0
DA:663,0
DA:665,0
DA:655,0
DA:657,0
DA:659,0
DA:661,0
DA:662,0
DA:663,0
DA:665,0
DA:655,0
DA:657,0
DA:659,0
DA:661,0
DA:662,0
DA:663,0
DA:665,0
DA:655,0
DA:657,0
DA:659,0
DA:661,0
DA:662,0
DA:663,0
DA:665,0
DA:655,0
DA:657,0
DA:659,0
DA:661,0
DA:662,0
DA:663,0
DA:665,0
DA:685,0
DA:688,0
DA:689,0
DA:690,0
DA:685,0
DA:688,0
DA:689,0
DA:690,0
DA:685,0
DA:688,0
DA:689,0
DA:690,0
DA:685,0
DA:688,0
DA:689,0
DA:690,0
DA:685,0
DA:688,0
DA:689,0
DA:690,0
DA:685,0
DA:688,0
DA:689,0
DA:690,0
DA:685,212
DA:688,212
DA:689,0
DA:690,212
DA:685,0
DA:688,0
DA:689,0
DA:690,0
DA:685,189
DA:688,189
DA:689,0
DA:690,189
DA:748,0
DA:749,0
DA:748,0
DA:749,0
DA:748,0
DA:749,0
DA:748,1
DA:749,1
DA:748,4
DA:749,4
DA:748,175
DA:749,175
DA:748,441
DA:749,441
DA:748,0
DA:749,0
DA:748,378
DA:749,378
end_of_record
SF:/usr/include/c++/9/bits/stl_iterator_base_funcs.h
FN:98,_ZSt10__distanceIPcENSt15iterator_traitsIT_E15difference_typeES2_S2_St26random_access_iterator_tag
FNDA:0,_ZSt10__distanceIPcENSt15iterator_traitsIT_E15difference_typeES2_S2_St26random_access_iterator_tag
FN:98,_ZSt10__distanceIPKcENSt15iterator_traitsIT_E15difference_typeES3_S3_St26random_access_iterator_tag
FNDA:0,_ZSt10__distanceIPKcENSt15iterator_traitsIT_E15difference_typeES3_S3_St26random_access_iterator_tag
FN:138,_ZSt8distanceIPcENSt15iterator_traitsIT_E15difference_typeES2_S2_
FNDA:0,_ZSt8distanceIPcENSt15iterator_traitsIT_E15difference_typeES2_S2_
FN:138,_ZSt8distanceIPKcENSt15iterator_traitsIT_E15difference_typeES3_S3_
FNDA:0,_ZSt8distanceIPKcENSt15iterator_traitsIT_E15difference_typeES3_S3_
DA:98,0
DA:104,0
DA:98,0
DA:104,0
DA:138,0
DA:141,0
DA:142,0
DA:138,0
DA:141,0
DA:142,0
end_of_record
SF:/home/pieter/GitHub/Control-Surface/build/googletest/googletest-src/googlemock/include/gmock/gmock-spec-builders.h
FN:257,_ZNK7testing8internal21UntypedOnCallSpecBase4fileEv
FNDA:0,_ZNK7testing8internal21UntypedOnCallSpecBase4fileEv
FN:258,_ZNK7testing8internal21UntypedOnCallSpecBase4lineEv
FNDA:0,_ZNK7testing8internal21UntypedOnCallSpecBase4lineEv
FN:271,_ZNK7testing8internal21UntypedOnCallSpecBase18AssertSpecPropertyEbRKNSt7__cxx1112basic_stringIcSt11char_traitsIcESaIcEEE
FNDA:0,_ZNK7testing8internal21UntypedOnCallSpecBase18AssertSpecPropertyEbRKNSt7__cxx1112basic_stringIcSt11char_traitsIcESaIcEEE
FN:334,_ZNK7testing8internal10OnCallSpecIFvhiEE7MatchesERKSt5tupleIJhiEE
FNDA:0,_ZNK7testing8internal10OnCallSpecIFvhiEE7MatchesERKSt5tupleIJhiEE
FN:334,_ZNK7testing8internal10OnCallSpecIFmPKhmEE7MatchesERKSt5tupleIJS3_mEE
FNDA:0,_ZNK7testing8internal10OnCallSpecIFmPKhmEE7MatchesERKSt5tupleIJS3_mEE
FN:334,_ZNK7testing8internal10OnCallSpecIFvmEE7MatchesERKSt5tupleIJmEE
FNDA:0,_ZNK7testing8internal10OnCallSpecIFvmEE7MatchesERKSt5tupleIJmEE
FN:334,_ZNK7testing8internal10OnCallSpecIFihEE7MatchesERKSt5tupleIJhEE
FNDA:0,_ZNK7testing8internal10OnCallSpecIFihEE7MatchesERKSt5tupleIJhEE
FN:334,_ZNK7testing8internal10OnCallSpecIFmvEE7MatchesERKSt5tupleIJEE
FNDA:0,_ZNK7testing8internal10OnCallSpecIFmvEE7MatchesERKSt5tupleIJEE
FN:334,_ZNK7testing8internal10OnCallSpecIFvvEE7MatchesERKSt5tupleIJEE
FNDA:0,_ZNK7testing8internal10OnCallSpecIFvvEE7MatchesERKSt5tupleIJEE
FN:334,_ZNK7testing8internal10OnCallSpecIFmhEE7MatchesERKSt5tupleIJhEE
FNDA:0,_ZNK7testing8internal10OnCallSpecIFmhEE7MatchesERKSt5tupleIJhEE
FN:334,_ZNK7testing8internal10OnCallSpecIFivEE7MatchesERKSt5tupleIJEE
FNDA:0,_ZNK7testing8internal10OnCallSpecIFivEE7MatchesERKSt5tupleIJEE
FN:334,_ZNK7testing8internal10OnCallSpecIFvhhEE7MatchesERKSt5tupleIJhhEE
FNDA:0,_ZNK7testing8internal10OnCallSpecIFvhhEE7MatchesERKSt5tupleIJhhEE
FN:339,_ZNK7testing8internal10OnCallSpecIFmPKhmEE9GetActionEv
FNDA:0,_ZNK7testing8internal10OnCallSpecIFmPKhmEE9GetActionEv
FN:339,_ZNK7testing8internal10OnCallSpecIFmvEE9GetActionEv
FNDA:0,_ZNK7testing8internal10OnCallSpecIFmvEE9GetActionEv
FN:339,_ZNK7testing8internal10OnCallSpecIFmhEE9GetActionEv
FNDA:0,_ZNK7testing8internal10OnCallSpecIFmhEE9GetActionEv
FN:339,_ZNK7testing8internal10OnCallSpecIFivEE9GetActionEv
FNDA:0,_ZNK7testing8internal10OnCallSpecIFivEE9GetActionEv
FN:339,_ZNK7testing8internal10OnCallSpecIFvhhEE9GetActionEv
FNDA:0,_ZNK7testing8internal10OnCallSpecIFvhhEE9GetActionEv
FN:339,_ZNK7testing8internal10OnCallSpecIFvvEE9GetActionEv
FNDA:0,_ZNK7testing8internal10OnCallSpecIFvvEE9GetActionEv
FN:339,_ZNK7testing8internal10OnCallSpecIFvhiEE9GetActionEv
FNDA:0,_ZNK7testing8internal10OnCallSpecIFvhiEE9GetActionEv
FN:339,_ZNK7testing8internal10OnCallSpecIFvmEE9GetActionEv
FNDA:0,_ZNK7testing8internal10OnCallSpecIFvmEE9GetActionEv
FN:339,_ZNK7testing8internal10OnCallSpecIFihEE9GetActionEv
FNDA:0,_ZNK7testing8internal10OnCallSpecIFihEE9GetActionEv
FN:550,_ZNK7testing11Expectation16expectation_baseEv
FNDA:0,_ZNK7testing11Expectation16expectation_baseEv
FN:580,_ZN7testing14ExpectationSetC2Ev
FNDA:0,_ZN7testing14ExpectationSetC2Ev
FN:616,_ZNK7testing14ExpectationSet5beginEv
FNDA:0,_ZNK7testing14ExpectationSet5beginEv
FN:617,_ZNK7testing14ExpectationSet3endEv
FNDA:0,_ZNK7testing14ExpectationSet3endEv
FN:703,_ZNK7testing8internal15ExpectationBase4fileEv
FNDA:0,_ZNK7testing8internal15ExpectationBase4fileEv
FN:704,_ZNK7testing8internal15ExpectationBase4lineEv
FNDA:0,_ZNK7testing8internal15ExpectationBase4lineEv
FN:705,_ZNK7testing8internal15ExpectationBase11source_textEv
FNDA:0,_ZNK7testing8internal15ExpectationBase11source_textEv
FN:707,_ZNK7testing8internal15ExpectationBase11cardinalityEv
FNDA:0,_ZNK7testing8internal15ExpectationBase11cardinalityEv
FN:710,_ZNK7testing8internal15ExpectationBase18DescribeLocationToEPSo
FNDA:0,_ZNK7testing8internal15ExpectationBase18DescribeLocationToEPSo
FN:779,_ZNK7testing8internal15ExpectationBase10is_retiredEv
FNDA:0,_ZNK7testing8internal15ExpectationBase10is_retiredEv
FN:786,_ZN7testing8internal15ExpectationBase6RetireEv
FNDA:0,_ZN7testing8internal15ExpectationBase6RetireEv
FN:800,_ZNK7testing8internal15ExpectationBase11IsSaturatedEv
FNDA:0,_ZNK7testing8internal15ExpectationBase11IsSaturatedEv
FN:822,_ZNK7testing8internal15ExpectationBase10call_countEv
FNDA:0,_ZNK7testing8internal15ExpectationBase10call_countEv
FN:829,_ZN7testing8internal15ExpectationBase18IncrementCallCountEv
FNDA:0,_ZN7testing8internal15ExpectationBase18IncrementCallCountEv
FN:1064,_ZNK7testing8internal16TypedExpectationIFmvEE15repeated_actionEv
FNDA:85,_ZNK7testing8internal16TypedExpectationIFmvEE15repeated_actionEv
FN:1064,_ZNK7testing8internal16TypedExpectationIFvmEE15repeated_actionEv
FNDA:0,_ZNK7testing8internal16TypedExpectationIFvmEE15repeated_actionEv
FN:1064,_ZNK7testing8internal16TypedExpectationIFvhiEE15repeated_actionEv
FNDA:0,_ZNK7testing8internal16TypedExpectationIFvhiEE15repeated_actionEv
FN:1064,_ZNK7testing8internal16TypedExpectationIFvvEE15repeated_actionEv
FNDA:0,_ZNK7testing8internal16TypedExpectationIFvvEE15repeated_actionEv
FN:1064,_ZNK7testing8internal16TypedExpectationIFivEE15repeated_actionEv
FNDA:0,_ZNK7testing8internal16TypedExpectationIFivEE15repeated_actionEv
FN:1064,_ZNK7testing8internal16TypedExpectationIFmhEE15repeated_actionEv
FNDA:1,_ZNK7testing8internal16TypedExpectationIFmhEE15repeated_actionEv
FN:1064,_ZNK7testing8internal16TypedExpectationIFmPKhmEE15repeated_actionEv
FNDA:4,_ZNK7testing8internal16TypedExpectationIFmPKhmEE15repeated_actionEv
FN:1064,_ZNK7testing8internal16TypedExpectationIFvhhEE15repeated_actionEv
FNDA:175,_ZNK7testing8internal16TypedExpectationIFvhhEE15repeated_actionEv
FN:1064,_ZNK7testing8internal16TypedExpectationIFihEE15repeated_actionEv
FNDA:17,_ZNK7testing8internal16TypedExpectationIFihEE15repeated_actionEv
FN:1089,_ZNK7testing8internal16TypedExpectationIFmPKhmEE7MatchesERKSt5tupleIJS3_mEE
FNDA:5,_ZNK7testing8internal16TypedExpectationIFmPKhmEE7MatchesERKSt5tupleIJS3_mEE
FN:1089,_ZNK7testing8internal16TypedExpectationIFvmEE7MatchesERKSt5tupleIJmEE
FNDA:0,_ZNK7testing8internal16TypedExpectationIFvmEE7MatchesERKSt5tupleIJmEE
FN:1089,_ZNK7testing8internal16TypedExpectationIFvhiEE7MatchesERKSt5tupleIJhiEE
FNDA:0,_ZNK7testing8internal16TypedExpectationIFvhiEE7MatchesERKSt5tupleIJhiEE
FN:1089,_ZNK7testing8internal16TypedExpectationIFvvEE7MatchesERKSt5tupleIJEE
FNDA:0,_ZNK7testing8internal16TypedExpectationIFvvEE7MatchesERKSt5tupleIJEE
FN:1089,_ZNK7testing8internal16TypedExpectationIFihEE7MatchesERKSt5tupleIJhEE
FNDA:295,_ZNK7testing8internal16TypedExpectationIFihEE7MatchesERKSt5tupleIJhEE
FN:1089,_ZNK7testing8internal16TypedExpectationIFivEE7MatchesERKSt5tupleIJEE
FNDA:0,_ZNK7testing8internal16TypedExpectationIFivEE7MatchesERKSt5tupleIJEE
FN:1089,_ZNK7testing8internal16TypedExpectationIFmhEE7MatchesERKSt5tupleIJhEE
FNDA:1,_ZNK7testing8internal16TypedExpectationIFmhEE7MatchesERKSt5tupleIJhEE
FN:1089,_ZNK7testing8internal16TypedExpectationIFvhhEE7MatchesERKSt5tupleIJhhEE
FNDA:414,_ZNK7testing8internal16TypedExpectationIFvhhEE7MatchesERKSt5tupleIJhhEE
FN:1089,_ZNK7testing8internal16TypedExpectationIFmvEE7MatchesERKSt5tupleIJEE
FNDA:189,_ZNK7testing8internal16TypedExpectationIFmvEE7MatchesERKSt5tupleIJEE
FN:1096,_ZNK7testing8internal16TypedExpectationIFvmEE21ShouldHandleArgumentsERKSt5tupleIJmEE
FNDA:0,_ZNK7testing8internal16TypedExpectationIFvmEE21ShouldHandleArgumentsERKSt5tupleIJmEE
FN:1096,_ZNK7testing8internal16TypedExpectationIFvvEE21ShouldHandleArgumentsERKSt5tupleIJEE
FNDA:0,_ZNK7testing8internal16TypedExpectationIFvvEE21ShouldHandleArgumentsERKSt5tupleIJEE
FN:1096,_ZNK7testing8internal16TypedExpectationIFmvEE21ShouldHandleArgumentsERKSt5tupleIJEE
FNDA:189,_ZNK7testing8internal16TypedExpectationIFmvEE21ShouldHandleArgumentsERKSt5tupleIJEE
FN:1096,_ZNK7testing8internal16TypedExpectationIFivEE21ShouldHandleArgumentsERKSt5tupleIJEE
FNDA:0,_ZNK7testing8internal16TypedExpectationIFivEE21ShouldHandleArgumentsERKSt5tupleIJEE
FN:1096,_ZNK7testing8internal16TypedExpectationIFvhiEE21ShouldHandleArgumentsERKSt5tupleIJhiEE
FNDA:0,_ZNK7testing8internal16TypedExpectationIFvhiEE21ShouldHandleArgumentsERKSt5tupleIJhiEE
FN:1096,_ZNK7testing8internal16TypedExpectationIFihEE21ShouldHandleArgumentsERKSt5tupleIJhEE
FNDA:295,_ZNK7testing8internal16TypedExpectationIFihEE21ShouldHandleArgumentsERKSt5tupleIJhEE
FN:1096,_ZNK7testing8internal16TypedExpectationIFvhhEE21ShouldHandleArgumentsERKSt5tupleIJhhEE
FNDA:436,_ZNK7testing8internal16TypedExpectationIFvhhEE21ShouldHandleArgumentsERKSt5tupleIJhhEE
FN:1096,_ZNK7testing8internal16TypedExpectationIFmPKhmEE21ShouldHandleArgumentsERKSt5tupleIJS3_mEE
FNDA:5,_ZNK7testing8internal16TypedExpectationIFmPKhmEE21ShouldHandleArgumentsERKSt5tupleIJS3_mEE
FN:1096,_ZNK7testing8internal16TypedExpectationIFmhEE21ShouldHandleArgumentsERKSt5tupleIJhEE
FNDA:1,_ZNK7testing8internal16TypedExpectationIFmhEE21ShouldHandleArgumentsERKSt5tupleIJhEE
FN:1110,_ZNK7testing8internal16TypedExpectationIFvmEE20ExplainMatchResultToERKSt5tupleIJmEEPSo
FNDA:0,_ZNK7testing8internal16TypedExpectationIFvmEE20ExplainMatchResultToERKSt5tupleIJmEEPSo
FN:1110,_ZNK7testing8internal16TypedExpectationIFvvEE20ExplainMatchResultToERKSt5tupleIJEEPSo
FNDA:0,_ZNK7testing8internal16TypedExpectationIFvvEE20ExplainMatchResultToERKSt5tupleIJEEPSo
FN:1110,_ZNK7testing8internal16TypedExpectationIFivEE20ExplainMatchResultToERKSt5tupleIJEEPSo
FNDA:0,_ZNK7testing8internal16TypedExpectationIFivEE20ExplainMatchResultToERKSt5tupleIJEEPSo
FN:1110,_ZNK7testing8internal16TypedExpectationIFmhEE20ExplainMatchResultToERKSt5tupleIJhEEPSo
FNDA:0,_ZNK7testing8internal16TypedExpectationIFmhEE20ExplainMatchResultToERKSt5tupleIJhEEPSo
FN:1110,_ZNK7testing8internal16TypedExpectationIFmPKhmEE20ExplainMatchResultToERKSt5tupleIJS3_mEEPSo
FNDA:0,_ZNK7testing8internal16TypedExpectationIFmPKhmEE20ExplainMatchResultToERKSt5tupleIJS3_mEEPSo
FN:1110,_ZNK7testing8internal16TypedExpectationIFmvEE20ExplainMatchResultToERKSt5tupleIJEEPSo
FNDA:0,_ZNK7testing8internal16TypedExpectationIFmvEE20ExplainMatchResultToERKSt5tupleIJEEPSo
FN:1110,_ZNK7testing8internal16TypedExpectationIFvhhEE20ExplainMatchResultToERKSt5tupleIJhhEEPSo
FNDA:0,_ZNK7testing8internal16TypedExpectationIFvhhEE20ExplainMatchResultToERKSt5tupleIJhhEEPSo
FN:1110,_ZNK7testing8internal16TypedExpectationIFvhiEE20ExplainMatchResultToERKSt5tupleIJhiEEPSo
FNDA:0,_ZNK7testing8internal16TypedExpectationIFvhiEE20ExplainMatchResultToERKSt5tupleIJhiEEPSo
FN:1110,_ZNK7testing8internal16TypedExpectationIFihEE20ExplainMatchResultToERKSt5tupleIJhEEPSo
FNDA:0,_ZNK7testing8internal16TypedExpectationIFihEE20ExplainMatchResultToERKSt5tupleIJhEEPSo
FN:1155,_ZNK7testing8internal16TypedExpectationIFihEE16GetCurrentActionEPKNS0_14FunctionMockerIS2_EERKSt5tupleIJhEE
FNDA:229,_ZNK7testing8internal16TypedExpectationIFihEE16GetCurrentActionEPKNS0_14FunctionMockerIS2_EERKSt5tupleIJhEE
FN:1155,_ZNK7testing8internal16TypedExpectationIFmvEE16GetCurrentActionEPKNS0_14FunctionMockerIS2_EERKSt5tupleIJEE
FNDA:189,_ZNK7testing8internal16TypedExpectationIFmvEE16GetCurrentActionEPKNS0_14FunctionMockerIS2_EERKSt5tupleIJEE
FN:1155,_ZNK7testing8internal16TypedExpectationIFvvEE16GetCurrentActionEPKNS0_14FunctionMockerIS2_EERKSt5tupleIJEE
FNDA:0,_ZNK7testing8internal16TypedExpectationIFvvEE16GetCurrentActionEPKNS0_14FunctionMockerIS2_EERKSt5tupleIJEE
FN:1155,_ZNK7testing8internal16TypedExpectationIFvmEE16GetCurrentActionEPKNS0_14FunctionMockerIS2_EERKSt5tupleIJmEE
FNDA:0,_ZNK7testing8internal16TypedExpectationIFvmEE16GetCurrentActionEPKNS0_14FunctionMockerIS2_EERKSt5tupleIJmEE
FN:1155,_ZNK7testing8internal16TypedExpectationIFvhiEE16GetCurrentActionEPKNS0_14FunctionMockerIS2_EERKSt5tupleIJhiEE
FNDA:0,_ZNK7testing8internal16TypedExpectationIFvhiEE16GetCurrentActionEPKNS0_14FunctionMockerIS2_EERKSt5tupleIJhiEE
FN:1155,_ZNK7testing8internal16TypedExpectationIFivEE16GetCurrentActionEPKNS0_14FunctionMockerIS2_EERKSt5tupleIJEE
FNDA:0,_ZNK7testing8internal16TypedExpectationIFivEE16GetCurrentActionEPKNS0_14FunctionMockerIS2_EERKSt5tupleIJEE
FN:1155,_ZNK7testing8internal16TypedExpectationIFmhEE16GetCurrentActionEPKNS0_14FunctionMockerIS2_EERKSt5tupleIJhEE
FNDA:1,_ZNK7testing8internal16TypedExpectationIFmhEE16GetCurrentActionEPKNS0_14FunctionMockerIS2_EERKSt5tupleIJhEE
FN:1155,_ZNK7testing8internal16TypedExpectationIFvhhEE16GetCurrentActionEPKNS0_14FunctionMockerIS2_EERKSt5tupleIJhhEE
FNDA:175,_ZNK7testing8internal16TypedExpectationIFvhhEE16GetCurrentActionEPKNS0_14FunctionMockerIS2_EERKSt5tupleIJhhEE
FN:1155,_ZNK7testing8internal16TypedExpectationIFmPKhmEE16GetCurrentActionEPKNS0_14FunctionMockerIS4_EERKSt5tupleIJS3_mEE
FNDA:4,_ZNK7testing8internal16TypedExpectationIFmPKhmEE16GetCurrentActionEPKNS0_14FunctionMockerIS4_EERKSt5tupleIJS3_mEE
FN:1192,_ZN7testing8internal16TypedExpectationIFmvEE21GetActionForArgumentsEPKNS0_14FunctionMockerIS2_EERKSt5tupleIJEEPSoSC_
FNDA:189,_ZN7testing8internal16TypedExpectationIFmvEE21GetActionForArgumentsEPKNS0_14FunctionMockerIS2_EERKSt5tupleIJEEPSoSC_
FN:1192,_ZN7testing8internal16TypedExpectationIFmPKhmEE21GetActionForArgumentsEPKNS0_14FunctionMockerIS4_EERKSt5tupleIJS3_mEEPSoSE_
FNDA:4,_ZN7testing8internal16TypedExpectationIFmPKhmEE21GetActionForArgumentsEPKNS0_14FunctionMockerIS4_EERKSt5tupleIJS3_mEEPSoSE_
FN:1192,_ZN7testing8internal16TypedExpectationIFvvEE21GetActionForArgumentsEPKNS0_14FunctionMockerIS2_EERKSt5tupleIJEEPSoSC_
FNDA:0,_ZN7testing8internal16TypedExpectationIFvvEE21GetActionForArgumentsEPKNS0_14FunctionMockerIS2_EERKSt5tupleIJEEPSoSC_
FN:1192,_ZN7testing8internal16TypedExpectationIFvmEE21GetActionForArgumentsEPKNS0_14FunctionMockerIS2_EERKSt5tupleIJmEEPSoSC_
FNDA:0,_ZN7testing8internal16TypedExpectationIFvmEE21GetActionForArgumentsEPKNS0_14FunctionMockerIS2_EERKSt5tupleIJmEEPSoSC_
FN:1192,_ZN7testing8internal16TypedExpectationIFmhEE21GetActionForArgumentsEPKNS0_14FunctionMockerIS2_EERKSt5tupleIJhEEPSoSC_
FNDA:1,_ZN7testing8internal16TypedExpectationIFmhEE21GetActionForArgumentsEPKNS0_14FunctionMockerIS2_EERKSt5tupleIJhEEPSoSC_
FN:1192,_ZN7testing8internal16TypedExpectationIFvhhEE21GetActionForArgumentsEPKNS0_14FunctionMockerIS2_EERKSt5tupleIJhhEEPSoSC_
FNDA:175,_ZN7testing8internal16TypedExpectationIFvhhEE21GetActionForArgumentsEPKNS0_14FunctionMockerIS2_EERKSt5tupleIJhhEEPSoSC_
FN:1192,_ZN7testing8internal16TypedExpectationIFihEE21GetActionForArgumentsEPKNS0_14FunctionMockerIS2_EERKSt5tupleIJhEEPSoSC_
FNDA:229,_ZN7testing8internal16TypedExpectationIFihEE21GetActionForArgumentsEPKNS0_14FunctionMockerIS2_EERKSt5tupleIJhEEPSoSC_
FN:1192,_ZN7testing8internal16TypedExpectationIFivEE21GetActionForArgumentsEPKNS0_14FunctionMockerIS2_EERKSt5tupleIJEEPSoSC_
FNDA:0,_ZN7testing8internal16TypedExpectationIFivEE21GetActionForArgumentsEPKNS0_14FunctionMockerIS2_EERKSt5tupleIJEEPSoSC_
FN:1192,_ZN7testing8internal16TypedExpectationIFvhiEE21GetActionForArgumentsEPKNS0_14FunctionMockerIS2_EERKSt5tupleIJhiEEPSoSC_
FNDA:0,_ZN7testing8internal16TypedExpectationIFvhiEE21GetActionForArgumentsEPKNS0_14FunctionMockerIS2_EERKSt5tupleIJhiEEPSoSC_
FN:1310,_ZN7testing8internal23ReferenceOrValueWrapperImEC2Em
FNDA:194,_ZN7testing8internal23ReferenceOrValueWrapperImEC2Em
FN:1310,_ZN7testing8internal23ReferenceOrValueWrapperIiEC2Ei
FNDA:0,_ZN7testing8internal23ReferenceOrValueWrapperIiEC2Ei
FN:1323,_ZNK7testing8internal23ReferenceOrValueWrapperImE4PeekEv
FNDA:0,_ZNK7testing8internal23ReferenceOrValueWrapperImE4PeekEv
FN:1323,_ZNK7testing8internal23ReferenceOrValueWrapperIiE4PeekEv
FNDA:0,_ZNK7testing8internal23ReferenceOrValueWrapperIiE4PeekEv
FN:1365,_ZN7testing8internal29UntypedActionResultHolderBaseD2Ev
FNDA:0,_ZN7testing8internal29UntypedActionResultHolderBaseD2Ev
FN:1365,_ZN7testing8internal29UntypedActionResultHolderBaseD0Ev
FNDA:0,_ZN7testing8internal29UntypedActionResultHolderBaseD0Ev
FN:1381,_ZNK7testing8internal18ActionResultHolderImE19PrintAsActionResultEPSo
FNDA:0,_ZNK7testing8internal18ActionResultHolderImE19PrintAsActionResultEPSo
FN:1381,_ZNK7testing8internal18ActionResultHolderIiE19PrintAsActionResultEPSo
FNDA:0,_ZNK7testing8internal18ActionResultHolderIiE19PrintAsActionResultEPSo
FN:1390,_ZN7testing8internal18ActionResultHolderImE20PerformDefaultActionIFmPKhmEEEPS2_PKNS0_14FunctionMockerIT_EEONS0_8FunctionIS9_E13ArgumentTupleERKNSt7__cxx1112basic_stringIcSt11char_traitsIcESaIcEEE
FNDA:4,_ZN7testing8internal18ActionResultHolderImE20PerformDefaultActionIFmPKhmEEEPS2_PKNS0_14FunctionMockerIT_EEONS0_8FunctionIS9_E13ArgumentTupleERKNSt7__cxx1112basic_stringIcSt11char_traitsIcESaIcEEE
FN:1390,_ZN7testing8internal18ActionResultHolderImE20PerformDefaultActionIFmvEEEPS2_PKNS0_14FunctionMockerIT_EEONS0_8FunctionIS7_E13ArgumentTupleERKNSt7__cxx1112basic_stringIcSt11char_traitsIcESaIcEEE
FNDA:0,_ZN7testing8internal18ActionResultHolderImE20PerformDefaultActionIFmvEEEPS2_PKNS0_14FunctionMockerIT_EEONS0_8FunctionIS7_E13ArgumentTupleERKNSt7__cxx1112basic_stringIcSt11char_traitsIcESaIcEEE
FN:1390,_ZN7testing8internal18ActionResultHolderIiE20PerformDefaultActionIFihEEEPS2_PKNS0_14FunctionMockerIT_EEONS0_8FunctionIS7_E13ArgumentTupleERKNSt7__cxx1112basic_stringIcSt11char_traitsIcESaIcEEE
FNDA:17,_ZN7testing8internal18ActionResultHolderIiE20PerformDefaultActionIFihEEEPS2_PKNS0_14FunctionMockerIT_EEONS0_8FunctionIS7_E13ArgumentTupleERKNSt7__cxx1112basic_stringIcSt11char_traitsIcESaIcEEE
FN:1390,_ZN7testing8internal18ActionResultHolderImE20PerformDefaultActionIFmhEEEPS2_PKNS0_14FunctionMockerIT_EEONS0_8FunctionIS7_E13ArgumentTupleERKNSt7__cxx1112basic_stringIcSt11char_traitsIcESaIcEEE
FNDA:1,_ZN7testing8internal18ActionResultHolderImE20PerformDefaultActionIFmhEEEPS2_PKNS0_14FunctionMockerIT_EEONS0_8FunctionIS7_E13ArgumentTupleERKNSt7__cxx1112basic_stringIcSt11char_traitsIcESaIcEEE
FN:1390,_ZN7testing8internal18ActionResultHolderIiE20PerformDefaultActionIFivEEEPS2_PKNS0_14FunctionMockerIT_EEONS0_8FunctionIS7_E13ArgumentTupleERKNSt7__cxx1112basic_stringIcSt11char_traitsIcESaIcEEE
FNDA:0,_ZN7testing8internal18ActionResultHolderIiE20PerformDefaultActionIFivEEEPS2_PKNS0_14FunctionMockerIT_EEONS0_8FunctionIS7_E13ArgumentTupleERKNSt7__cxx1112basic_stringIcSt11char_traitsIcESaIcEEE
FN:1401,_ZN7testing8internal18ActionResultHolderImE13PerformActionIFmPKhmEEEPS2_RKNS_6ActionIT_EEONS0_8FunctionIS9_E13ArgumentTupleE
FNDA:0,_ZN7testing8internal18ActionResultHolderImE13PerformActionIFmPKhmEEEPS2_RKNS_6ActionIT_EEONS0_8FunctionIS9_E13ArgumentTupleE
FN:1401,_ZN7testing8internal18ActionResultHolderImE13PerformActionIFmvEEEPS2_RKNS_6ActionIT_EEONS0_8FunctionIS7_E13ArgumentTupleE
FNDA:189,_ZN7testing8internal18ActionResultHolderImE13PerformActionIFmvEEEPS2_RKNS_6ActionIT_EEONS0_8FunctionIS7_E13ArgumentTupleE
FN:1401,_ZN7testing8internal18ActionResultHolderIiE13PerformActionIFivEEEPS2_RKNS_6ActionIT_EEONS0_8FunctionIS7_E13ArgumentTupleE
FNDA:0,_ZN7testing8internal18ActionResultHolderIiE13PerformActionIFivEEEPS2_RKNS_6ActionIT_EEONS0_8FunctionIS7_E13ArgumentTupleE
FN:1401,_ZN7testing8internal18ActionResultHolderIiE13PerformActionIFihEEEPS2_RKNS_6ActionIT_EEONS0_8FunctionIS7_E13ArgumentTupleE
FNDA:212,_ZN7testing8internal18ActionResultHolderIiE13PerformActionIFihEEEPS2_RKNS_6ActionIT_EEONS0_8FunctionIS7_E13ArgumentTupleE
FN:1401,_ZN7testing8internal18ActionResultHolderImE13PerformActionIFmhEEEPS2_RKNS_6ActionIT_EEONS0_8FunctionIS7_E13ArgumentTupleE
FNDA:0,_ZN7testing8internal18ActionResultHolderImE13PerformActionIFmhEEEPS2_RKNS_6ActionIT_EEONS0_8FunctionIS7_E13ArgumentTupleE
FN:1410,_ZN7testing8internal18ActionResultHolderImEC2ENS0_23ReferenceOrValueWrapperImEE
FNDA:194,_ZN7testing8internal18ActionResultHolderImEC2ENS0_23ReferenceOrValueWrapperImEE
FN:1410,_ZN7testing8internal18ActionResultHolderIiEC2ENS0_23ReferenceOrValueWrapperIiEE
FNDA:0,_ZN7testing8internal18ActionResultHolderIiEC2ENS0_23ReferenceOrValueWrapperIiEE
FN:1425,_ZNK7testing8internal18ActionResultHolderIvE19PrintAsActionResultEPSo
FNDA:0,_ZNK7testing8internal18ActionResultHolderIvE19PrintAsActionResultEPSo
FN:1430,_ZN7testing8internal18ActionResultHolderIvE20PerformDefaultActionIFvhiEEEPS2_PKNS0_14FunctionMockerIT_EEONS0_8FunctionIS7_E13ArgumentTupleERKNSt7__cxx1112basic_stringIcSt11char_traitsIcESaIcEEE
FNDA:0,_ZN7testing8internal18ActionResultHolderIvE20PerformDefaultActionIFvhiEEEPS2_PKNS0_14FunctionMockerIT_EEONS0_8FunctionIS7_E13ArgumentTupleERKNSt7__cxx1112basic_stringIcSt11char_traitsIcESaIcEEE
FN:1430,_ZN7testing8internal18ActionResultHolderIvE20PerformDefaultActionIFvvEEEPS2_PKNS0_14FunctionMockerIT_EEONS0_8FunctionIS7_E13ArgumentTupleERKNSt7__cxx1112basic_stringIcSt11char_traitsIcESaIcEEE
FNDA:0,_ZN7testing8internal18ActionResultHolderIvE20PerformDefaultActionIFvvEEEPS2_PKNS0_14FunctionMockerIT_EEONS0_8FunctionIS7_E13ArgumentTupleERKNSt7__cxx1112basic_stringIcSt11char_traitsIcESaIcEEE
FN:1430,_ZN7testing8internal18ActionResultHolderIvE20PerformDefaultActionIFvhhEEEPS2_PKNS0_14FunctionMockerIT_EEONS0_8FunctionIS7_E13ArgumentTupleERKNSt7__cxx1112basic_stringIcSt11char_traitsIcESaIcEEE
FNDA:175,_ZN7testing8internal18ActionResultHolderIvE20PerformDefaultActionIFvhhEEEPS2_PKNS0_14FunctionMockerIT_EEONS0_8FunctionIS7_E13ArgumentTupleERKNSt7__cxx1112basic_stringIcSt11char_traitsIcESaIcEEE
FN:1430,_ZN7testing8internal18ActionResultHolderIvE20PerformDefaultActionIFvmEEEPS2_PKNS0_14FunctionMockerIT_EEONS0_8FunctionIS7_E13ArgumentTupleERKNSt7__cxx1112basic_stringIcSt11char_traitsIcESaIcEEE
FNDA:0,_ZN7testing8internal18ActionResultHolderIvE20PerformDefaultActionIFvmEEEPS2_PKNS0_14FunctionMockerIT_EEONS0_8FunctionIS7_E13ArgumentTupleERKNSt7__cxx1112basic_stringIcSt11char_traitsIcESaIcEEE
FN:1441,_ZN7testing8internal18ActionResultHolderIvE13PerformActionIFvhiEEEPS2_RKNS_6ActionIT_EEONS0_8FunctionIS7_E13ArgumentTupleE
FNDA:0,_ZN7testing8internal18ActionResultHolderIvE13PerformActionIFvhiEEEPS2_RKNS_6ActionIT_EEONS0_8FunctionIS7_E13ArgumentTupleE
FN:1441,_ZN7testing8internal18ActionResultHolderIvE13PerformActionIFvvEEEPS2_RKNS_6ActionIT_EEONS0_8FunctionIS7_E13ArgumentTupleE
FNDA:0,_ZN7testing8internal18ActionResultHolderIvE13PerformActionIFvvEEEPS2_RKNS_6ActionIT_EEONS0_8FunctionIS7_E13ArgumentTupleE
FN:1441,_ZN7testing8internal18ActionResultHolderIvE13PerformActionIFvhhEEEPS2_RKNS_6ActionIT_EEONS0_8FunctionIS7_E13ArgumentTupleE
FNDA:0,_ZN7testing8internal18ActionResultHolderIvE13PerformActionIFvhhEEEPS2_RKNS_6ActionIT_EEONS0_8FunctionIS7_E13ArgumentTupleE
FN:1441,_ZN7testing8internal18ActionResultHolderIvE13PerformActionIFvmEEEPS2_RKNS_6ActionIT_EEONS0_8FunctionIS7_E13ArgumentTupleE
FNDA:0,_ZN7testing8internal18ActionResultHolderIvE13PerformActionIFvmEEEPS2_RKNS_6ActionIT_EEONS0_8FunctionIS7_E13ArgumentTupleE
FN:1448,_ZN7testing8internal18ActionResultHolderIvEC2Ev
FNDA:0,_ZN7testing8internal18ActionResultHolderIvEC2Ev
FN:1464,_ZN7testing8internal14FunctionMockerIFvhhEEC2Ev
FNDA:2,_ZN7testing8internal14FunctionMockerIFvhhEEC2Ev
FN:1464,_ZN7testing8internal14FunctionMockerIFmPKhmEEC2Ev
FNDA:1,_ZN7testing8internal14FunctionMockerIFmPKhmEEC2Ev
FN:1464,_ZN7testing8internal14FunctionMockerIFihEEC2Ev
FNDA:2,_ZN7testing8internal14FunctionMockerIFihEEC2Ev
FN:1464,_ZN7testing8internal14FunctionMockerIFmhEEC2Ev
FNDA:1,_ZN7testing8internal14FunctionMockerIFmhEEC2Ev
FN:1464,_ZN7testing8internal14FunctionMockerIFvhiEEC2Ev
FNDA:1,_ZN7testing8internal14FunctionMockerIFvhiEEC2Ev
FN:1464,_ZN7testing8internal14FunctionMockerIFivEEC2Ev
FNDA:3,_ZN7testing8internal14FunctionMockerIFivEEC2Ev
FN:1464,_ZN7testing8internal14FunctionMockerIFmvEEC2Ev
FNDA:2,_ZN7testing8internal14FunctionMockerIFmvEEC2Ev
FN:1464,_ZN7testing8internal14FunctionMockerIFvvEEC2Ev
FNDA:0,_ZN7testing8internal14FunctionMockerIFvvEEC2Ev
FN:1464,_ZN7testing8internal14FunctionMockerIFvmEEC2Ev
FNDA:1,_ZN7testing8internal14FunctionMockerIFvmEEC2Ev
FN:1484,_ZN7testing8internal14FunctionMockerIFihEED0Ev
FNDA:0,_ZN7testing8internal14FunctionMockerIFihEED0Ev
FN:1484,_ZN7testing8internal14FunctionMockerIFvhiEED2Ev
FNDA:1,_ZN7testing8internal14FunctionMockerIFvhiEED2Ev
FN:1484,_ZN7testing8internal14FunctionMockerIFihEED2Ev
FNDA:2,_ZN7testing8internal14FunctionMockerIFihEED2Ev
FN:1484,_ZN7testing8internal14FunctionMockerIFvhiEED0Ev
FNDA:0,_ZN7testing8internal14FunctionMockerIFvhiEED0Ev
FN:1484,_ZN7testing8internal14FunctionMockerIFmvEED2Ev
FNDA:2,_ZN7testing8internal14FunctionMockerIFmvEED2Ev
FN:1484,_ZN7testing8internal14FunctionMockerIFmvEED0Ev
FNDA:0,_ZN7testing8internal14FunctionMockerIFmvEED0Ev
FN:1484,_ZN7testing8internal14FunctionMockerIFvhhEED0Ev
FNDA:0,_ZN7testing8internal14FunctionMockerIFvhhEED0Ev
FN:1484,_ZN7testing8internal14FunctionMockerIFvhhEED2Ev
FNDA:2,_ZN7testing8internal14FunctionMockerIFvhhEED2Ev
FN:1484,_ZN7testing8internal14FunctionMockerIFvmEED2Ev
FNDA:1,_ZN7testing8internal14FunctionMockerIFvmEED2Ev
FN:1484,_ZN7testing8internal14FunctionMockerIFvmEED0Ev
FNDA:0,_ZN7testing8internal14FunctionMockerIFvmEED0Ev
FN:1484,_ZN7testing8internal14FunctionMockerIFmPKhmEED0Ev
FNDA:0,_ZN7testing8internal14FunctionMockerIFmPKhmEED0Ev
FN:1484,_ZN7testing8internal14FunctionMockerIFmPKhmEED2Ev
FNDA:1,_ZN7testing8internal14FunctionMockerIFmPKhmEED2Ev
FN:1484,_ZN7testing8internal14FunctionMockerIFvvEED2Ev
FNDA:0,_ZN7testing8internal14FunctionMockerIFvvEED2Ev
FN:1484,_ZN7testing8internal14FunctionMockerIFmhEED0Ev
FNDA:0,_ZN7testing8internal14FunctionMockerIFmhEED0Ev
FN:1484,_ZN7testing8internal14FunctionMockerIFmhEED2Ev
FNDA:1,_ZN7testing8internal14FunctionMockerIFmhEED2Ev
FN:1484,_ZN7testing8internal14FunctionMockerIFvvEED0Ev
FNDA:0,_ZN7testing8internal14FunctionMockerIFvvEED0Ev
FN:1484,_ZN7testing8internal14FunctionMockerIFivEED2Ev
FNDA:3,_ZN7testing8internal14FunctionMockerIFivEED2Ev
FN:1484,_ZN7testing8internal14FunctionMockerIFivEED0Ev
FNDA:0,_ZN7testing8internal14FunctionMockerIFivEED0Ev
FN:1494,_ZNK7testing8internal14FunctionMockerIFivEE14FindOnCallSpecERKSt5tupleIJEE
FNDA:0,_ZNK7testing8internal14FunctionMockerIFivEE14FindOnCallSpecERKSt5tupleIJEE
FN:1494,_ZNK7testing8internal14FunctionMockerIFmPKhmEE14FindOnCallSpecERKSt5tupleIJS3_mEE
FNDA:4,_ZNK7testing8internal14FunctionMockerIFmPKhmEE14FindOnCallSpecERKSt5tupleIJS3_mEE
FN:1494,_ZNK7testing8internal14FunctionMockerIFvhhEE14FindOnCallSpecERKSt5tupleIJhhEE
FNDA:175,_ZNK7testing8internal14FunctionMockerIFvhhEE14FindOnCallSpecERKSt5tupleIJhhEE
FN:1494,_ZNK7testing8internal14FunctionMockerIFihEE14FindOnCallSpecERKSt5tupleIJhEE
FNDA:17,_ZNK7testing8internal14FunctionMockerIFihEE14FindOnCallSpecERKSt5tupleIJhEE
FN:1494,_ZNK7testing8internal14FunctionMockerIFvmEE14FindOnCallSpecERKSt5tupleIJmEE
FNDA:0,_ZNK7testing8internal14FunctionMockerIFvmEE14FindOnCallSpecERKSt5tupleIJmEE
FN:1494,_ZNK7testing8internal14FunctionMockerIFvvEE14FindOnCallSpecERKSt5tupleIJEE
FNDA:0,_ZNK7testing8internal14FunctionMockerIFvvEE14FindOnCallSpecERKSt5tupleIJEE
FN:1494,_ZNK7testing8internal14FunctionMockerIFvhiEE14FindOnCallSpecERKSt5tupleIJhiEE
FNDA:0,_ZNK7testing8internal14FunctionMockerIFvhiEE14FindOnCallSpecERKSt5tupleIJhiEE
FN:1494,_ZNK7testing8internal14FunctionMockerIFmvEE14FindOnCallSpecERKSt5tupleIJEE
FNDA:0,_ZNK7testing8internal14FunctionMockerIFmvEE14FindOnCallSpecERKSt5tupleIJEE
FN:1494,_ZNK7testing8internal14FunctionMockerIFmhEE14FindOnCallSpecERKSt5tupleIJhEE
FNDA:1,_ZNK7testing8internal14FunctionMockerIFmhEE14FindOnCallSpecERKSt5tupleIJhEE
FN:1514,_ZNK7testing8internal14FunctionMockerIFvvEE20PerformDefaultActionEOSt5tupleIJEERKNSt7__cxx1112basic_stringIcSt11char_traitsIcESaIcEEE
FNDA:0,_ZNK7testing8internal14FunctionMockerIFvvEE20PerformDefaultActionEOSt5tupleIJEERKNSt7__cxx1112basic_stringIcSt11char_traitsIcESaIcEEE
FN:1514,_ZNK7testing8internal14FunctionMockerIFmhEE20PerformDefaultActionEOSt5tupleIJhEERKNSt7__cxx1112basic_stringIcSt11char_traitsIcESaIcEEE
FNDA:1,_ZNK7testing8internal14FunctionMockerIFmhEE20PerformDefaultActionEOSt5tupleIJhEERKNSt7__cxx1112basic_stringIcSt11char_traitsIcESaIcEEE
FN:1514,_ZNK7testing8internal14FunctionMockerIFvmEE20PerformDefaultActionEOSt5tupleIJmEERKNSt7__cxx1112basic_stringIcSt11char_traitsIcESaIcEEE
FNDA:0,_ZNK7testing8internal14FunctionMockerIFvmEE20PerformDefaultActionEOSt5tupleIJmEERKNSt7__cxx1112basic_stringIcSt11char_traitsIcESaIcEEE
FN:1514,_ZNK7testing8internal14FunctionMockerIFmPKhmEE20PerformDefaultActionEOSt5tupleIJS3_mEERKNSt7__cxx1112basic_stringIcSt11char_traitsIcESaIcEEE
FNDA:4,_ZNK7testing8internal14FunctionMockerIFmPKhmEE20PerformDefaultActionEOSt5tupleIJS3_mEERKNSt7__cxx1112basic_stringIcSt11char_traitsIcESaIcEEE
FN:1514,_ZNK7testing8internal14FunctionMockerIFvhiEE20PerformDefaultActionEOSt5tupleIJhiEERKNSt7__cxx1112basic_stringIcSt11char_traitsIcESaIcEEE
FNDA:0,_ZNK7testing8internal14FunctionMockerIFvhiEE20PerformDefaultActionEOSt5tupleIJhiEERKNSt7__cxx1112basic_stringIcSt11char_traitsIcESaIcEEE
FN:1514,_ZNK7testing8internal14FunctionMockerIFihEE20PerformDefaultActionEOSt5tupleIJhEERKNSt7__cxx1112basic_stringIcSt11char_traitsIcESaIcEEE
FNDA:17,_ZNK7testing8internal14FunctionMockerIFihEE20PerformDefaultActionEOSt5tupleIJhEERKNSt7__cxx1112basic_stringIcSt11char_traitsIcESaIcEEE
FN:1514,_ZNK7testing8internal14FunctionMockerIFvhhEE20PerformDefaultActionEOSt5tupleIJhhEERKNSt7__cxx1112basic_stringIcSt11char_traitsIcESaIcEEE
FNDA:175,_ZNK7testing8internal14FunctionMockerIFvhhEE20PerformDefaultActionEOSt5tupleIJhhEERKNSt7__cxx1112basic_stringIcSt11char_traitsIcESaIcEEE
FN:1514,_ZNK7testing8internal14FunctionMockerIFmvEE20PerformDefaultActionEOSt5tupleIJEERKNSt7__cxx1112basic_stringIcSt11char_traitsIcESaIcEEE
FNDA:0,_ZNK7testing8internal14FunctionMockerIFmvEE20PerformDefaultActionEOSt5tupleIJEERKNSt7__cxx1112basic_stringIcSt11char_traitsIcESaIcEEE
FN:1514,_ZNK7testing8internal14FunctionMockerIFivEE20PerformDefaultActionEOSt5tupleIJEERKNSt7__cxx1112basic_stringIcSt11char_traitsIcESaIcEEE
FNDA:0,_ZNK7testing8internal14FunctionMockerIFivEE20PerformDefaultActionEOSt5tupleIJEERKNSt7__cxx1112basic_stringIcSt11char_traitsIcESaIcEEE
FN:1540,_ZNK7testing8internal14FunctionMockerIFvhiEE27UntypedPerformDefaultActionEPvRKNSt7__cxx1112basic_stringIcSt11char_traitsIcESaIcEEE
FNDA:0,_ZNK7testing8internal14FunctionMockerIFvhiEE27UntypedPerformDefaultActionEPvRKNSt7__cxx1112basic_stringIcSt11char_traitsIcESaIcEEE
FN:1540,_ZNK7testing8internal14FunctionMockerIFvhhEE27UntypedPerformDefaultActionEPvRKNSt7__cxx1112basic_stringIcSt11char_traitsIcESaIcEEE
FNDA:175,_ZNK7testing8internal14FunctionMockerIFvhhEE27UntypedPerformDefaultActionEPvRKNSt7__cxx1112basic_stringIcSt11char_traitsIcESaIcEEE
FN:1540,_ZNK7testing8internal14FunctionMockerIFmPKhmEE27UntypedPerformDefaultActionEPvRKNSt7__cxx1112basic_stringIcSt11char_traitsIcESaIcEEE
FNDA:4,_ZNK7testing8internal14FunctionMockerIFmPKhmEE27UntypedPerformDefaultActionEPvRKNSt7__cxx1112basic_stringIcSt11char_traitsIcESaIcEEE
FN:1540,_ZNK7testing8internal14FunctionMockerIFihEE27UntypedPerformDefaultActionEPvRKNSt7__cxx1112basic_stringIcSt11char_traitsIcESaIcEEE
FNDA:17,_ZNK7testing8internal14FunctionMockerIFihEE27UntypedPerformDefaultActionEPvRKNSt7__cxx1112basic_stringIcSt11char_traitsIcESaIcEEE
FN:1540,_ZNK7testing8internal14FunctionMockerIFmhEE27UntypedPerformDefaultActionEPvRKNSt7__cxx1112basic_stringIcSt11char_traitsIcESaIcEEE
FNDA:1,_ZNK7testing8internal14FunctionMockerIFmhEE27UntypedPerformDefaultActionEPvRKNSt7__cxx1112basic_stringIcSt11char_traitsIcESaIcEEE
FN:1540,_ZNK7testing8internal14FunctionMockerIFmvEE27UntypedPerformDefaultActionEPvRKNSt7__cxx1112basic_stringIcSt11char_traitsIcESaIcEEE
FNDA:0,_ZNK7testing8internal14FunctionMockerIFmvEE27UntypedPerformDefaultActionEPvRKNSt7__cxx1112basic_stringIcSt11char_traitsIcESaIcEEE
FN:1540,_ZNK7testing8internal14FunctionMockerIFivEE27UntypedPerformDefaultActionEPvRKNSt7__cxx1112basic_stringIcSt11char_traitsIcESaIcEEE
FNDA:0,_ZNK7testing8internal14FunctionMockerIFivEE27UntypedPerformDefaultActionEPvRKNSt7__cxx1112basic_stringIcSt11char_traitsIcESaIcEEE
FN:1540,_ZNK7testing8internal14FunctionMockerIFvmEE27UntypedPerformDefaultActionEPvRKNSt7__cxx1112basic_stringIcSt11char_traitsIcESaIcEEE
FNDA:0,_ZNK7testing8internal14FunctionMockerIFvmEE27UntypedPerformDefaultActionEPvRKNSt7__cxx1112basic_stringIcSt11char_traitsIcESaIcEEE
FN:1540,_ZNK7testing8internal14FunctionMockerIFvvEE27UntypedPerformDefaultActionEPvRKNSt7__cxx1112basic_stringIcSt11char_traitsIcESaIcEEE
FNDA:0,_ZNK7testing8internal14FunctionMockerIFvvEE27UntypedPerformDefaultActionEPvRKNSt7__cxx1112basic_stringIcSt11char_traitsIcESaIcEEE
FN:1552,_ZNK7testing8internal14FunctionMockerIFvhiEE20UntypedPerformActionEPKvPv
FNDA:0,_ZNK7testing8internal14FunctionMockerIFvhiEE20UntypedPerformActionEPKvPv
FN:1552,_ZNK7testing8internal14FunctionMockerIFmvEE20UntypedPerformActionEPKvPv
FNDA:189,_ZNK7testing8internal14FunctionMockerIFmvEE20UntypedPerformActionEPKvPv
FN:1552,_ZNK7testing8internal14FunctionMockerIFihEE20UntypedPerformActionEPKvPv
FNDA:212,_ZNK7testing8internal14FunctionMockerIFihEE20UntypedPerformActionEPKvPv
FN:1552,_ZNK7testing8internal14FunctionMockerIFvvEE20UntypedPerformActionEPKvPv
FNDA:0,_ZNK7testing8internal14FunctionMockerIFvvEE20UntypedPerformActionEPKvPv
FN:1552,_ZNK7testing8internal14FunctionMockerIFvmEE20UntypedPerformActionEPKvPv
FNDA:0,_ZNK7testing8internal14FunctionMockerIFvmEE20UntypedPerformActionEPKvPv
FN:1552,_ZNK7testing8internal14FunctionMockerIFvhhEE20UntypedPerformActionEPKvPv
FNDA:0,_ZNK7testing8internal14FunctionMockerIFvhhEE20UntypedPerformActionEPKvPv
FN:1552,_ZNK7testing8internal14FunctionMockerIFmhEE20UntypedPerformActionEPKvPv
FNDA:0,_ZNK7testing8internal14FunctionMockerIFmhEE20UntypedPerformActionEPKvPv
FN:1552,_ZNK7testing8internal14FunctionMockerIFivEE20UntypedPerformActionEPKvPv
FNDA:0,_ZNK7testing8internal14FunctionMockerIFivEE20UntypedPerformActionEPKvPv
FN:1552,_ZNK7testing8internal14FunctionMockerIFmPKhmEE20UntypedPerformActionEPKvPv
FNDA:0,_ZNK7testing8internal14FunctionMockerIFmPKhmEE20UntypedPerformActionEPKvPv
FN:1563,_ZN7testing8internal14FunctionMockerIFvmEE25ClearDefaultActionsLockedEv
FNDA:1,_ZN7testing8internal14FunctionMockerIFvmEE25ClearDefaultActionsLockedEv
FN:1563,_ZN7testing8internal14FunctionMockerIFvhiEE25ClearDefaultActionsLockedEv
FNDA:1,_ZN7testing8internal14FunctionMockerIFvhiEE25ClearDefaultActionsLockedEv
FN:1563,_ZN7testing8internal14FunctionMockerIFmvEE25ClearDefaultActionsLockedEv
FNDA:47,_ZN7testing8internal14FunctionMockerIFmvEE25ClearDefaultActionsLockedEv
FN:1563,_ZN7testing8internal14FunctionMockerIFihEE25ClearDefaultActionsLockedEv
FNDA:113,_ZN7testing8internal14FunctionMockerIFihEE25ClearDefaultActionsLockedEv
FN:1563,_ZN7testing8internal14FunctionMockerIFvhhEE25ClearDefaultActionsLockedEv
FNDA:117,_ZN7testing8internal14FunctionMockerIFvhhEE25ClearDefaultActionsLockedEv
FN:1563,_ZN7testing8internal14FunctionMockerIFmPKhmEE25ClearDefaultActionsLockedEv
FNDA:1,_ZN7testing8internal14FunctionMockerIFmPKhmEE25ClearDefaultActionsLockedEv
FN:1563,_ZN7testing8internal14FunctionMockerIFmhEE25ClearDefaultActionsLockedEv
FNDA:1,_ZN7testing8internal14FunctionMockerIFmhEE25ClearDefaultActionsLockedEv
FN:1563,_ZN7testing8internal14FunctionMockerIFivEE25ClearDefaultActionsLockedEv
FNDA:3,_ZN7testing8internal14FunctionMockerIFivEE25ClearDefaultActionsLockedEv
FN:1563,_ZN7testing8internal14FunctionMockerIFvvEE25ClearDefaultActionsLockedEv
FNDA:0,_ZN7testing8internal14FunctionMockerIFvvEE25ClearDefaultActionsLockedEv
FN:1650,_ZNK7testing8internal14FunctionMockerIFvhiEE23DescribeDefaultActionToERKSt5tupleIJhiEEPSo
FNDA:0,_ZNK7testing8internal14FunctionMockerIFvhiEE23DescribeDefaultActionToERKSt5tupleIJhiEEPSo
FN:1650,_ZNK7testing8internal14FunctionMockerIFihEE23DescribeDefaultActionToERKSt5tupleIJhEEPSo
FNDA:0,_ZNK7testing8internal14FunctionMockerIFihEE23DescribeDefaultActionToERKSt5tupleIJhEEPSo
FN:1650,_ZNK7testing8internal14FunctionMockerIFvhhEE23DescribeDefaultActionToERKSt5tupleIJhhEEPSo
FNDA:0,_ZNK7testing8internal14FunctionMockerIFvhhEE23DescribeDefaultActionToERKSt5tupleIJhhEEPSo
FN:1650,_ZNK7testing8internal14FunctionMockerIFvvEE23DescribeDefaultActionToERKSt5tupleIJEEPSo
FNDA:0,_ZNK7testing8internal14FunctionMockerIFvvEE23DescribeDefaultActionToERKSt5tupleIJEEPSo
FN:1650,_ZNK7testing8internal14FunctionMockerIFmvEE23DescribeDefaultActionToERKSt5tupleIJEEPSo
FNDA:0,_ZNK7testing8internal14FunctionMockerIFmvEE23DescribeDefaultActionToERKSt5tupleIJEEPSo
FN:1650,_ZNK7testing8internal14FunctionMockerIFivEE23DescribeDefaultActionToERKSt5tupleIJEEPSo
FNDA:0,_ZNK7testing8internal14FunctionMockerIFivEE23DescribeDefaultActionToERKSt5tupleIJEEPSo
FN:1650,_ZNK7testing8internal14FunctionMockerIFmhEE23DescribeDefaultActionToERKSt5tupleIJhEEPSo
FNDA:0,_ZNK7testing8internal14FunctionMockerIFmhEE23DescribeDefaultActionToERKSt5tupleIJhEEPSo
FN:1650,_ZNK7testing8internal14FunctionMockerIFmPKhmEE23DescribeDefaultActionToERKSt5tupleIJS3_mEEPSo
FNDA:0,_ZNK7testing8internal14FunctionMockerIFmPKhmEE23DescribeDefaultActionToERKSt5tupleIJS3_mEEPSo
FN:1650,_ZNK7testing8internal14FunctionMockerIFvmEE23DescribeDefaultActionToERKSt5tupleIJmEEPSo
FNDA:0,_ZNK7testing8internal14FunctionMockerIFvmEE23DescribeDefaultActionToERKSt5tupleIJmEEPSo
FN:1667,_ZNK7testing8internal14FunctionMockerIFvmEE32UntypedDescribeUninterestingCallEPKvPSo
FNDA:0,_ZNK7testing8internal14FunctionMockerIFvmEE32UntypedDescribeUninterestingCallEPKvPSo
FN:1667,_ZNK7testing8internal14FunctionMockerIFvhhEE32UntypedDescribeUninterestingCallEPKvPSo
FNDA:0,_ZNK7testing8internal14FunctionMockerIFvhhEE32UntypedDescribeUninterestingCallEPKvPSo
FN:1667,_ZNK7testing8internal14FunctionMockerIFihEE32UntypedDescribeUninterestingCallEPKvPSo
FNDA:0,_ZNK7testing8internal14FunctionMockerIFihEE32UntypedDescribeUninterestingCallEPKvPSo
FN:1667,_ZNK7testing8internal14FunctionMockerIFmPKhmEE32UntypedDescribeUninterestingCallEPKvPSo
FNDA:0,_ZNK7testing8internal14FunctionMockerIFmPKhmEE32UntypedDescribeUninterestingCallEPKvPSo
FN:1667,_ZNK7testing8internal14FunctionMockerIFvhiEE32UntypedDescribeUninterestingCallEPKvPSo
FNDA:0,_ZNK7testing8internal14FunctionMockerIFvhiEE32UntypedDescribeUninterestingCallEPKvPSo
FN:1667,_ZNK7testing8internal14FunctionMockerIFivEE32UntypedDescribeUninterestingCallEPKvPSo
FNDA:0,_ZNK7testing8internal14FunctionMockerIFivEE32UntypedDescribeUninterestingCallEPKvPSo
FN:1667,_ZNK7testing8internal14FunctionMockerIFmvEE32UntypedDescribeUninterestingCallEPKvPSo
FNDA:0,_ZNK7testing8internal14FunctionMockerIFmvEE32UntypedDescribeUninterestingCallEPKvPSo
FN:1667,_ZNK7testing8internal14FunctionMockerIFmhEE32UntypedDescribeUninterestingCallEPKvPSo
FNDA:0,_ZNK7testing8internal14FunctionMockerIFmhEE32UntypedDescribeUninterestingCallEPKvPSo
FN:1667,_ZNK7testing8internal14FunctionMockerIFvvEE32UntypedDescribeUninterestingCallEPKvPSo
FNDA:0,_ZNK7testing8internal14FunctionMockerIFvvEE32UntypedDescribeUninterestingCallEPKvPSo
FN:1694,_ZN7testing8internal14FunctionMockerIFmvEE30UntypedFindMatchingExpectationEPKvPS5_PbPSoS8_
FNDA:189,_ZN7testing8internal14FunctionMockerIFmvEE30UntypedFindMatchingExpectationEPKvPS5_PbPSoS8_
FN:1694,_ZN7testing8internal14FunctionMockerIFivEE30UntypedFindMatchingExpectationEPKvPS5_PbPSoS8_
FNDA:0,_ZN7testing8internal14FunctionMockerIFivEE30UntypedFindMatchingExpectationEPKvPS5_PbPSoS8_
FN:1694,_ZN7testing8internal14FunctionMockerIFvvEE30UntypedFindMatchingExpectationEPKvPS5_PbPSoS8_
FNDA:0,_ZN7testing8internal14FunctionMockerIFvvEE30UntypedFindMatchingExpectationEPKvPS5_PbPSoS8_
FN:1694,_ZN7testing8internal14FunctionMockerIFvmEE30UntypedFindMatchingExpectationEPKvPS5_PbPSoS8_
FNDA:0,_ZN7testing8internal14FunctionMockerIFvmEE30UntypedFindMatchingExpectationEPKvPS5_PbPSoS8_
FN:1694,_ZN7testing8internal14FunctionMockerIFvhiEE30UntypedFindMatchingExpectationEPKvPS5_PbPSoS8_
FNDA:0,_ZN7testing8internal14FunctionMockerIFvhiEE30UntypedFindMatchingExpectationEPKvPS5_PbPSoS8_
FN:1694,_ZN7testing8internal14FunctionMockerIFmPKhmEE30UntypedFindMatchingExpectationEPKvPS7_PbPSoSA_
FNDA:4,_ZN7testing8internal14FunctionMockerIFmPKhmEE30UntypedFindMatchingExpectationEPKvPS7_PbPSoSA_
FN:1694,_ZN7testing8internal14FunctionMockerIFmhEE30UntypedFindMatchingExpectationEPKvPS5_PbPSoS8_
FNDA:1,_ZN7testing8internal14FunctionMockerIFmhEE30UntypedFindMatchingExpectationEPKvPS5_PbPSoS8_
FN:1694,_ZN7testing8internal14FunctionMockerIFihEE30UntypedFindMatchingExpectationEPKvPS5_PbPSoS8_
FNDA:229,_ZN7testing8internal14FunctionMockerIFihEE30UntypedFindMatchingExpectationEPKvPS5_PbPSoS8_
FN:1694,_ZN7testing8internal14FunctionMockerIFvhhEE30UntypedFindMatchingExpectationEPKvPS5_PbPSoS8_
FNDA:175,_ZN7testing8internal14FunctionMockerIFvhhEE30UntypedFindMatchingExpectationEPKvPS5_PbPSoS8_
FN:1719,_ZNK7testing8internal14FunctionMockerIFvvEE16UntypedPrintArgsEPKvPSo
FNDA:0,_ZNK7testing8internal14FunctionMockerIFvvEE16UntypedPrintArgsEPKvPSo
FN:1719,_ZNK7testing8internal14FunctionMockerIFivEE16UntypedPrintArgsEPKvPSo
FNDA:0,_ZNK7testing8internal14FunctionMockerIFivEE16UntypedPrintArgsEPKvPSo
FN:1719,_ZNK7testing8internal14FunctionMockerIFmvEE16UntypedPrintArgsEPKvPSo
FNDA:0,_ZNK7testing8internal14FunctionMockerIFmvEE16UntypedPrintArgsEPKvPSo
FN:1719,_ZNK7testing8internal14FunctionMockerIFmhEE16UntypedPrintArgsEPKvPSo
FNDA:0,_ZNK7testing8internal14FunctionMockerIFmhEE16UntypedPrintArgsEPKvPSo
FN:1719,_ZNK7testing8internal14FunctionMockerIFvmEE16UntypedPrintArgsEPKvPSo
FNDA:0,_ZNK7testing8internal14FunctionMockerIFvmEE16UntypedPrintArgsEPKvPSo
FN:1719,_ZNK7testing8internal14FunctionMockerIFmPKhmEE16UntypedPrintArgsEPKvPSo
FNDA:0,_ZNK7testing8internal14FunctionMockerIFmPKhmEE16UntypedPrintArgsEPKvPSo
FN:1719,_ZNK7testing8internal14FunctionMockerIFvhhEE16UntypedPrintArgsEPKvPSo
FNDA:0,_ZNK7testing8internal14FunctionMockerIFvhhEE16UntypedPrintArgsEPKvPSo
FN:1719,_ZNK7testing8internal14FunctionMockerIFvhiEE16UntypedPrintArgsEPKvPSo
FNDA:0,_ZNK7testing8internal14FunctionMockerIFvhiEE16UntypedPrintArgsEPKvPSo
FN:1719,_ZNK7testing8internal14FunctionMockerIFihEE16UntypedPrintArgsEPKvPSo
FNDA:0,_ZNK7testing8internal14FunctionMockerIFihEE16UntypedPrintArgsEPKvPSo
FN:1728,_ZNK7testing8internal14FunctionMockerIFmhEE29FindMatchingExpectationLockedERKSt5tupleIJhEE
FNDA:1,_ZNK7testing8internal14FunctionMockerIFmhEE29FindMatchingExpectationLockedERKSt5tupleIJhEE
FN:1728,_ZNK7testing8internal14FunctionMockerIFvmEE29FindMatchingExpectationLockedERKSt5tupleIJmEE
FNDA:0,_ZNK7testing8internal14FunctionMockerIFvmEE29FindMatchingExpectationLockedERKSt5tupleIJmEE
FN:1728,_ZNK7testing8internal14FunctionMockerIFvvEE29FindMatchingExpectationLockedERKSt5tupleIJEE
FNDA:0,_ZNK7testing8internal14FunctionMockerIFvvEE29FindMatchingExpectationLockedERKSt5tupleIJEE
FN:1728,_ZNK7testing8internal14FunctionMockerIFivEE29FindMatchingExpectationLockedERKSt5tupleIJEE
FNDA:0,_ZNK7testing8internal14FunctionMockerIFivEE29FindMatchingExpectationLockedERKSt5tupleIJEE
FN:1728,_ZNK7testing8internal14FunctionMockerIFmvEE29FindMatchingExpectationLockedERKSt5tupleIJEE
FNDA:189,_ZNK7testing8internal14FunctionMockerIFmvEE29FindMatchingExpectationLockedERKSt5tupleIJEE
FN:1728,_ZNK7testing8internal14FunctionMockerIFmPKhmEE29FindMatchingExpectationLockedERKSt5tupleIJS3_mEE
FNDA:4,_ZNK7testing8internal14FunctionMockerIFmPKhmEE29FindMatchingExpectationLockedERKSt5tupleIJS3_mEE
FN:1728,_ZNK7testing8internal14FunctionMockerIFvhiEE29FindMatchingExpectationLockedERKSt5tupleIJhiEE
FNDA:0,_ZNK7testing8internal14FunctionMockerIFvhiEE29FindMatchingExpectationLockedERKSt5tupleIJhiEE
FN:1728,_ZNK7testing8internal14FunctionMockerIFvhhEE29FindMatchingExpectationLockedERKSt5tupleIJhhEE
FNDA:175,_ZNK7testing8internal14FunctionMockerIFvhhEE29FindMatchingExpectationLockedERKSt5tupleIJhhEE
FN:1728,_ZNK7testing8internal14FunctionMockerIFihEE29FindMatchingExpectationLockedERKSt5tupleIJhEE
FNDA:229,_ZNK7testing8internal14FunctionMockerIFihEE29FindMatchingExpectationLockedERKSt5tupleIJhEE
FN:1747,_ZNK7testing8internal14FunctionMockerIFihEE33FormatUnexpectedCallMessageLockedERKSt5tupleIJhEEPSoS8_
FNDA:0,_ZNK7testing8internal14FunctionMockerIFihEE33FormatUnexpectedCallMessageLockedERKSt5tupleIJhEEPSoS8_
FN:1747,_ZNK7testing8internal14FunctionMockerIFvmEE33FormatUnexpectedCallMessageLockedERKSt5tupleIJmEEPSoS8_
FNDA:0,_ZNK7testing8internal14FunctionMockerIFvmEE33FormatUnexpectedCallMessageLockedERKSt5tupleIJmEEPSoS8_
FN:1747,_ZNK7testing8internal14FunctionMockerIFvvEE33FormatUnexpectedCallMessageLockedERKSt5tupleIJEEPSoS8_
FNDA:0,_ZNK7testing8internal14FunctionMockerIFvvEE33FormatUnexpectedCallMessageLockedERKSt5tupleIJEEPSoS8_
FN:1747,_ZNK7testing8internal14FunctionMockerIFivEE33FormatUnexpectedCallMessageLockedERKSt5tupleIJEEPSoS8_
FNDA:0,_ZNK7testing8internal14FunctionMockerIFivEE33FormatUnexpectedCallMessageLockedERKSt5tupleIJEEPSoS8_
FN:1747,_ZNK7testing8internal14FunctionMockerIFmhEE33FormatUnexpectedCallMessageLockedERKSt5tupleIJhEEPSoS8_
FNDA:0,_ZNK7testing8internal14FunctionMockerIFmhEE33FormatUnexpectedCallMessageLockedERKSt5tupleIJhEEPSoS8_
FN:1747,_ZNK7testing8internal14FunctionMockerIFmvEE33FormatUnexpectedCallMessageLockedERKSt5tupleIJEEPSoS8_
FNDA:0,_ZNK7testing8internal14FunctionMockerIFmvEE33FormatUnexpectedCallMessageLockedERKSt5tupleIJEEPSoS8_
FN:1747,_ZNK7testing8internal14FunctionMockerIFmPKhmEE33FormatUnexpectedCallMessageLockedERKSt5tupleIJS3_mEEPSoSA_
FNDA:0,_ZNK7testing8internal14FunctionMockerIFmPKhmEE33FormatUnexpectedCallMessageLockedERKSt5tupleIJS3_mEEPSoSA_
FN:1747,_ZNK7testing8internal14FunctionMockerIFvhhEE33FormatUnexpectedCallMessageLockedERKSt5tupleIJhhEEPSoS8_
FNDA:0,_ZNK7testing8internal14FunctionMockerIFvhhEE33FormatUnexpectedCallMessageLockedERKSt5tupleIJhhEEPSoS8_
FN:1747,_ZNK7testing8internal14FunctionMockerIFvhiEE33FormatUnexpectedCallMessageLockedERKSt5tupleIJhiEEPSoS8_
FNDA:0,_ZNK7testing8internal14FunctionMockerIFvhiEE33FormatUnexpectedCallMessageLockedERKSt5tupleIJhiEEPSoS8_
FN:1760,_ZNK7testing8internal14FunctionMockerIFvvEE28PrintTriedExpectationsLockedERKSt5tupleIJEEPSo
FNDA:0,_ZNK7testing8internal14FunctionMockerIFvvEE28PrintTriedExpectationsLockedERKSt5tupleIJEEPSo
FN:1760,_ZNK7testing8internal14FunctionMockerIFivEE28PrintTriedExpectationsLockedERKSt5tupleIJEEPSo
FNDA:0,_ZNK7testing8internal14FunctionMockerIFivEE28PrintTriedExpectationsLockedERKSt5tupleIJEEPSo
FN:1760,_ZNK7testing8internal14FunctionMockerIFmvEE28PrintTriedExpectationsLockedERKSt5tupleIJEEPSo
FNDA:0,_ZNK7testing8internal14FunctionMockerIFmvEE28PrintTriedExpectationsLockedERKSt5tupleIJEEPSo
FN:1760,_ZNK7testing8internal14FunctionMockerIFvmEE28PrintTriedExpectationsLockedERKSt5tupleIJmEEPSo
FNDA:0,_ZNK7testing8internal14FunctionMockerIFvmEE28PrintTriedExpectationsLockedERKSt5tupleIJmEEPSo
FN:1760,_ZNK7testing8internal14FunctionMockerIFvhiEE28PrintTriedExpectationsLockedERKSt5tupleIJhiEEPSo
FNDA:0,_ZNK7testing8internal14FunctionMockerIFvhiEE28PrintTriedExpectationsLockedERKSt5tupleIJhiEEPSo
FN:1760,_ZNK7testing8internal14FunctionMockerIFihEE28PrintTriedExpectationsLockedERKSt5tupleIJhEEPSo
FNDA:0,_ZNK7testing8internal14FunctionMockerIFihEE28PrintTriedExpectationsLockedERKSt5tupleIJhEEPSo
FN:1760,_ZNK7testing8internal14FunctionMockerIFvhhEE28PrintTriedExpectationsLockedERKSt5tupleIJhhEEPSo
FNDA:0,_ZNK7testing8internal14FunctionMockerIFvhhEE28PrintTriedExpectationsLockedERKSt5tupleIJhhEEPSo
FN:1760,_ZNK7testing8internal14FunctionMockerIFmhEE28PrintTriedExpectationsLockedERKSt5tupleIJhEEPSo
FNDA:0,_ZNK7testing8internal14FunctionMockerIFmhEE28PrintTriedExpectationsLockedERKSt5tupleIJhEEPSo
FN:1760,_ZNK7testing8internal14FunctionMockerIFmPKhmEE28PrintTriedExpectationsLockedERKSt5tupleIJS3_mEEPSo
FNDA:0,_ZNK7testing8internal14FunctionMockerIFmPKhmEE28PrintTriedExpectationsLockedERKSt5tupleIJS3_mEEPSo
DA:257,0
DA:258,0
DA:271,0
DA:273,0
DA:274,0
DA:334,0
DA:335,0
DA:334,0
DA:335,0
DA:334,0
DA:335,0
DA:334,0
DA:335,0
DA:334,0
DA:335,0
DA:334,0
DA:335,0
DA:334,0
DA:335,0
DA:334,0
DA:335,0
DA:334,0
DA:335,0
DA:339,0
DA:340,0
DA:343,0
DA:339,0
DA:340,0
DA:343,0
DA:339,0
DA:340,0
DA:343,0
DA:339,0
DA:340,0
DA:343,0
DA:339,0
DA:340,0
DA:343,0
DA:339,0
DA:340,0
DA:343,0
DA:339,0
DA:340,0
DA:343,0
DA:339,0
DA:340,0
DA:343,0
DA:339,0
DA:340,0
DA:343,0
DA:550,0
DA:551,0
DA:580,0
DA:616,0
DA:617,0
DA:703,0
DA:704,0
DA:705,0
DA:707,0
DA:710,0
DA:711,0
DA:712,0
DA:779,0
DA:781,0
DA:782,0
DA:786,0
DA:788,0
DA:789,0
DA:790,0
DA:800,0
DA:802,0
DA:803,0
DA:822,0
DA:824,0
DA:825,0
DA:829,0
DA:831,0
DA:832,0
DA:833,0
DA:1064,0
DA:1064,0
DA:1064,0
DA:1064,1
DA:1064,4
DA:1064,175
DA:1064,17
DA:1064,0
DA:1064,85
DA:1089,0
DA:1091,0
DA:1092,0
DA:1089,0
DA:1091,0
DA:1092,0
DA:1089,0
DA:1091,0
DA:1092,0
DA:1089,1
DA:1091,1
DA:1092,1
DA:1089,5
DA:1091,5
DA:1092,5
DA:1089,414
DA:1091,414
DA:1092,414
DA:1089,295
DA:1091,295
DA:1092,295
DA:1089,0
DA:1091,0
DA:1092,0
DA:1089,189
DA:1091,189
DA:1092,189
DA:1096,0
DA:1098,0
DA:1104,0
DA:1105,0
DA:1096,0
DA:1098,0
DA:1104,0
DA:1105,0
DA:1096,0
DA:1098,0
DA:1104,0
DA:1105,0
DA:1096,1
DA:1098,1
DA:1104,1
DA:1105,1
DA:1096,5
DA:1098,5
DA:1104,5
DA:1105,5
DA:1096,436
DA:1098,436
DA:1104,436
DA:1105,436
DA:1096,295
DA:1098,295
DA:1104,295
DA:1105,295
DA:1096,0
DA:1098,0
DA:1104,0
DA:1105,0
DA:1096,189
DA:1098,189
DA:1104,189
DA:1105,189
DA:1110,0
DA:1114,0
DA:1116,0
DA:1118,0
DA:1119,0
DA:1120,0
DA:1121,0
DA:1123,0
DA:1124,0
DA:1125,0
DA:1126,0
DA:1127,0
DA:1129,0
DA:1130,0
DA:1132,0
DA:1135,0
DA:1136,0
DA:1137,0
DA:1138,0
DA:1139,0
DA:1140,0
DA:1141,0
DA:1142,0
DA:1144,0
DA:1150,0
DA:1152,0
DA:1110,0
DA:1114,0
DA:1116,0
DA:1118,0
DA:1119,0
DA:1120,0
DA:1121,0
DA:1123,0
DA:1124,0
DA:1125,0
DA:1126,0
DA:1127,0
DA:1129,0
DA:1130,0
DA:1132,0
DA:1135,0
DA:1136,0
DA:1137,0
DA:1138,0
DA:1139,0
DA:1140,0
DA:1141,0
DA:1142,0
DA:1144,0
DA:1150,0
DA:1152,0
DA:1110,0
DA:1114,0
DA:1116,0
DA:1118,0
DA:1119,0
DA:1120,0
DA:1121,0
DA:1123,0
DA:1124,0
DA:1125,0
DA:1126,0
DA:1127,0
DA:1129,0
DA:1130,0
DA:1132,0
DA:1135,0
DA:1136,0
DA:1137,0
DA:1138,0
DA:1139,0
DA:1140,0
DA:1141,0
DA:1142,0
DA:1144,0
DA:1150,0
DA:1152,0
DA:1110,0
DA:1114,0
DA:1116,0
DA:1118,0
DA:1119,0
DA:1120,0
DA:1121,0
DA:1123,0
DA:1124,0
DA:1125,0
DA:1126,0
DA:1127,0
DA:1129,0
DA:1130,0
DA:1132,0
DA:1135,0
DA:1136,0
DA:1137,0
DA:1138,0
DA:1139,0
DA:1140,0
DA:1141,0
DA:1142,0
DA:1144,0
DA:1150,0
DA:1152,0
DA:1110,0
DA:1114,0
DA:1116,0
DA:1118,0
DA:1119,0
DA:1120,0
DA:1121,0
DA:1123,0
DA:1124,0
DA:1125,0
DA:1126,0
DA:1127,0
DA:1129,0
DA:1130,0
DA:1132,0
DA:1135,0
DA:1136,0
DA:1137,0
DA:1138,0
DA:1139,0
DA:1140,0
DA:1141,0
DA:1142,0
DA:1144,0
DA:1150,0
DA:1152,0
DA:1110,0
DA:1114,0
DA:1116,0
DA:1118,0
DA:1119,0
DA:1120,0
DA:1121,0
DA:1123,0
DA:1124,0
DA:1125,0
DA:1126,0
DA:1127,0
DA:1129,0
DA:1130,0
DA:1132,0
DA:1135,0
DA:1136,0
DA:1137,0
DA:1138,0
DA:1139,0
DA:1140,0
DA:1141,0
DA:1142,0
DA:1144,0
DA:1150,0
DA:1152,0
DA:1110,0
DA:1114,0
DA:1116,0
DA:1118,0
DA:1119,0
DA:1120,0
DA:1121,0
DA:1123,0
DA:1124,0
DA:1125,0
DA:1126,0
DA:1127,0
DA:1129,0
DA:1130,0
DA:1132,0
DA:1135,0
DA:1136,0
DA:1137,0
DA:1138,0
DA:1139,0
DA:1140,0
DA:1141,0
DA:1142,0
DA:1144,0
DA:1150,0
DA:1152,0
DA:1110,0
DA:1114,0
DA:1116,0
DA:1118,0
DA:1119,0
DA:1120,0
DA:1121,0
DA:1123,0
DA:1124,0
DA:1125,0
DA:1126,0
DA:1127,0
DA:1129,0
DA:1130,0
DA:1132,0
DA:1135,0
DA:1136,0
DA:1137,0
DA:1138,0
DA:1139,0
DA:1140,0
DA:1141,0
DA:1142,0
DA:1144,0
DA:1150,0
DA:1152,0
DA:1110,0
DA:1114,0
DA:1116,0
DA:1118,0
DA:1119,0
DA:1120,0
DA:1121,0
DA:1123,0
DA:1124,0
DA:1125,0
DA:1126,0
DA:1127,0
DA:1129,0
DA:1130,0
DA:1132,0
DA:1135,0
DA:1136,0
DA:1137,0
DA:1138,0
DA:1139,0
DA:1140,0
DA:1141,0
DA:1142,0
DA:1144,0
DA:1150,0
DA:1152,0
DA:1155,0
DA:1158,0
DA:1159,0
DA:1160,0
DA:1164,0
DA:1165,0
DA:1169,0
DA:1170,0
DA:1172,0
DA:1174,0
DA:1175,0
DA:1176,0
DA:1180,0
DA:1181,0
DA:1182,0
DA:1155,0
DA:1158,0
DA:1159,0
DA:1160,0
DA:1164,0
DA:1165,0
DA:1169,0
DA:1170,0
DA:1172,0
DA:1174,0
DA:1175,0
DA:1176,0
DA:1180,0
DA:1181,0
DA:1182,0
DA:1155,0
DA:1158,0
DA:1159,0
DA:1160,0
DA:1164,0
DA:1165,0
DA:1169,0
DA:1170,0
DA:1172,0
DA:1174,0
DA:1175,0
DA:1176,0
DA:1180,0
DA:1181,0
DA:1182,0
DA:1155,1
DA:1158,1
DA:1159,1
DA:1160,1
DA:1164,1
DA:1165,1
DA:1169,0
DA:1170,0
DA:1172,0
DA:1174,0
DA:1175,0
DA:1176,0
DA:1180,1
DA:1181,0
DA:1182,1
DA:1155,4
DA:1158,4
DA:1159,4
DA:1160,4
DA:1164,4
DA:1165,4
DA:1169,0
DA:1170,0
DA:1172,0
DA:1174,0
DA:1175,0
DA:1176,0
DA:1180,4
DA:1181,0
DA:1182,4
DA:1155,175
DA:1158,175
DA:1159,175
DA:1160,175
DA:1164,175
DA:1165,175
DA:1169,0
DA:1170,0
DA:1172,0
DA:1174,0
DA:1175,0
DA:1176,0
DA:1180,175
DA:1181,0
DA:1182,175
DA:1155,229
DA:1158,229
DA:1159,229
DA:1160,229
DA:1164,229
DA:1165,229
DA:1169,0
DA:1170,0
DA:1172,0
DA:1174,0
DA:1175,0
DA:1176,0
DA:1180,441
DA:1181,212
DA:1182,229
DA:1155,0
DA:1158,0
DA:1159,0
DA:1160,0
DA:1164,0
DA:1165,0
DA:1169,0
DA:1170,0
DA:1172,0
DA:1174,0
DA:1175,0
DA:1176,0
DA:1180,0
DA:1181,0
DA:1182,0
DA:1155,189
DA:1158,189
DA:1159,189
DA:1160,189
DA:1164,189
DA:1165,189
DA:1169,0
DA:1170,0
DA:1172,0
DA:1174,0
DA:1175,0
DA:1176,0
DA:1180,293
DA:1181,104
DA:1182,189
DA:1192,0
DA:1197,0
DA:1198,0
DA:1200,0
DA:1201,0
DA:1202,0
DA:1203,0
DA:1205,0
DA:1208,0
DA:1209,0
DA:1211,0
DA:1212,0
DA:1216,0
DA:1217,0
DA:1192,0
DA:1197,0
DA:1198,0
DA:1200,0
DA:1201,0
DA:1202,0
DA:1203,0
DA:1205,0
DA:1208,0
DA:1209,0
DA:1211,0
DA:1212,0
DA:1216,0
DA:1217,0
DA:1192,0
DA:1197,0
DA:1198,0
DA:1200,0
DA:1201,0
DA:1202,0
DA:1203,0
DA:1205,0
DA:1208,0
DA:1209,0
DA:1211,0
DA:1212,0
DA:1216,0
DA:1217,0
DA:1192,1
DA:1197,1
DA:1198,1
DA:1200,0
DA:1201,0
DA:1202,0
DA:1203,0
DA:1205,0
DA:1208,1
DA:1209,1
DA:1211,1
DA:1212,0
DA:1216,1
DA:1217,1
DA:1192,4
DA:1197,4
DA:1198,4
DA:1200,0
DA:1201,0
DA:1202,0
DA:1203,0
DA:1205,0
DA:1208,4
DA:1209,4
DA:1211,4
DA:1212,0
DA:1216,4
DA:1217,4
DA:1192,175
DA:1197,175
DA:1198,175
DA:1200,0
DA:1201,0
DA:1202,0
DA:1203,0
DA:1205,0
DA:1208,175
DA:1209,175
DA:1211,175
DA:1212,0
DA:1216,175
DA:1217,175
DA:1192,229
DA:1197,229
DA:1198,229
DA:1200,0
DA:1201,0
DA:1202,0
DA:1203,0
DA:1205,0
DA:1208,229
DA:1209,229
DA:1211,229
DA:1212,0
DA:1216,229
DA:1217,229
DA:1192,0
DA:1197,0
DA:1198,0
DA:1200,0
DA:1201,0
DA:1202,0
DA:1203,0
DA:1205,0
DA:1208,0
DA:1209,0
DA:1211,0
DA:1212,0
DA:1216,0
DA:1217,0
DA:1192,189
DA:1197,189
DA:1198,189
DA:1200,0
DA:1201,0
DA:1202,0
DA:1203,0
DA:1205,0
DA:1208,189
DA:1209,189
DA:1211,189
DA:1212,0
DA:1216,189
DA:1217,189
DA:1310,0
DA:1311,0
DA:1312,0
DA:1310,194
DA:1311,194
DA:1312,194
DA:1323,0
DA:1324,0
DA:1323,0
DA:1324,0
DA:1365,0
DA:1365,0
DA:1381,0
DA:1382,0
DA:1384,0
DA:1385,0
DA:1381,0
DA:1382,0
DA:1384,0
DA:1385,0
DA:1390,0
DA:1394,0
DA:1395,0
DA:1390,1
DA:1394,1
DA:1395,2
DA:1390,4
DA:1394,4
DA:1395,8
DA:1390,17
DA:1394,17
DA:1395,34
DA:1390,0
DA:1394,0
DA:1395,0
DA:1401,0
DA:1403,0
DA:1404,0
DA:1401,0
DA:1403,0
DA:1404,0
DA:1401,0
DA:1403,0
DA:1404,0
DA:1401,212
DA:1403,212
DA:1404,424
DA:1401,189
DA:1403,189
DA:1404,378
DA:1410,0
DA:1411,0
DA:1412,0
DA:1410,194
DA:1411,194
DA:1412,194
DA:1425,0
DA:1430,0
DA:1434,0
DA:1435,0
DA:1430,0
DA:1434,0
DA:1435,0
DA:1430,175
DA:1434,175
DA:1435,175
DA:1430,0
DA:1434,0
DA:1435,0
DA:1441,0
DA:1443,0
DA:1444,0
DA:1441,0
DA:1443,0
DA:1444,0
DA:1441,0
DA:1443,0
DA:1444,0
DA:1441,0
DA:1443,0
DA:1444,0
DA:1448,0
DA:1464,2
DA:1464,1
DA:1464,2
DA:1464,2
DA:1464,1
DA:1464,1
DA:1464,3
DA:1464,0
DA:1464,1
DA:1484,1
DA:1485,1
DA:1486,1
DA:1487,1
DA:1488,1
DA:1489,2
DA:1484,1
DA:1485,1
DA:1486,1
DA:1487,1
DA:1488,1
DA:1489,2
DA:1484,0
DA:1489,0
DA:1484,0
DA:1485,0
DA:1486,0
DA:1487,0
DA:1488,0
DA:1489,0
DA:1484,0
DA:1489,0
DA:1484,3
DA:1485,3
DA:1486,3
DA:1487,3
DA:1488,3
DA:1489,6
DA:1484,0
DA:1489,0
DA:1484,1
DA:1485,1
DA:1486,1
DA:1487,1
DA:1488,1
DA:1489,2
DA:1484,0
DA:1489,0
DA:1484,0
DA:1489,0
DA:1484,0
DA:1489,0
DA:1484,2
DA:1485,2
DA:1486,2
DA:1487,2
DA:1488,2
DA:1489,4
DA:1484,0
DA:1489,0
DA:1484,2
DA:1485,2
DA:1486,2
DA:1487,2
DA:1488,2
DA:1489,4
DA:1484,0
DA:1489,0
DA:1484,1
DA:1485,1
DA:1486,1
DA:1487,1
DA:1488,1
DA:1489,2
DA:1484,0
DA:1489,0
DA:1484,2
DA:1485,2
DA:1486,2
DA:1487,2
DA:1488,2
DA:1489,4
DA:1494,0
DA:1496,0
DA:1498,0
DA:1499,0
DA:1500,0
DA:1501,0
DA:1504,0
DA:1494,0
DA:1496,0
DA:1498,0
DA:1499,0
DA:1500,0
DA:1501,0
DA:1504,0
DA:1494,0
DA:1496,0
DA:1498,0
DA:1499,0
DA:1500,0
DA:1501,0
DA:1504,0
DA:1494,1
DA:1496,1
DA:1498,1
DA:1499,0
DA:1500,0
DA:1501,0
DA:1504,1
DA:1494,4
DA:1496,4
DA:1498,4
DA:1499,0
DA:1500,0
DA:1501,0
DA:1504,4
DA:1494,175
DA:1496,175
DA:1498,175
DA:1499,0
DA:1500,0
DA:1501,0
DA:1504,175
DA:1494,17
DA:1496,17
DA:1498,17
DA:1499,0
DA:1500,0
DA:1501,0
DA:1504,17
DA:1494,0
DA:1496,0
DA:1498,0
DA:1499,0
DA:1500,0
DA:1501,0
DA:1504,0
DA:1494,0
DA:1496,0
DA:1498,0
DA:1499,0
DA:1500,0
DA:1501,0
DA:1504,0
DA:1514,0
DA:1516,0
DA:1518,0
DA:1519,0
DA:1521,0
DA:1526,0
DA:1527,0
DA:1532,0
DA:1514,0
DA:1516,0
DA:1518,0
DA:1519,0
DA:1521,0
DA:1526,0
DA:1527,0
DA:1532,0
DA:1514,0
DA:1516,0
DA:1518,0
DA:1519,0
DA:1521,0
DA:1526,0
DA:1527,0
DA:1532,0
DA:1514,1
DA:1516,1
DA:1518,1
DA:1519,0
DA:1521,2
DA:1526,1
DA:1527,0
DA:1532,1
DA:1514,4
DA:1516,4
DA:1518,4
DA:1519,0
DA:1521,8
DA:1526,4
DA:1527,0
DA:1532,4
DA:1514,175
DA:1516,175
DA:1518,175
DA:1519,0
DA:1521,350
DA:1526,175
DA:1527,0
DA:1532,175
DA:1514,17
DA:1516,17
DA:1518,17
DA:1519,0
DA:1521,34
DA:1526,17
DA:1527,0
DA:1532,17
DA:1514,0
DA:1516,0
DA:1518,0
DA:1519,0
DA:1521,0
DA:1526,0
DA:1527,0
DA:1532,0
DA:1514,0
DA:1516,0
DA:1518,0
DA:1519,0
DA:1521,0
DA:1526,0
DA:1527,0
DA:1532,0
DA:1540,0
DA:1543,0
DA:1544,0
DA:1545,0
DA:1540,0
DA:1543,0
DA:1544,0
DA:1545,0
DA:1540,0
DA:1543,0
DA:1544,0
DA:1545,0
DA:1540,1
DA:1543,1
DA:1544,1
DA:1545,1
DA:1540,4
DA:1543,4
DA:1544,4
DA:1545,4
DA:1540,175
DA:1543,175
DA:1544,175
DA:1545,175
DA:1540,17
DA:1543,17
DA:1544,17
DA:1545,17
DA:1540,0
DA:1543,0
DA:1544,0
DA:1545,0
DA:1540,0
DA:1543,0
DA:1544,0
DA:1545,0
DA:1552,0
DA:1556,0
DA:1557,0
DA:1558,0
DA:1552,0
DA:1556,0
DA:1557,0
DA:1558,0
DA:1552,0
DA:1556,0
DA:1557,0
DA:1558,0
DA:1552,0
DA:1556,0
DA:1557,0
DA:1558,0
DA:1552,0
DA:1556,0
DA:1557,0
DA:1558,0
DA:1552,0
DA:1556,0
DA:1557,0
DA:1558,0
DA:1552,212
DA:1556,424
DA:1557,212
DA:1558,424
DA:1552,0
DA:1556,0
DA:1557,0
DA:1558,0
DA:1552,189
DA:1556,378
DA:1557,189
DA:1558,378
DA:1563,47
DA:1565,47
DA:1574,94
DA:1575,47
DA:1577,47
DA:1578,47
DA:1579,94
DA:1580,47
DA:1581,0
DA:1586,47
DA:1587,47
DA:1563,1
DA:1565,1
DA:1574,2
DA:1575,1
DA:1577,1
DA:1578,1
DA:1579,2
DA:1580,1
DA:1581,0
DA:1586,1
DA:1587,1
DA:1563,113
DA:1565,113
DA:1574,226
DA:1575,113
DA:1577,113
DA:1578,113
DA:1579,226
DA:1580,113
DA:1581,0
DA:1586,113
DA:1587,113
DA:1563,117
DA:1565,117
DA:1574,234
DA:1575,117
DA:1577,117
DA:1578,117
DA:1579,234
DA:1580,117
DA:1581,0
DA:1586,117
DA:1587,117
DA:1563,1
DA:1565,1
DA:1574,2
DA:1575,1
DA:1577,1
DA:1578,1
DA:1579,2
DA:1580,1
DA:1581,0
DA:1586,1
DA:1587,1
DA:1563,1
DA:1565,1
DA:1574,2
DA:1575,1
DA:1577,1
DA:1578,1
DA:1579,2
DA:1580,1
DA:1581,0
DA:1586,1
DA:1587,1
DA:1563,3
DA:1565,3
DA:1574,6
DA:1575,3
DA:1577,3
DA:1578,3
DA:1579,6
DA:1580,3
DA:1581,0
DA:1586,3
DA:1587,3
DA:1563,0
DA:1565,0
DA:1574,0
DA:1575,0
DA:1577,0
DA:1578,0
DA:1579,0
DA:1580,0
DA:1581,0
DA:1586,0
DA:1587,0
DA:1563,1
DA:1565,1
DA:1574,2
DA:1575,1
DA:1577,1
DA:1578,1
DA:1579,2
DA:1580,1
DA:1581,0
DA:1586,1
DA:1587,1
DA:1650,0
DA:1652,0
DA:1654,0
DA:1655,0
DA:1660,0
DA:1662,0
DA:1650,0
DA:1652,0
DA:1654,0
DA:1655,0
DA:1660,0
DA:1662,0
DA:1650,0
DA:1652,0
DA:1654,0
DA:1655,0
DA:1660,0
DA:1662,0
DA:1650,0
DA:1652,0
DA:1654,0
DA:1655,0
DA:1660,0
DA:1662,0
DA:1650,0
DA:1652,0
DA:1654,0
DA:1655,0
DA:1660,0
DA:1662,0
DA:1650,0
DA:1652,0
DA:1654,0
DA:1655,0
DA:1660,0
DA:1662,0
DA:1650,0
DA:1652,0
DA:1654,0
DA:1655,0
DA:1660,0
DA:1662,0
DA:1650,0
DA:1652,0
DA:1654,0
DA:1655,0
DA:1660,0
DA:1662,0
DA:1650,0
DA:1652,0
DA:1654,0
DA:1655,0
DA:1660,0
DA:1662,0
DA:1667,0
DA:1670,0
DA:1672,0
DA:1673,0
DA:1674,0
DA:1675,0
DA:1676,0
DA:1667,0
DA:1670,0
DA:1672,0
DA:1673,0
DA:1674,0
DA:1675,0
DA:1676,0
DA:1667,0
DA:1670,0
DA:1672,0
DA:1673,0
DA:1674,0
DA:1675,0
DA:1676,0
DA:1667,0
DA:1670,0
DA:1672,0
DA:1673,0
DA:1674,0
DA:1675,0
DA:1676,0
DA:1667,0
DA:1670,0
DA:1672,0
DA:1673,0
DA:1674,0
DA:1675,0
DA:1676,0
DA:1667,0
DA:1670,0
DA:1672,0
DA:1673,0
DA:1674,0
DA:1675,0
DA:1676,0
DA:1667,0
DA:1670,0
DA:1672,0
DA:1673,0
DA:1674,0
DA:1675,0
DA:1676,0
DA:1667,0
DA:1670,0
DA:1672,0
DA:1673,0
DA:1674,0
DA:1675,0
DA:1676,0
DA:1667,0
DA:1670,0
DA:1672,0
DA:1673,0
DA:1674,0
DA:1675,0
DA:1676,0
DA:1694,0
DA:1698,0
DA:1700,0
DA:1701,0
DA:1702,0
DA:1703,0
DA:1704,0
DA:1710,0
DA:1711,0
DA:1712,0
DA:1713,0
DA:1714,0
DA:1715,0
DA:1694,0
DA:1698,0
DA:1700,0
DA:1701,0
DA:1702,0
DA:1703,0
DA:1704,0
DA:1710,0
DA:1711,0
DA:1712,0
DA:1713,0
DA:1714,0
DA:1715,0
DA:1694,0
DA:1698,0
DA:1700,0
DA:1701,0
DA:1702,0
DA:1703,0
DA:1704,0
DA:1710,0
DA:1711,0
DA:1712,0
DA:1713,0
DA:1714,0
DA:1715,0
DA:1694,1
DA:1698,1
DA:1700,2
DA:1701,1
DA:1702,1
DA:1703,0
DA:1704,0
DA:1710,1
DA:1711,1
DA:1712,1
DA:1713,1
DA:1714,1
DA:1715,1
DA:1694,4
DA:1698,4
DA:1700,8
DA:1701,4
DA:1702,4
DA:1703,0
DA:1704,0
DA:1710,4
DA:1711,4
DA:1712,4
DA:1713,4
DA:1714,4
DA:1715,4
DA:1694,175
DA:1698,175
DA:1700,350
DA:1701,175
DA:1702,175
DA:1703,0
DA:1704,0
DA:1710,175
DA:1711,175
DA:1712,175
DA:1713,175
DA:1714,175
DA:1715,175
DA:1694,229
DA:1698,229
DA:1700,458
DA:1701,229
DA:1702,229
DA:1703,0
DA:1704,0
DA:1710,229
DA:1711,229
DA:1712,229
DA:1713,17
DA:1714,229
DA:1715,229
DA:1694,0
DA:1698,0
DA:1700,0
DA:1701,0
DA:1702,0
DA:1703,0
DA:1704,0
DA:1710,0
DA:1711,0
DA:1712,0
DA:1713,0
DA:1714,0
DA:1715,0
DA:1694,189
DA:1698,189
DA:1700,378
DA:1701,189
DA:1702,189
DA:1703,0
DA:1704,0
DA:1710,189
DA:1711,189
DA:1712,189
DA:1713,0
DA:1714,189
DA:1715,189
DA:1719,0
DA:1721,0
DA:1723,0
DA:1724,0
DA:1719,0
DA:1721,0
DA:1723,0
DA:1724,0
DA:1719,0
DA:1721,0
DA:1723,0
DA:1724,0
DA:1719,0
DA:1721,0
DA:1723,0
DA:1724,0
DA:1719,0
DA:1721,0
DA:1723,0
DA:1724,0
DA:1719,0
DA:1721,0
DA:1723,0
DA:1724,0
DA:1719,0
DA:1721,0
DA:1723,0
DA:1724,0
DA:1719,0
DA:1721,0
DA:1723,0
DA:1724,0
DA:1719,0
DA:1721,0
DA:1723,0
DA:1724,0
DA:1728,0
DA:1731,0
DA:1734,0
DA:1736,0
DA:1738,0
DA:1739,0
DA:1740,0
DA:1743,0
DA:1728,0
DA:1731,0
DA:1734,0
DA:1736,0
DA:1738,0
DA:1739,0
DA:1740,0
DA:1743,0
DA:1728,0
DA:1731,0
DA:1734,0
DA:1736,0
DA:1738,0
DA:1739,0
DA:1740,0
DA:1743,0
DA:1728,1
DA:1731,1
DA:1734,1
DA:1736,1
DA:1738,1
DA:1739,1
DA:1740,1
DA:1743,0
DA:1728,4
DA:1731,4
DA:1734,5
DA:1736,6
DA:1738,5
DA:1739,5
DA:1740,4
DA:1743,0
DA:1728,175
DA:1731,175
DA:1734,436
DA:1736,697
DA:1738,436
DA:1739,436
DA:1740,175
DA:1743,0
DA:1728,229
DA:1731,229
DA:1734,295
DA:1736,361
DA:1738,295
DA:1739,295
DA:1740,229
DA:1743,0
DA:1728,0
DA:1731,0
DA:1734,0
DA:1736,0
DA:1738,0
DA:1739,0
DA:1740,0
DA:1743,0
DA:1728,189
DA:1731,189
DA:1734,189
DA:1736,189
DA:1738,189
DA:1739,189
DA:1740,189
DA:1743,0
DA:1747,0
DA:1752,0
DA:1753,0
DA:1754,0
DA:1755,0
DA:1756,0
DA:1747,0
DA:1752,0
DA:1753,0
DA:1754,0
DA:1755,0
DA:1756,0
DA:1747,0
DA:1752,0
DA:1753,0
DA:1754,0
DA:1755,0
DA:1756,0
DA:1747,0
DA:1752,0
DA:1753,0
DA:1754,0
DA:1755,0
DA:1756,0
DA:1747,0
DA:1752,0
DA:1753,0
DA:1754,0
DA:1755,0
DA:1756,0
DA:1747,0
DA:1752,0
DA:1753,0
DA:1754,0
DA:1755,0
DA:1756,0
DA:1747,0
DA:1752,0
DA:1753,0
DA:1754,0
DA:1755,0
DA:1756,0
DA:1747,0
DA:1752,0
DA:1753,0
DA:1754,0
DA:1755,0
DA:1756,0
DA:1747,0
DA:1752,0
DA:1753,0
DA:1754,0
DA:1755,0
DA:1756,0
DA:1760,0
DA:1764,0
DA:1765,0
DA:1766,0
DA:1769,0
DA:1770,0
DA:1772,0
DA:1773,0
DA:1774,0
DA:1775,0
DA:1776,0
DA:1778,0
DA:1779,0
DA:1780,0
DA:1782,0
DA:1760,0
DA:1764,0
DA:1765,0
DA:1766,0
DA:1769,0
DA:1770,0
DA:1772,0
DA:1773,0
DA:1774,0
DA:1775,0
DA:1776,0
DA:1778,0
DA:1779,0
DA:1780,0
DA:1782,0
DA:1760,0
DA:1764,0
DA:1765,0
DA:1766,0
DA:1769,0
DA:1770,0
DA:1772,0
DA:1773,0
DA:1774,0
DA:1775,0
DA:1776,0
DA:1778,0
DA:1779,0
DA:1780,0
DA:1782,0
DA:1760,0
DA:1764,0
DA:1765,0
DA:1766,0
DA:1769,0
DA:1770,0
DA:1772,0
DA:1773,0
DA:1774,0
DA:1775,0
DA:1776,0
DA:1778,0
DA:1779,0
DA:1780,0
DA:1782,0
DA:1760,0
DA:1764,0
DA:1765,0
DA:1766,0
DA:1769,0
DA:1770,0
DA:1772,0
DA:1773,0
DA:1774,0
DA:1775,0
DA:1776,0
DA:1778,0
DA:1779,0
DA:1780,0
DA:1782,0
DA:1760,0
DA:1764,0
DA:1765,0
DA:1766,0
DA:1769,0
DA:1770,0
DA:1772,0
DA:1773,0
DA:1774,0
DA:1775,0
DA:1776,0
DA:1778,0
DA:1779,0
DA:1780,0
DA:1782,0
DA:1760,0
DA:1764,0
DA:1765,0
DA:1766,0
DA:1769,0
DA:1770,0
DA:1772,0
DA:1773,0
DA:1774,0
DA:1775,0
DA:1776,0
DA:1778,0
DA:1779,0
DA:1780,0
DA:1782,0
DA:1760,0
DA:1764,0
DA:1765,0
DA:1766,0
DA:1769,0
DA:1770,0
DA:1772,0
DA:1773,0
DA:1774,0
DA:1775,0
DA:1776,0
DA:1778,0
DA:1779,0
DA:1780,0
DA:1782,0
DA:1760,0
DA:1764,0
DA:1765,0
DA:1766,0
DA:1769,0
DA:1770,0
DA:1772,0
DA:1773,0
DA:1774,0
DA:1775,0
DA:1776,0
DA:1778,0
DA:1779,0
DA:1780,0
DA:1782,0
end_of_record
SF:/usr/include/c++/9/bits/stl_iterator.h
FN:137,_ZNSt16reverse_iteratorIN9__gnu_cxx17__normal_iteratorIPKSt10shared_ptrIN7testing8internal15ExpectationBaseEESt6vectorIS6_SaIS6_EEEEEC2ESC_
FNDA:0,_ZNSt16reverse_iteratorIN9__gnu_cxx17__normal_iteratorIPKSt10shared_ptrIN7testing8internal15ExpectationBaseEESt6vectorIS6_SaIS6_EEEEEC2ESC_
FN:137,_ZNSt16reverse_iteratorIN9__gnu_cxx17__normal_iteratorIPKPKvSt6vectorIS3_SaIS3_EEEEEC2ES9_
FNDA:0,_ZNSt16reverse_iteratorIN9__gnu_cxx17__normal_iteratorIPKPKvSt6vectorIS3_SaIS3_EEEEEC2ES9_
FN:163,_ZNKSt16reverse_iteratorIN9__gnu_cxx17__normal_iteratorIPKPKvSt6vectorIS3_SaIS3_EEEEE4baseEv
FNDA:0,_ZNKSt16reverse_iteratorIN9__gnu_cxx17__normal_iteratorIPKPKvSt6vectorIS3_SaIS3_EEEEE4baseEv
FN:163,_ZNKSt16reverse_iteratorIN9__gnu_cxx17__normal_iteratorIPKSt10shared_ptrIN7testing8internal15ExpectationBaseEESt6vectorIS6_SaIS6_EEEEE4baseEv
FNDA:0,_ZNKSt16reverse_iteratorIN9__gnu_cxx17__normal_iteratorIPKSt10shared_ptrIN7testing8internal15ExpectationBaseEESt6vectorIS6_SaIS6_EEEEE4baseEv
FN:177,_ZNKSt16reverse_iteratorIN9__gnu_cxx17__normal_iteratorIPKPKvSt6vectorIS3_SaIS3_EEEEEdeEv
FNDA:0,_ZNKSt16reverse_iteratorIN9__gnu_cxx17__normal_iteratorIPKPKvSt6vectorIS3_SaIS3_EEEEEdeEv
FN:189,_ZNKSt16reverse_iteratorIN9__gnu_cxx17__normal_iteratorIPKSt10shared_ptrIN7testing8internal15ExpectationBaseEESt6vectorIS6_SaIS6_EEEEEptEv
FNDA:0,_ZNKSt16reverse_iteratorIN9__gnu_cxx17__normal_iteratorIPKSt10shared_ptrIN7testing8internal15ExpectationBaseEESt6vectorIS6_SaIS6_EEEEEptEv
FN:204,_ZNSt16reverse_iteratorIN9__gnu_cxx17__normal_iteratorIPKPKvSt6vectorIS3_SaIS3_EEEEEppEv
FNDA:0,_ZNSt16reverse_iteratorIN9__gnu_cxx17__normal_iteratorIPKPKvSt6vectorIS3_SaIS3_EEEEEppEv
FN:204,_ZNSt16reverse_iteratorIN9__gnu_cxx17__normal_iteratorIPKSt10shared_ptrIN7testing8internal15ExpectationBaseEESt6vectorIS6_SaIS6_EEEEEppEv
FNDA:0,_ZNSt16reverse_iteratorIN9__gnu_cxx17__normal_iteratorIPKSt10shared_ptrIN7testing8internal15ExpectationBaseEESt6vectorIS6_SaIS6_EEEEEppEv
FN:309,_ZNSt16reverse_iteratorIN9__gnu_cxx17__normal_iteratorIPKSt10shared_ptrIN7testing8internal15ExpectationBaseEESt6vectorIS6_SaIS6_EEEEE13_S_to_pointerISC_EES8_T_
FNDA:0,_ZNSt16reverse_iteratorIN9__gnu_cxx17__normal_iteratorIPKSt10shared_ptrIN7testing8internal15ExpectationBaseEESt6vectorIS6_SaIS6_EEEEE13_S_to_pointerISC_EES8_T_
FN:325,_ZSteqIN9__gnu_cxx17__normal_iteratorIPKPKvSt6vectorIS3_SaIS3_EEEEEbRKSt16reverse_iteratorIT_ESE_
FNDA:0,_ZSteqIN9__gnu_cxx17__normal_iteratorIPKPKvSt6vectorIS3_SaIS3_EEEEEbRKSt16reverse_iteratorIT_ESE_
FN:325,_ZSteqIN9__gnu_cxx17__normal_iteratorIPKSt10shared_ptrIN7testing8internal15ExpectationBaseEESt6vectorIS6_SaIS6_EEEEEbRKSt16reverse_iteratorIT_ESH_
FNDA:0,_ZSteqIN9__gnu_cxx17__normal_iteratorIPKSt10shared_ptrIN7testing8internal15ExpectationBaseEESt6vectorIS6_SaIS6_EEEEEbRKSt16reverse_iteratorIT_ESH_
FN:337,_ZStneIN9__gnu_cxx17__normal_iteratorIPKSt10shared_ptrIN7testing8internal15ExpectationBaseEESt6vectorIS6_SaIS6_EEEEEbRKSt16reverse_iteratorIT_ESH_
FNDA:0,_ZStneIN9__gnu_cxx17__normal_iteratorIPKSt10shared_ptrIN7testing8internal15ExpectationBaseEESt6vectorIS6_SaIS6_EEEEEbRKSt16reverse_iteratorIT_ESH_
FN:337,_ZStneIN9__gnu_cxx17__normal_iteratorIPKPKvSt6vectorIS3_SaIS3_EEEEEbRKSt16reverse_iteratorIT_ESE_
FNDA:0,_ZStneIN9__gnu_cxx17__normal_iteratorIPKPKvSt6vectorIS3_SaIS3_EEEEEbRKSt16reverse_iteratorIT_ESE_
FN:806,_ZN9__gnu_cxx17__normal_iteratorIPKSt10shared_ptrIN7testing8internal15ExpectationBaseEESt6vectorIS5_SaIS5_EEEC2ERKS7_
FNDA:0,_ZN9__gnu_cxx17__normal_iteratorIPKSt10shared_ptrIN7testing8internal15ExpectationBaseEESt6vectorIS5_SaIS5_EEEC2ERKS7_
FN:806,_ZN9__gnu_cxx17__normal_iteratorIPKPKvSt6vectorIS2_SaIS2_EEEC2ERKS4_
FNDA:0,_ZN9__gnu_cxx17__normal_iteratorIPKPKvSt6vectorIS2_SaIS2_EEEC2ERKS4_
FN:806,_ZN9__gnu_cxx17__normal_iteratorIPPKvSt6vectorIS2_SaIS2_EEEC2ERKS3_
FNDA:0,_ZN9__gnu_cxx17__normal_iteratorIPPKvSt6vectorIS2_SaIS2_EEEC2ERKS3_
FN:811,_ZN9__gnu_cxx17__normal_iteratorIPKPKvSt6vectorIS2_SaIS2_EEEC2IPS2_EERKNS0_IT_NS_11__enable_ifIXsrSt10__are_sameISB_SA_E7__valueES7_E6__typeEEE
FNDA:0,_ZN9__gnu_cxx17__normal_iteratorIPKPKvSt6vectorIS2_SaIS2_EEEC2IPS2_EERKNS0_IT_NS_11__enable_ifIXsrSt10__are_sameISB_SA_E7__valueES7_E6__typeEEE
FN:819,_ZNK9__gnu_cxx17__normal_iteratorIPKPKvSt6vectorIS2_SaIS2_EEEdeEv
FNDA:0,_ZNK9__gnu_cxx17__normal_iteratorIPKPKvSt6vectorIS2_SaIS2_EEEdeEv
FN:823,_ZNK9__gnu_cxx17__normal_iteratorIPKSt10shared_ptrIN7testing8internal15ExpectationBaseEESt6vectorIS5_SaIS5_EEEptEv
FNDA:0,_ZNK9__gnu_cxx17__normal_iteratorIPKSt10shared_ptrIN7testing8internal15ExpectationBaseEESt6vectorIS5_SaIS5_EEEptEv
FN:827,_ZN9__gnu_cxx17__normal_iteratorIPKPKvSt6vectorIS2_SaIS2_EEEppEv
FNDA:0,_ZN9__gnu_cxx17__normal_iteratorIPKPKvSt6vectorIS2_SaIS2_EEEppEv
FN:839,_ZN9__gnu_cxx17__normal_iteratorIPKSt10shared_ptrIN7testing8internal15ExpectationBaseEESt6vectorIS5_SaIS5_EEEmmEv
FNDA:0,_ZN9__gnu_cxx17__normal_iteratorIPKSt10shared_ptrIN7testing8internal15ExpectationBaseEESt6vectorIS5_SaIS5_EEEmmEv
FN:839,_ZN9__gnu_cxx17__normal_iteratorIPKPKvSt6vectorIS2_SaIS2_EEEmmEv
FNDA:0,_ZN9__gnu_cxx17__normal_iteratorIPKPKvSt6vectorIS2_SaIS2_EEEmmEv
FN:871,_ZNK9__gnu_cxx17__normal_iteratorIPKPKvSt6vectorIS2_SaIS2_EEE4baseEv
FNDA:0,_ZNK9__gnu_cxx17__normal_iteratorIPKPKvSt6vectorIS2_SaIS2_EEE4baseEv
FN:871,_ZNK9__gnu_cxx17__normal_iteratorIPPKvSt6vectorIS2_SaIS2_EEE4baseEv
FNDA:0,_ZNK9__gnu_cxx17__normal_iteratorIPPKvSt6vectorIS2_SaIS2_EEE4baseEv
FN:871,_ZNK9__gnu_cxx17__normal_iteratorIPKSt10shared_ptrIN7testing8internal15ExpectationBaseEESt6vectorIS5_SaIS5_EEE4baseEv
FNDA:0,_ZNK9__gnu_cxx17__normal_iteratorIPKSt10shared_ptrIN7testing8internal15ExpectationBaseEESt6vectorIS5_SaIS5_EEE4baseEv
FN:893,_ZN9__gnu_cxxeqIPKSt10shared_ptrIN7testing8internal15ExpectationBaseEESt6vectorIS5_SaIS5_EEEEbRKNS_17__normal_iteratorIT_T0_EESG_
FNDA:0,_ZN9__gnu_cxxeqIPKSt10shared_ptrIN7testing8internal15ExpectationBaseEESt6vectorIS5_SaIS5_EEEEbRKNS_17__normal_iteratorIT_T0_EESG_
FN:893,_ZN9__gnu_cxxeqIPKPKvSt6vectorIS2_SaIS2_EEEEbRKNS_17__normal_iteratorIT_T0_EESD_
FNDA:0,_ZN9__gnu_cxxeqIPKPKvSt6vectorIS2_SaIS2_EEEEbRKNS_17__normal_iteratorIT_T0_EESD_
FN:900,_ZN9__gnu_cxxneIPKPKvPS2_St6vectorIS2_SaIS2_EEEEbRKNS_17__normal_iteratorIT_T1_EERKNS9_IT0_SB_EE
FNDA:0,_ZN9__gnu_cxxneIPKPKvPS2_St6vectorIS2_SaIS2_EEEEbRKNS_17__normal_iteratorIT_T1_EERKNS9_IT0_SB_EE
DA:137,0
DA:137,0
DA:163,0
DA:164,0
DA:163,0
DA:164,0
DA:177,0
DA:179,0
DA:180,0
DA:189,0
DA:193,0
DA:194,0
DA:195,0
DA:204,0
DA:206,0
DA:207,0
DA:204,0
DA:206,0
DA:207,0
DA:309,0
DA:310,0
DA:325,0
DA:327,0
DA:325,0
DA:327,0
DA:337,0
DA:339,0
DA:337,0
DA:339,0
DA:806,0
DA:807,0
DA:806,0
DA:807,0
DA:806,0
DA:807,0
DA:811,0
DA:815,0
DA:819,0
DA:820,0
DA:823,0
DA:824,0
DA:827,0
DA:829,0
DA:830,0
DA:839,0
DA:841,0
DA:842,0
DA:839,0
DA:841,0
DA:842,0
DA:871,0
DA:872,0
DA:871,0
DA:872,0
DA:871,0
DA:872,0
DA:893,0
DA:896,0
DA:893,0
DA:896,0
DA:900,0
DA:903,0
end_of_record
SF:/usr/include/c++/9/ext/type_traits.h
FN:152,_ZN9__gnu_cxx17__is_null_pointerIcEEbPT_
FNDA:0,_ZN9__gnu_cxx17__is_null_pointerIcEEbPT_
FN:152,_ZN9__gnu_cxx17__is_null_pointerIKcEEbPT_
FNDA:0,_ZN9__gnu_cxx17__is_null_pointerIKcEEbPT_
DA:152,0
DA:153,0
DA:152,0
DA:153,0
end_of_record
SF:/usr/include/c++/9/bits/stl_iterator_base_types.h
FN:205,_ZSt19__iterator_categoryIPcENSt15iterator_traitsIT_E17iterator_categoryERKS2_
FNDA:0,_ZSt19__iterator_categoryIPcENSt15iterator_traitsIT_E17iterator_categoryERKS2_
FN:205,_ZSt19__iterator_categoryIPKcENSt15iterator_traitsIT_E17iterator_categoryERKS3_
FNDA:0,_ZSt19__iterator_categoryIPKcENSt15iterator_traitsIT_E17iterator_categoryERKS3_
DA:205,0
DA:206,0
DA:205,0
DA:206,0
end_of_record
SF:/home/pieter/GitHub/Control-Surface/ArduinoMock/HardwareSerial.h
FN:48,_ZN12SerialHelperD0Ev
FNDA:0,_ZN12SerialHelperD0Ev
FN:48,_ZN12SerialHelperD2Ev
FNDA:1,_ZN12SerialHelperD2Ev
DA:48,0
DA:48,1
end_of_record
SF:/usr/include/c++/9/bits/shared_ptr_base.h
FN:138,_ZNSt16_Sp_counted_baseILN9__gnu_cxx12_Lock_policyE2EE15_M_add_ref_copyEv
FNDA:0,_ZNSt16_Sp_counted_baseILN9__gnu_cxx12_Lock_policyE2EE15_M_add_ref_copyEv
FN:148,_ZNSt16_Sp_counted_baseILN9__gnu_cxx12_Lock_policyE2EE10_M_releaseEv
FNDA:0,_ZNSt16_Sp_counted_baseILN9__gnu_cxx12_Lock_policyE2EE10_M_releaseEv
FN:727,_ZNSt14__shared_countILN9__gnu_cxx12_Lock_policyE2EED2Ev
FNDA:0,_ZNSt14__shared_countILN9__gnu_cxx12_Lock_policyE2EED2Ev
FN:733,_ZNSt14__shared_countILN9__gnu_cxx12_Lock_policyE2EEC2ERKS2_
FNDA:0,_ZNSt14__shared_countILN9__gnu_cxx12_Lock_policyE2EEC2ERKS2_
FN:1012,_ZNKSt19__shared_ptr_accessIKN7testing16MatcherInterfaceIRKiEELN9__gnu_cxx12_Lock_policyE2ELb0ELb0EEptEv
FNDA:0,_ZNKSt19__shared_ptr_accessIKN7testing16MatcherInterfaceIRKiEELN9__gnu_cxx12_Lock_policyE2ELb0ELb0EEptEv
FN:1012,_ZNKSt19__shared_ptr_accessIN7testing8internal15ExpectationBaseELN9__gnu_cxx12_Lock_policyE2ELb0ELb0EEptEv
FNDA:0,_ZNKSt19__shared_ptr_accessIN7testing8internal15ExpectationBaseELN9__gnu_cxx12_Lock_policyE2ELb0ELb0EEptEv
FN:1012,_ZNKSt19__shared_ptr_accessIKN7testing16MatcherInterfaceIRKSt5tupleIJEEEELN9__gnu_cxx12_Lock_policyE2ELb0ELb0EEptEv
FNDA:0,_ZNKSt19__shared_ptr_accessIKN7testing16MatcherInterfaceIRKSt5tupleIJEEEELN9__gnu_cxx12_Lock_policyE2ELb0ELb0EEptEv
FN:1012,_ZNKSt19__shared_ptr_accessIKN7testing16MatcherInterfaceIRKSt5tupleIJhiEEEELN9__gnu_cxx12_Lock_policyE2ELb0ELb0EEptEv
FNDA:0,_ZNKSt19__shared_ptr_accessIKN7testing16MatcherInterfaceIRKSt5tupleIJhiEEEELN9__gnu_cxx12_Lock_policyE2ELb0ELb0EEptEv
FN:1012,_ZNKSt19__shared_ptr_accessIKN7testing16MatcherInterfaceIRKSt5tupleIJhEEEELN9__gnu_cxx12_Lock_policyE2ELb0ELb0EEptEv
FNDA:0,_ZNKSt19__shared_ptr_accessIKN7testing16MatcherInterfaceIRKSt5tupleIJhEEEELN9__gnu_cxx12_Lock_policyE2ELb0ELb0EEptEv
FN:1012,_ZNKSt19__shared_ptr_accessIKN7testing16MatcherInterfaceIRKSt5tupleIJhhEEEELN9__gnu_cxx12_Lock_policyE2ELb0ELb0EEptEv
FNDA:0,_ZNKSt19__shared_ptr_accessIKN7testing16MatcherInterfaceIRKSt5tupleIJhhEEEELN9__gnu_cxx12_Lock_policyE2ELb0ELb0EEptEv
FN:1012,_ZNKSt19__shared_ptr_accessIKN7testing16MatcherInterfaceIRKSt5tupleIJPKhmEEEELN9__gnu_cxx12_Lock_policyE2ELb0ELb0EEptEv
FNDA:0,_ZNKSt19__shared_ptr_accessIKN7testing16MatcherInterfaceIRKSt5tupleIJPKhmEEEELN9__gnu_cxx12_Lock_policyE2ELb0ELb0EEptEv
FN:1012,_ZNKSt19__shared_ptr_accessIKN7testing16MatcherInterfaceIRKSt5tupleIJmEEEELN9__gnu_cxx12_Lock_policyE2ELb0ELb0EEptEv
FNDA:0,_ZNKSt19__shared_ptr_accessIKN7testing16MatcherInterfaceIRKSt5tupleIJmEEEELN9__gnu_cxx12_Lock_policyE2ELb0ELb0EEptEv
FN:1012,_ZNKSt19__shared_ptr_accessIKN7testing16MatcherInterfaceIRKhEELN9__gnu_cxx12_Lock_policyE2ELb0ELb0EEptEv
FNDA:0,_ZNKSt19__shared_ptr_accessIKN7testing16MatcherInterfaceIRKhEELN9__gnu_cxx12_Lock_policyE2ELb0ELb0EEptEv
FN:1012,_ZNKSt19__shared_ptr_accessIKN7testing16MatcherInterfaceIRKmEELN9__gnu_cxx12_Lock_policyE2ELb0ELb0EEptEv
FNDA:0,_ZNKSt19__shared_ptr_accessIKN7testing16MatcherInterfaceIRKmEELN9__gnu_cxx12_Lock_policyE2ELb0ELb0EEptEv
FN:1012,_ZNKSt19__shared_ptr_accessIKN7testing16MatcherInterfaceIRKPKhEELN9__gnu_cxx12_Lock_policyE2ELb0ELb0EEptEv
FNDA:0,_ZNKSt19__shared_ptr_accessIKN7testing16MatcherInterfaceIRKPKhEELN9__gnu_cxx12_Lock_policyE2ELb0ELb0EEptEv
FN:1012,_ZNKSt19__shared_ptr_accessIKN7testing20CardinalityInterfaceELN9__gnu_cxx12_Lock_policyE2ELb0ELb0EEptEv
FNDA:0,_ZNKSt19__shared_ptr_accessIKN7testing20CardinalityInterfaceELN9__gnu_cxx12_Lock_policyE2ELb0ELb0EEptEv
FN:1020,_ZNKSt19__shared_ptr_accessIKN7testing16MatcherInterfaceIRKSt5tupleIJhiEEEELN9__gnu_cxx12_Lock_policyE2ELb0ELb0EE6_M_getEv
FNDA:0,_ZNKSt19__shared_ptr_accessIKN7testing16MatcherInterfaceIRKSt5tupleIJhiEEEELN9__gnu_cxx12_Lock_policyE2ELb0ELb0EE6_M_getEv
FN:1020,_ZNKSt19__shared_ptr_accessIKN7testing16MatcherInterfaceIRKPKhEELN9__gnu_cxx12_Lock_policyE2ELb0ELb0EE6_M_getEv
FNDA:0,_ZNKSt19__shared_ptr_accessIKN7testing16MatcherInterfaceIRKPKhEELN9__gnu_cxx12_Lock_policyE2ELb0ELb0EE6_M_getEv
FN:1020,_ZNKSt19__shared_ptr_accessIN7testing8internal15ExpectationBaseELN9__gnu_cxx12_Lock_policyE2ELb0ELb0EE6_M_getEv
FNDA:0,_ZNKSt19__shared_ptr_accessIN7testing8internal15ExpectationBaseELN9__gnu_cxx12_Lock_policyE2ELb0ELb0EE6_M_getEv
FN:1020,_ZNKSt19__shared_ptr_accessIKN7testing16MatcherInterfaceIRKmEELN9__gnu_cxx12_Lock_policyE2ELb0ELb0EE6_M_getEv
FNDA:0,_ZNKSt19__shared_ptr_accessIKN7testing16MatcherInterfaceIRKmEELN9__gnu_cxx12_Lock_policyE2ELb0ELb0EE6_M_getEv
FN:1020,_ZNKSt19__shared_ptr_accessIKN7testing16MatcherInterfaceIRKhEELN9__gnu_cxx12_Lock_policyE2ELb0ELb0EE6_M_getEv
FNDA:0,_ZNKSt19__shared_ptr_accessIKN7testing16MatcherInterfaceIRKhEELN9__gnu_cxx12_Lock_policyE2ELb0ELb0EE6_M_getEv
FN:1020,_ZNKSt19__shared_ptr_accessIKN7testing16MatcherInterfaceIRKSt5tupleIJEEEELN9__gnu_cxx12_Lock_policyE2ELb0ELb0EE6_M_getEv
FNDA:0,_ZNKSt19__shared_ptr_accessIKN7testing16MatcherInterfaceIRKSt5tupleIJEEEELN9__gnu_cxx12_Lock_policyE2ELb0ELb0EE6_M_getEv
FN:1020,_ZNKSt19__shared_ptr_accessIKN7testing16MatcherInterfaceIRKSt5tupleIJhEEEELN9__gnu_cxx12_Lock_policyE2ELb0ELb0EE6_M_getEv
FNDA:0,_ZNKSt19__shared_ptr_accessIKN7testing16MatcherInterfaceIRKSt5tupleIJhEEEELN9__gnu_cxx12_Lock_policyE2ELb0ELb0EE6_M_getEv
FN:1020,_ZNKSt19__shared_ptr_accessIKN7testing16MatcherInterfaceIRKSt5tupleIJhhEEEELN9__gnu_cxx12_Lock_policyE2ELb0ELb0EE6_M_getEv
FNDA:0,_ZNKSt19__shared_ptr_accessIKN7testing16MatcherInterfaceIRKSt5tupleIJhhEEEELN9__gnu_cxx12_Lock_policyE2ELb0ELb0EE6_M_getEv
FN:1020,_ZNKSt19__shared_ptr_accessIKN7testing16MatcherInterfaceIRKSt5tupleIJPKhmEEEELN9__gnu_cxx12_Lock_policyE2ELb0ELb0EE6_M_getEv
FNDA:0,_ZNKSt19__shared_ptr_accessIKN7testing16MatcherInterfaceIRKSt5tupleIJPKhmEEEELN9__gnu_cxx12_Lock_policyE2ELb0ELb0EE6_M_getEv
FN:1020,_ZNKSt19__shared_ptr_accessIKN7testing16MatcherInterfaceIRKSt5tupleIJmEEEELN9__gnu_cxx12_Lock_policyE2ELb0ELb0EE6_M_getEv
FNDA:0,_ZNKSt19__shared_ptr_accessIKN7testing16MatcherInterfaceIRKSt5tupleIJmEEEELN9__gnu_cxx12_Lock_policyE2ELb0ELb0EE6_M_getEv
FN:1020,_ZNKSt19__shared_ptr_accessIKN7testing20CardinalityInterfaceELN9__gnu_cxx12_Lock_policyE2ELb0ELb0EE6_M_getEv
FNDA:0,_ZNKSt19__shared_ptr_accessIKN7testing20CardinalityInterfaceELN9__gnu_cxx12_Lock_policyE2ELb0ELb0EE6_M_getEv
FN:1020,_ZNKSt19__shared_ptr_accessIKN7testing16MatcherInterfaceIRKiEELN9__gnu_cxx12_Lock_policyE2ELb0ELb0EE6_M_getEv
FNDA:0,_ZNKSt19__shared_ptr_accessIKN7testing16MatcherInterfaceIRKiEELN9__gnu_cxx12_Lock_policyE2ELb0ELb0EE6_M_getEv
FN:1167,_ZNSt12__shared_ptrIKN7testing16MatcherInterfaceIRKiEELN9__gnu_cxx12_Lock_policyE2EEC2ERKS8_
FNDA:0,_ZNSt12__shared_ptrIKN7testing16MatcherInterfaceIRKiEELN9__gnu_cxx12_Lock_policyE2EEC2ERKS8_
FN:1167,_ZNSt12__shared_ptrIKN7testing16MatcherInterfaceIRKPKhEELN9__gnu_cxx12_Lock_policyE2EEC2ERKSA_
FNDA:0,_ZNSt12__shared_ptrIKN7testing16MatcherInterfaceIRKPKhEELN9__gnu_cxx12_Lock_policyE2EEC2ERKSA_
FN:1167,_ZNSt12__shared_ptrIKN7testing16MatcherInterfaceIRKmEELN9__gnu_cxx12_Lock_policyE2EEC2ERKS8_
FNDA:0,_ZNSt12__shared_ptrIKN7testing16MatcherInterfaceIRKmEELN9__gnu_cxx12_Lock_policyE2EEC2ERKS8_
FN:1167,_ZNSt12__shared_ptrIKN7testing16MatcherInterfaceIRKhEELN9__gnu_cxx12_Lock_policyE2EEC2ERKS8_
FNDA:0,_ZNSt12__shared_ptrIKN7testing16MatcherInterfaceIRKhEELN9__gnu_cxx12_Lock_policyE2EEC2ERKS8_
FN:1169,_ZNSt12__shared_ptrIKN7testing16MatcherInterfaceIRKSt5tupleIJhhEEEELN9__gnu_cxx12_Lock_policyE2EED2Ev
FNDA:0,_ZNSt12__shared_ptrIKN7testing16MatcherInterfaceIRKSt5tupleIJhhEEEELN9__gnu_cxx12_Lock_policyE2EED2Ev
FN:1169,_ZNSt12__shared_ptrIKN7testing16MatcherInterfaceIRKSt5tupleIJPKhmEEEELN9__gnu_cxx12_Lock_policyE2EED2Ev
FNDA:0,_ZNSt12__shared_ptrIKN7testing16MatcherInterfaceIRKSt5tupleIJPKhmEEEELN9__gnu_cxx12_Lock_policyE2EED2Ev
FN:1169,_ZNSt12__shared_ptrIKN7testing16MatcherInterfaceIRKSt5tupleIJhEEEELN9__gnu_cxx12_Lock_policyE2EED2Ev
FNDA:0,_ZNSt12__shared_ptrIKN7testing16MatcherInterfaceIRKSt5tupleIJhEEEELN9__gnu_cxx12_Lock_policyE2EED2Ev
FN:1169,_ZNSt12__shared_ptrIKN7testing16MatcherInterfaceIRKSt5tupleIJEEEELN9__gnu_cxx12_Lock_policyE2EED2Ev
FNDA:0,_ZNSt12__shared_ptrIKN7testing16MatcherInterfaceIRKSt5tupleIJEEEELN9__gnu_cxx12_Lock_policyE2EED2Ev
FN:1169,_ZNSt12__shared_ptrIKN7testing16MatcherInterfaceIRKSt5tupleIJmEEEELN9__gnu_cxx12_Lock_policyE2EED2Ev
FNDA:0,_ZNSt12__shared_ptrIKN7testing16MatcherInterfaceIRKSt5tupleIJmEEEELN9__gnu_cxx12_Lock_policyE2EED2Ev
FN:1169,_ZNSt12__shared_ptrIKN7testing16MatcherInterfaceIRKSt5tupleIJhiEEEELN9__gnu_cxx12_Lock_policyE2EED2Ev
FNDA:0,_ZNSt12__shared_ptrIKN7testing16MatcherInterfaceIRKSt5tupleIJhiEEEELN9__gnu_cxx12_Lock_policyE2EED2Ev
FN:1169,_ZNSt12__shared_ptrIKN7testing16MatcherInterfaceIRKmEELN9__gnu_cxx12_Lock_policyE2EED2Ev
FNDA:0,_ZNSt12__shared_ptrIKN7testing16MatcherInterfaceIRKmEELN9__gnu_cxx12_Lock_policyE2EED2Ev
FN:1169,_ZNSt12__shared_ptrIKN7testing16MatcherInterfaceIRKhEELN9__gnu_cxx12_Lock_policyE2EED2Ev
FNDA:0,_ZNSt12__shared_ptrIKN7testing16MatcherInterfaceIRKhEELN9__gnu_cxx12_Lock_policyE2EED2Ev
FN:1169,_ZNSt12__shared_ptrIKN7testing16MatcherInterfaceIRKPKhEELN9__gnu_cxx12_Lock_policyE2EED2Ev
FNDA:0,_ZNSt12__shared_ptrIKN7testing16MatcherInterfaceIRKPKhEELN9__gnu_cxx12_Lock_policyE2EED2Ev
FN:1169,_ZNSt12__shared_ptrIKN7testing16MatcherInterfaceIRKiEELN9__gnu_cxx12_Lock_policyE2EED2Ev
FNDA:0,_ZNSt12__shared_ptrIKN7testing16MatcherInterfaceIRKiEELN9__gnu_cxx12_Lock_policyE2EED2Ev
FN:1309,_ZNKSt12__shared_ptrIKN7testing16MatcherInterfaceIRKPKhEELN9__gnu_cxx12_Lock_policyE2EE3getEv
FNDA:0,_ZNKSt12__shared_ptrIKN7testing16MatcherInterfaceIRKPKhEELN9__gnu_cxx12_Lock_policyE2EE3getEv
FN:1309,_ZNKSt12__shared_ptrIKN7testing16MatcherInterfaceIRKmEELN9__gnu_cxx12_Lock_policyE2EE3getEv
FNDA:0,_ZNKSt12__shared_ptrIKN7testing16MatcherInterfaceIRKmEELN9__gnu_cxx12_Lock_policyE2EE3getEv
FN:1309,_ZNKSt12__shared_ptrIKN7testing16MatcherInterfaceIRKhEELN9__gnu_cxx12_Lock_policyE2EE3getEv
FNDA:0,_ZNKSt12__shared_ptrIKN7testing16MatcherInterfaceIRKhEELN9__gnu_cxx12_Lock_policyE2EE3getEv
FN:1309,_ZNKSt12__shared_ptrIKN7testing16MatcherInterfaceIRKiEELN9__gnu_cxx12_Lock_policyE2EE3getEv
FNDA:0,_ZNKSt12__shared_ptrIKN7testing16MatcherInterfaceIRKiEELN9__gnu_cxx12_Lock_policyE2EE3getEv
FN:1309,_ZNKSt12__shared_ptrIKN7testing16MatcherInterfaceIRKSt5tupleIJmEEEELN9__gnu_cxx12_Lock_policyE2EE3getEv
FNDA:0,_ZNKSt12__shared_ptrIKN7testing16MatcherInterfaceIRKSt5tupleIJmEEEELN9__gnu_cxx12_Lock_policyE2EE3getEv
FN:1309,_ZNKSt12__shared_ptrIKN7testing16MatcherInterfaceIRKSt5tupleIJPKhmEEEELN9__gnu_cxx12_Lock_policyE2EE3getEv
FNDA:0,_ZNKSt12__shared_ptrIKN7testing16MatcherInterfaceIRKSt5tupleIJPKhmEEEELN9__gnu_cxx12_Lock_policyE2EE3getEv
FN:1309,_ZNKSt12__shared_ptrIKN7testing16MatcherInterfaceIRKSt5tupleIJhhEEEELN9__gnu_cxx12_Lock_policyE2EE3getEv
FNDA:0,_ZNKSt12__shared_ptrIKN7testing16MatcherInterfaceIRKSt5tupleIJhhEEEELN9__gnu_cxx12_Lock_policyE2EE3getEv
FN:1309,_ZNKSt12__shared_ptrIN7testing8internal15ExpectationBaseELN9__gnu_cxx12_Lock_policyE2EE3getEv
FNDA:0,_ZNKSt12__shared_ptrIN7testing8internal15ExpectationBaseELN9__gnu_cxx12_Lock_policyE2EE3getEv
FN:1309,_ZNKSt12__shared_ptrIKN7testing16MatcherInterfaceIRKSt5tupleIJhEEEELN9__gnu_cxx12_Lock_policyE2EE3getEv
FNDA:0,_ZNKSt12__shared_ptrIKN7testing16MatcherInterfaceIRKSt5tupleIJhEEEELN9__gnu_cxx12_Lock_policyE2EE3getEv
FN:1309,_ZNKSt12__shared_ptrIKN7testing16MatcherInterfaceIRKSt5tupleIJhiEEEELN9__gnu_cxx12_Lock_policyE2EE3getEv
FNDA:0,_ZNKSt12__shared_ptrIKN7testing16MatcherInterfaceIRKSt5tupleIJhiEEEELN9__gnu_cxx12_Lock_policyE2EE3getEv
FN:1309,_ZNKSt12__shared_ptrIKN7testing16MatcherInterfaceIRKSt5tupleIJEEEELN9__gnu_cxx12_Lock_policyE2EE3getEv
FNDA:0,_ZNKSt12__shared_ptrIKN7testing16MatcherInterfaceIRKSt5tupleIJEEEELN9__gnu_cxx12_Lock_policyE2EE3getEv
FN:1309,_ZNKSt12__shared_ptrIKN7testing20CardinalityInterfaceELN9__gnu_cxx12_Lock_policyE2EE3getEv
FNDA:0,_ZNKSt12__shared_ptrIKN7testing20CardinalityInterfaceELN9__gnu_cxx12_Lock_policyE2EE3getEv
DA:138,0
DA:139,0
DA:148,0
DA:152,0
DA:155,0
DA:167,0
DA:168,0
DA:171,0
DA:174,0
DA:727,0
DA:729,0
DA:730,0
DA:731,0
DA:733,0
DA:734,0
DA:736,0
DA:737,0
DA:738,0
DA:1012,0
DA:1015,0
DA:1012,0
DA:1015,0
DA:1012,0
DA:1015,0
DA:1012,0
DA:1015,0
DA:1012,0
DA:1015,0
DA:1012,0
DA:1015,0
DA:1012,0
DA:1015,0
DA:1012,0
DA:1015,0
DA:1012,0
DA:1015,0
DA:1012,0
DA:1015,0
DA:1012,0
DA:1015,0
DA:1012,0
DA:1015,0
DA:1020,0
DA:1021,0
DA:1020,0
DA:1021,0
DA:1020,0
DA:1021,0
DA:1020,0
DA:1021,0
DA:1020,0
DA:1021,0
DA:1020,0
DA:1021,0
DA:1020,0
DA:1021,0
DA:1020,0
DA:1021,0
DA:1020,0
DA:1021,0
DA:1020,0
DA:1021,0
DA:1020,0
DA:1021,0
DA:1020,0
DA:1021,0
DA:1167,0
DA:1167,0
DA:1167,0
DA:1167,0
DA:1169,0
DA:1169,0
DA:1169,0
DA:1169,0
DA:1169,0
DA:1169,0
DA:1169,0
DA:1169,0
DA:1169,0
DA:1169,0
DA:1309,0
DA:1310,0
DA:1309,0
DA:1310,0
DA:1309,0
DA:1310,0
DA:1309,0
DA:1310,0
DA:1309,0
DA:1310,0
DA:1309,0
DA:1310,0
DA:1309,0
DA:1310,0
DA:1309,0
DA:1310,0
DA:1309,0
DA:1310,0
DA:1309,0
DA:1310,0
DA:1309,0
DA:1310,0
DA:1309,0
DA:1310,0
end_of_record
SF:/home/pieter/GitHub/Control-Surface/build/googletest/googletest-src/googletest/include/gtest/internal/gtest-port.h
FN:980,_ZN7testing8internal8GTestLog9GetStreamEv
FNDA:0,_ZN7testing8internal8GTestLog9GetStreamEv
FN:1086,_ZN7testing8internal13ImplicitCast_IPKvEET_S4_
FNDA:0,_ZN7testing8internal13ImplicitCast_IPKvEET_S4_
FN:1666,_ZN7testing8internal9MutexBase4LockEv
FNDA:0,_ZN7testing8internal9MutexBase4LockEv
FN:1673,_ZN7testing8internal9MutexBase6UnlockEv
FNDA:0,_ZN7testing8internal9MutexBase6UnlockEv
FN:1684,_ZNK7testing8internal9MutexBase10AssertHeldEv
FNDA:0,_ZNK7testing8internal9MutexBase10AssertHeldEv
FN:1742,_ZN7testing8internal14GTestMutexLockC2EPNS0_9MutexBaseE
FNDA:0,_ZN7testing8internal14GTestMutexLockC2EPNS0_9MutexBaseE
FN:1745,_ZN7testing8internal14GTestMutexLockD2Ev
FNDA:0,_ZN7testing8internal14GTestMutexLockD2Ev
DA:980,0
DA:1086,0
DA:1666,0
DA:1667,0
DA:1668,0
DA:1669,0
DA:1670,0
DA:1673,0
DA:1678,0
DA:1679,0
DA:1680,0
DA:1684,0
DA:1685,0
DA:1686,0
DA:1687,0
DA:1742,0
DA:1743,0
DA:1745,0
end_of_record
SF:/home/pieter/GitHub/Control-Surface/ArduinoMock/ArduinoMock.hpp
FN:7,_ZN11ArduinoMockC2Ev
FNDA:1,_ZN11ArduinoMockC2Ev
FN:26,_ZN11ArduinoMockD0Ev
FNDA:1,_ZN11ArduinoMockD0Ev
FN:26,_ZN11ArduinoMockD2Ev
FNDA:1,_ZN11ArduinoMockD2Ev
DA:7,1
DA:26,1
DA:26,1
end_of_record
SF:/usr/include/c++/9/bits/basic_string.h
FN:243,_ZNSt7__cxx1112basic_stringIcSt11char_traitsIcESaIcEE16_M_construct_auxIPcEEvT_S7_St12__false_type
FNDA:0,_ZNSt7__cxx1112basic_stringIcSt11char_traitsIcESaIcEE16_M_construct_auxIPcEEvT_S7_St12__false_type
FN:243,_ZNSt7__cxx1112basic_stringIcSt11char_traitsIcESaIcEE16_M_construct_auxIPKcEEvT_S8_St12__false_type
FNDA:0,_ZNSt7__cxx1112basic_stringIcSt11char_traitsIcESaIcEE16_M_construct_auxIPKcEEvT_S8_St12__false_type
FN:263,_ZNSt7__cxx1112basic_stringIcSt11char_traitsIcESaIcEE12_M_constructIPcEEvT_S7_
FNDA:0,_ZNSt7__cxx1112basic_stringIcSt11char_traitsIcESaIcEE12_M_constructIPcEEvT_S7_
FN:263,_ZNSt7__cxx1112basic_stringIcSt11char_traitsIcESaIcEE12_M_constructIPKcEEvT_S8_
FNDA:0,_ZNSt7__cxx1112basic_stringIcSt11char_traitsIcESaIcEE12_M_constructIPKcEEvT_S8_
FN:6057,_ZStplIcSt11char_traitsIcESaIcEENSt7__cxx1112basic_stringIT_T0_T1_EERKS8_PKS5_
FNDA:0,_ZStplIcSt11char_traitsIcESaIcEENSt7__cxx1112basic_stringIT_T0_T1_EERKS8_PKS5_
FN:6175,_ZSteqIcSt11char_traitsIcESaIcEEbRKNSt7__cxx1112basic_stringIT_T0_T1_EEPKS5_
FNDA:0,_ZSteqIcSt11char_traitsIcESaIcEEbRKNSt7__cxx1112basic_stringIT_T0_T1_EEPKS5_
FN:6213,_ZStneIcSt11char_traitsIcESaIcEEbRKNSt7__cxx1112basic_stringIT_T0_T1_EEPKS5_
FNDA:0,_ZStneIcSt11char_traitsIcESaIcEEbRKNSt7__cxx1112basic_stringIT_T0_T1_EEPKS5_
DA:243,0
DA:247,0
DA:248,0
DA:243,0
DA:247,0
DA:248,0
DA:263,0
DA:266,0
DA:267,0
DA:263,0
DA:266,0
DA:267,0
DA:6057,0
DA:6060,0
DA:6061,0
DA:6062,0
DA:6175,0
DA:6177,0
DA:6213,0
DA:6215,0
end_of_record
TN:
SF:/usr/include/c++/9/iostream
end_of_record
SF:/home/pieter/GitHub/Control-Surface/ArduinoMock/Print.h
FN:54,_ZN5Print5writeEPKc
FNDA:3,_ZN5Print5writeEPKc
FN:66,_ZN5Print17availableForWriteEv
FNDA:0,_ZN5Print17availableForWriteEv
FN:89,_ZN5Print5flushEv
FNDA:0,_ZN5Print5flushEv
DA:54,3
DA:55,3
DA:56,0
DA:57,3
DA:66,0
DA:89,0
DA:90,0
end_of_record
SF:/home/pieter/GitHub/Control-Surface/ArduinoMock/Print.cpp
FN:34,_ZN5Print5writeEPKhm
FNDA:0,_ZN5Print5writeEPKhm
FN:44,_ZN5Print5printEPKc
FNDA:2,_ZN5Print5printEPKc
FN:49,_ZN5Print5printEc
FNDA:0,_ZN5Print5printEc
FN:54,_ZN5Print5printEhi
FNDA:0,_ZN5Print5printEhi
FN:59,_ZN5Print5printEii
FNDA:0,_ZN5Print5printEii
FN:64,_ZN5Print5printEji
FNDA:0,_ZN5Print5printEji
FN:69,_ZN5Print5printEli
FNDA:0,_ZN5Print5printEli
FN:85,_ZN5Print5printEmi
FNDA:0,_ZN5Print5printEmi
FN:91,_ZN5Print5printEdi
FNDA:0,_ZN5Print5printEdi
FN:96,_ZN5Print5printERK9Printable
FNDA:0,_ZN5Print5printERK9Printable
FN:101,_ZN5Print7printlnEv
FNDA:1,_ZN5Print7printlnEv
FN:106,_ZN5Print7printlnEPKc
FNDA:1,_ZN5Print7printlnEPKc
FN:113,_ZN5Print7printlnEc
FNDA:0,_ZN5Print7printlnEc
FN:120,_ZN5Print7printlnEhi
FNDA:0,_ZN5Print7printlnEhi
FN:127,_ZN5Print7printlnEii
FNDA:0,_ZN5Print7printlnEii
FN:134,_ZN5Print7printlnEji
FNDA:0,_ZN5Print7printlnEji
FN:141,_ZN5Print7printlnEli
FNDA:0,_ZN5Print7printlnEli
FN:148,_ZN5Print7printlnEmi
FNDA:0,_ZN5Print7printlnEmi
FN:155,_ZN5Print7printlnEdi
FNDA:0,_ZN5Print7printlnEdi
FN:162,_ZN5Print7printlnERK9Printable
FNDA:0,_ZN5Print7printlnERK9Printable
FN:171,_ZN5Print11printNumberEmh
FNDA:0,_ZN5Print11printNumberEmh
FN:191,_ZN5Print10printFloatEdh
FNDA:0,_ZN5Print10printFloatEdh
DA:34,0
DA:36,0
DA:37,0
DA:38,0
DA:39,0
DA:41,0
DA:44,2
DA:46,2
DA:49,0
DA:51,0
DA:54,0
DA:56,0
DA:59,0
DA:61,0
DA:64,0
DA:66,0
DA:69,0
DA:71,0
DA:72,0
DA:73,0
DA:74,0
DA:75,0
DA:76,0
DA:77,0
DA:79,0
DA:81,0
DA:85,0
DA:87,0
DA:88,0
DA:91,0
DA:93,0
DA:96,0
DA:98,0
DA:101,1
DA:103,1
DA:106,1
DA:108,1
DA:109,1
DA:110,1
DA:113,0
DA:115,0
DA:116,0
DA:117,0
DA:120,0
DA:122,0
DA:123,0
DA:124,0
DA:127,0
DA:129,0
DA:130,0
DA:131,0
DA:134,0
DA:136,0
DA:137,0
DA:138,0
DA:141,0
DA:143,0
DA:144,0
DA:145,0
DA:148,0
DA:150,0
DA:151,0
DA:152,0
DA:155,0
DA:157,0
DA:158,0
DA:159,0
DA:162,0
DA:164,0
DA:165,0
DA:166,0
DA:171,0
DA:174,0
DA:176,0
DA:179,0
DA:181,0
DA:182,0
DA:183,0
DA:185,0
DA:186,0
DA:188,0
DA:191,0
DA:193,0
DA:195,0
DA:196,0
DA:197,0
DA:198,0
DA:201,0
DA:203,0
DA:204,0
DA:208,0
DA:209,0
DA:210,0
DA:212,0
DA:215,0
DA:216,0
DA:217,0
DA:220,0
DA:221,0
DA:225,0
DA:227,0
DA:228,0
DA:229,0
DA:230,0
DA:233,0
end_of_record
SF:/usr/include/c++/9/cmath
FN:592,_ZSt5isinfd
FNDA:0,_ZSt5isinfd
FN:619,_ZSt5isnand
FNDA:0,_ZSt5isnand
DA:592,0
DA:593,0
DA:619,0
DA:620,0
end_of_record
TN:
SF:/usr/include/c++/9/bits/unique_ptr.h
FN:75,_ZNKSt14default_deleteIN7testing8internal18ActionResultHolderIvEEEclEPS3_
FNDA:0,_ZNKSt14default_deleteIN7testing8internal18ActionResultHolderIvEEEclEPS3_
FN:75,_ZNKSt14default_deleteIN7testing8internal18ActionResultHolderImEEEclEPS3_
FNDA:194,_ZNKSt14default_deleteIN7testing8internal18ActionResultHolderImEEEclEPS3_
FN:75,_ZNKSt14default_deleteIN7testing8internal18ActionResultHolderIiEEEclEPS3_
FNDA:0,_ZNKSt14default_deleteIN7testing8internal18ActionResultHolderIiEEEclEPS3_
FN:147,_ZNSt15__uniq_ptr_implIN7testing8internal18ActionResultHolderIvEESt14default_deleteIS3_EEC2EPS3_
FNDA:0,_ZNSt15__uniq_ptr_implIN7testing8internal18ActionResultHolderIvEESt14default_deleteIS3_EEC2EPS3_
FN:147,_ZNSt15__uniq_ptr_implIN7testing8internal18ActionResultHolderIiEESt14default_deleteIS3_EEC2EPS3_
FNDA:0,_ZNSt15__uniq_ptr_implIN7testing8internal18ActionResultHolderIiEESt14default_deleteIS3_EEC2EPS3_
FN:147,_ZNSt15__uniq_ptr_implIN7testing8internal18ActionResultHolderImEESt14default_deleteIS3_EEC2EPS3_
FNDA:194,_ZNSt15__uniq_ptr_implIN7testing8internal18ActionResultHolderImEESt14default_deleteIS3_EEC2EPS3_
FN:153,_ZNSt15__uniq_ptr_implIN7testing8internal18ActionResultHolderIvEESt14default_deleteIS3_EE6_M_ptrEv
FNDA:0,_ZNSt15__uniq_ptr_implIN7testing8internal18ActionResultHolderIvEESt14default_deleteIS3_EE6_M_ptrEv
FN:153,_ZNSt15__uniq_ptr_implIN7testing8internal18ActionResultHolderImEESt14default_deleteIS3_EE6_M_ptrEv
FNDA:388,_ZNSt15__uniq_ptr_implIN7testing8internal18ActionResultHolderImEESt14default_deleteIS3_EE6_M_ptrEv
FN:153,_ZNSt15__uniq_ptr_implIN7testing8internal18ActionResultHolderIiEESt14default_deleteIS3_EE6_M_ptrEv
FNDA:0,_ZNSt15__uniq_ptr_implIN7testing8internal18ActionResultHolderIiEESt14default_deleteIS3_EE6_M_ptrEv
FN:154,_ZNKSt15__uniq_ptr_implIN7testing8internal18ActionResultHolderImEESt14default_deleteIS3_EE6_M_ptrEv
FNDA:194,_ZNKSt15__uniq_ptr_implIN7testing8internal18ActionResultHolderImEESt14default_deleteIS3_EE6_M_ptrEv
FN:154,_ZNKSt15__uniq_ptr_implIN7testing8internal18ActionResultHolderIiEESt14default_deleteIS3_EE6_M_ptrEv
FNDA:0,_ZNKSt15__uniq_ptr_implIN7testing8internal18ActionResultHolderIiEESt14default_deleteIS3_EE6_M_ptrEv
FN:154,_ZNKSt15__uniq_ptr_implIN7testing8internal18ActionResultHolderIvEESt14default_deleteIS3_EE6_M_ptrEv
FNDA:0,_ZNKSt15__uniq_ptr_implIN7testing8internal18ActionResultHolderIvEESt14default_deleteIS3_EE6_M_ptrEv
FN:155,_ZNSt15__uniq_ptr_implIN7testing8internal18ActionResultHolderImEESt14default_deleteIS3_EE10_M_deleterEv
FNDA:194,_ZNSt15__uniq_ptr_implIN7testing8internal18ActionResultHolderImEESt14default_deleteIS3_EE10_M_deleterEv
FN:155,_ZNSt15__uniq_ptr_implIN7testing8internal18ActionResultHolderIvEESt14default_deleteIS3_EE10_M_deleterEv
FNDA:0,_ZNSt15__uniq_ptr_implIN7testing8internal18ActionResultHolderIvEESt14default_deleteIS3_EE10_M_deleterEv
FN:155,_ZNSt15__uniq_ptr_implIN7testing8internal18ActionResultHolderIiEESt14default_deleteIS3_EE10_M_deleterEv
FNDA:0,_ZNSt15__uniq_ptr_implIN7testing8internal18ActionResultHolderIiEESt14default_deleteIS3_EE10_M_deleterEv
FN:208,_ZNSt10unique_ptrIN7testing8internal18ActionResultHolderIvEESt14default_deleteIS3_EEC2IS5_vEEPS3_
FNDA:0,_ZNSt10unique_ptrIN7testing8internal18ActionResultHolderIvEESt14default_deleteIS3_EEC2IS5_vEEPS3_
FN:208,_ZNSt10unique_ptrIN7testing8internal18ActionResultHolderIiEESt14default_deleteIS3_EEC2IS5_vEEPS3_
FNDA:0,_ZNSt10unique_ptrIN7testing8internal18ActionResultHolderIiEESt14default_deleteIS3_EEC2IS5_vEEPS3_
FN:208,_ZNSt10unique_ptrIN7testing8internal18ActionResultHolderImEESt14default_deleteIS3_EEC2IS5_vEEPS3_
FNDA:194,_ZNSt10unique_ptrIN7testing8internal18ActionResultHolderImEESt14default_deleteIS3_EEC2IS5_vEEPS3_
FN:283,_ZNSt10unique_ptrIN7testing8internal18ActionResultHolderIvEESt14default_deleteIS3_EED2Ev
FNDA:0,_ZNSt10unique_ptrIN7testing8internal18ActionResultHolderIvEESt14default_deleteIS3_EED2Ev
FN:283,_ZNSt10unique_ptrIN7testing8internal18ActionResultHolderIiEESt14default_deleteIS3_EED2Ev
FNDA:0,_ZNSt10unique_ptrIN7testing8internal18ActionResultHolderIiEESt14default_deleteIS3_EED2Ev
FN:283,_ZNSt10unique_ptrIN7testing8internal18ActionResultHolderImEESt14default_deleteIS3_EED2Ev
FNDA:194,_ZNSt10unique_ptrIN7testing8internal18ActionResultHolderImEESt14default_deleteIS3_EED2Ev
FN:349,_ZNKSt10unique_ptrIN7testing8internal18ActionResultHolderImEESt14default_deleteIS3_EEptEv
FNDA:194,_ZNKSt10unique_ptrIN7testing8internal18ActionResultHolderImEESt14default_deleteIS3_EEptEv
FN:349,_ZNKSt10unique_ptrIN7testing8internal18ActionResultHolderIvEESt14default_deleteIS3_EEptEv
FNDA:0,_ZNKSt10unique_ptrIN7testing8internal18ActionResultHolderIvEESt14default_deleteIS3_EEptEv
FN:349,_ZNKSt10unique_ptrIN7testing8internal18ActionResultHolderIiEESt14default_deleteIS3_EEptEv
FNDA:0,_ZNKSt10unique_ptrIN7testing8internal18ActionResultHolderIiEESt14default_deleteIS3_EEptEv
FN:357,_ZNKSt10unique_ptrIN7testing8internal18ActionResultHolderImEESt14default_deleteIS3_EE3getEv
FNDA:194,_ZNKSt10unique_ptrIN7testing8internal18ActionResultHolderImEESt14default_deleteIS3_EE3getEv
FN:357,_ZNKSt10unique_ptrIN7testing8internal18ActionResultHolderIvEESt14default_deleteIS3_EE3getEv
FNDA:0,_ZNKSt10unique_ptrIN7testing8internal18ActionResultHolderIvEESt14default_deleteIS3_EE3getEv
FN:357,_ZNKSt10unique_ptrIN7testing8internal18ActionResultHolderIiEESt14default_deleteIS3_EE3getEv
FNDA:0,_ZNKSt10unique_ptrIN7testing8internal18ActionResultHolderIiEESt14default_deleteIS3_EE3getEv
FN:362,_ZNSt10unique_ptrIN7testing8internal18ActionResultHolderIiEESt14default_deleteIS3_EE11get_deleterEv
FNDA:0,_ZNSt10unique_ptrIN7testing8internal18ActionResultHolderIiEESt14default_deleteIS3_EE11get_deleterEv
FN:362,_ZNSt10unique_ptrIN7testing8internal18ActionResultHolderIvEESt14default_deleteIS3_EE11get_deleterEv
FNDA:0,_ZNSt10unique_ptrIN7testing8internal18ActionResultHolderIvEESt14default_deleteIS3_EE11get_deleterEv
FN:362,_ZNSt10unique_ptrIN7testing8internal18ActionResultHolderImEESt14default_deleteIS3_EE11get_deleterEv
FNDA:194,_ZNSt10unique_ptrIN7testing8internal18ActionResultHolderImEESt14default_deleteIS3_EE11get_deleterEv
DA:75,194
DA:81,194
DA:82,194
DA:75,0
DA:81,0
DA:82,0
DA:75,0
DA:81,0
DA:82,0
DA:147,194
DA:147,0
DA:147,0
DA:153,388
DA:153,0
DA:153,0
DA:154,194
DA:154,0
DA:154,0
DA:155,194
DA:155,0
DA:155,0
DA:208,194
DA:209,194
DA:210,194
DA:208,0
DA:209,0
DA:210,0
DA:208,0
DA:209,0
DA:210,0
DA:283,194
DA:287,194
DA:288,194
DA:289,194
DA:290,194
DA:291,194
DA:283,0
DA:287,0
DA:288,0
DA:289,0
DA:290,0
DA:291,0
DA:283,0
DA:287,0
DA:288,0
DA:289,0
DA:290,0
DA:291,0
DA:349,194
DA:352,194
DA:349,0
DA:352,0
DA:349,0
DA:352,0
DA:357,194
DA:358,194
DA:357,0
DA:358,0
DA:357,0
DA:358,0
DA:362,194
DA:363,194
DA:362,0
DA:363,0
DA:362,0
DA:363,0
end_of_record
SF:/home/pieter/GitHub/Control-Surface/build/googletest/googletest-src/googlemock/include/gmock/gmock-spec-builders.h
FN:1317,_ZN7testing8internal23ReferenceOrValueWrapperImE6UnwrapEv
FNDA:194,_ZN7testing8internal23ReferenceOrValueWrapperImE6UnwrapEv
FN:1317,_ZN7testing8internal23ReferenceOrValueWrapperIiE6UnwrapEv
FNDA:0,_ZN7testing8internal23ReferenceOrValueWrapperIiE6UnwrapEv
FN:1376,_ZN7testing8internal18ActionResultHolderImE6UnwrapEv
FNDA:194,_ZN7testing8internal18ActionResultHolderImE6UnwrapEv
FN:1376,_ZN7testing8internal18ActionResultHolderIiE6UnwrapEv
FNDA:0,_ZN7testing8internal18ActionResultHolderIiE6UnwrapEv
FN:1423,_ZN7testing8internal18ActionResultHolderIvE6UnwrapEv
FNDA:0,_ZN7testing8internal18ActionResultHolderIvE6UnwrapEv
FN:1592,_ZN7testing8internal14FunctionMockerIFmvEE6InvokeEv
FNDA:189,_ZN7testing8internal14FunctionMockerIFmvEE6InvokeEv
FN:1592,_ZN7testing8internal14FunctionMockerIFvhiEE6InvokeEhi
FNDA:0,_ZN7testing8internal14FunctionMockerIFvhiEE6InvokeEhi
FN:1592,_ZN7testing8internal14FunctionMockerIFihEE6InvokeEh
FNDA:229,_ZN7testing8internal14FunctionMockerIFihEE6InvokeEh
FN:1592,_ZN7testing8internal14FunctionMockerIFvhhEE6InvokeEhh
FNDA:175,_ZN7testing8internal14FunctionMockerIFvhhEE6InvokeEhh
DA:1317,194
DA:1317,0
DA:1376,194
DA:1377,194
DA:1376,0
DA:1377,0
DA:1423,0
DA:1592,189
DA:1594,189
DA:1596,378
DA:1592,0
DA:1593,0
DA:1594,0
DA:1596,0
DA:1592,229
DA:1593,229
DA:1594,229
DA:1596,458
DA:1592,175
DA:1593,175
DA:1594,350
DA:1596,350
end_of_record
SF:/home/pieter/GitHub/Control-Surface/build/googletest/googletest-src/googletest/include/gtest/internal/gtest-port.h
FN:980,_ZN7testing8internal8GTestLog9GetStreamEv
FNDA:0,_ZN7testing8internal8GTestLog9GetStreamEv
FN:1110,_ZN7testing8internal9DownCast_IPNS0_18ActionResultHolderImEENS0_29UntypedActionResultHolderBaseEEET_PT0_
FNDA:194,_ZN7testing8internal9DownCast_IPNS0_18ActionResultHolderImEENS0_29UntypedActionResultHolderBaseEEET_PT0_
FN:1110,_ZN7testing8internal9DownCast_IPNS0_18ActionResultHolderIiEENS0_29UntypedActionResultHolderBaseEEET_PT0_
FNDA:0,_ZN7testing8internal9DownCast_IPNS0_18ActionResultHolderIiEENS0_29UntypedActionResultHolderBaseEEET_PT0_
FN:1110,_ZN7testing8internal9DownCast_IPNS0_18ActionResultHolderIvEENS0_29UntypedActionResultHolderBaseEEET_PT0_
FNDA:0,_ZN7testing8internal9DownCast_IPNS0_18ActionResultHolderIvEENS0_29UntypedActionResultHolderBaseEEET_PT0_
DA:980,0
DA:1110,194
DA:1124,194
DA:1126,194
DA:1110,0
DA:1124,0
DA:1126,0
DA:1110,0
DA:1124,0
DA:1126,0
end_of_record
SF:/home/pieter/GitHub/Control-Surface/ArduinoMock/ArduinoMock.hpp
FN:17,_ZN11ArduinoMock7pinModeEhh
FNDA:118,_ZN11ArduinoMock7pinModeEhh
FN:18,_ZN11ArduinoMock12digitalWriteEhh
FNDA:57,_ZN11ArduinoMock12digitalWriteEhh
FN:19,_ZN11ArduinoMock11digitalReadEh
FNDA:215,_ZN11ArduinoMock11digitalReadEh
FN:20,_ZN11ArduinoMock10analogReadEh
FNDA:14,_ZN11ArduinoMock10analogReadEh
FN:21,_ZN11ArduinoMock11analogWriteEhi
FNDA:0,_ZN11ArduinoMock11analogWriteEhi
FN:23,_ZN11ArduinoMock6millisEv
FNDA:189,_ZN11ArduinoMock6millisEv
FN:24,_ZN11ArduinoMock6microsEv
FNDA:0,_ZN11ArduinoMock6microsEv
DA:17,118
DA:18,57
DA:19,215
DA:20,14
DA:21,0
DA:23,189
DA:24,0
end_of_record
SF:/home/pieter/GitHub/Control-Surface/ArduinoMock/Arduino.cpp
FN:4,_Z3seiv
FNDA:0,_Z3seiv
FN:5,_Z3cliv
FNDA:0,_Z3cliv
FN:7,_Z5yieldv
FNDA:0,_Z5yieldv
FN:9,_Z7pinModehh
FNDA:118,_Z7pinModehh
FN:13,_Z12digitalWritehh
FNDA:57,_Z12digitalWritehh
FN:17,_Z11digitalReadh
FNDA:215,_Z11digitalReadh
FN:21,_Z10analogReadh
FNDA:14,_Z10analogReadh
FN:25,_Z11analogWritehi
FNDA:0,_Z11analogWritehi
FN:29,_Z6millisv
FNDA:189,_Z6millisv
FN:31,_Z6microsv
FNDA:0,_Z6microsv
DA:4,0
DA:5,0
DA:7,0
DA:9,118
DA:10,118
DA:11,118
DA:13,57
DA:14,57
DA:15,57
DA:17,215
DA:18,215
DA:21,14
DA:22,14
DA:25,0
DA:26,0
DA:27,0
DA:29,189
DA:31,0
end_of_record
SF:/usr/include/c++/9/iostream
end_of_record
SF:/usr/include/c++/9/bits/move.h
FN:74,_ZSt7forwardIiEOT_RNSt16remove_referenceIS0_E4typeE
FNDA:786,_ZSt7forwardIiEOT_RNSt16remove_referenceIS0_E4typeE
FN:74,_ZSt7forwardIhEOT_RNSt16remove_referenceIS0_E4typeE
FNDA:0,_ZSt7forwardIhEOT_RNSt16remove_referenceIS0_E4typeE
FN:99,_ZSt4moveIRmEONSt16remove_referenceIT_E4typeEOS2_
FNDA:388,_ZSt4moveIRmEONSt16remove_referenceIT_E4typeEOS2_
FN:99,_ZSt4moveIRiEONSt16remove_referenceIT_E4typeEOS2_
FNDA:0,_ZSt4moveIRiEONSt16remove_referenceIT_E4typeEOS2_
FN:99,_ZSt4moveIRPN7testing8internal18ActionResultHolderImEEEONSt16remove_referenceIT_E4typeEOS7_
FNDA:194,_ZSt4moveIRPN7testing8internal18ActionResultHolderImEEEONSt16remove_referenceIT_E4typeEOS7_
FN:99,_ZSt4moveIRPN7testing8internal18ActionResultHolderIiEEEONSt16remove_referenceIT_E4typeEOS7_
FNDA:0,_ZSt4moveIRPN7testing8internal18ActionResultHolderIiEEEONSt16remove_referenceIT_E4typeEOS7_
FN:99,_ZSt4moveIRPN7testing8internal18ActionResultHolderIvEEEONSt16remove_referenceIT_E4typeEOS7_
FNDA:0,_ZSt4moveIRPN7testing8internal18ActionResultHolderIvEEEONSt16remove_referenceIT_E4typeEOS7_
DA:74,786
DA:75,786
DA:74,0
DA:75,0
DA:99,388
DA:100,388
DA:99,0
DA:100,0
DA:99,194
DA:100,194
DA:99,0
DA:100,0
DA:99,0
DA:100,0
end_of_record
SF:/usr/include/c++/9/tuple
FN:76,_ZNSt10_Head_baseILm1ESt14default_deleteIN7testing8internal18ActionResultHolderIvEEELb1EEC2Ev
FNDA:0,_ZNSt10_Head_baseILm1ESt14default_deleteIN7testing8internal18ActionResultHolderIvEEELb1EEC2Ev
FN:76,_ZNSt10_Head_baseILm1ESt14default_deleteIN7testing8internal18ActionResultHolderIiEEELb1EEC2Ev
FNDA:0,_ZNSt10_Head_baseILm1ESt14default_deleteIN7testing8internal18ActionResultHolderIiEEELb1EEC2Ev
FN:76,_ZNSt10_Head_baseILm1ESt14default_deleteIN7testing8internal18ActionResultHolderImEEELb1EEC2Ev
FNDA:194,_ZNSt10_Head_baseILm1ESt14default_deleteIN7testing8internal18ActionResultHolderImEEELb1EEC2Ev
FN:113,_ZNSt10_Head_baseILm1ESt14default_deleteIN7testing8internal18ActionResultHolderImEEELb1EE7_M_headERS6_
FNDA:194,_ZNSt10_Head_baseILm1ESt14default_deleteIN7testing8internal18ActionResultHolderImEEELb1EE7_M_headERS6_
FN:113,_ZNSt10_Head_baseILm1ESt14default_deleteIN7testing8internal18ActionResultHolderIiEEELb1EE7_M_headERS6_
FNDA:0,_ZNSt10_Head_baseILm1ESt14default_deleteIN7testing8internal18ActionResultHolderIiEEELb1EE7_M_headERS6_
FN:113,_ZNSt10_Head_baseILm1ESt14default_deleteIN7testing8internal18ActionResultHolderIvEEELb1EE7_M_headERS6_
FNDA:0,_ZNSt10_Head_baseILm1ESt14default_deleteIN7testing8internal18ActionResultHolderIvEEELb1EE7_M_headERS6_
FN:122,_ZNSt10_Head_baseILm0EPN7testing8internal18ActionResultHolderIvEELb0EEC2Ev
FNDA:0,_ZNSt10_Head_baseILm0EPN7testing8internal18ActionResultHolderIvEELb0EEC2Ev
FN:122,_ZNSt10_Head_baseILm0EPN7testing8internal18ActionResultHolderIiEELb0EEC2Ev
FNDA:0,_ZNSt10_Head_baseILm0EPN7testing8internal18ActionResultHolderIiEELb0EEC2Ev
FN:122,_ZNSt10_Head_baseILm0EPN7testing8internal18ActionResultHolderImEELb0EEC2Ev
FNDA:194,_ZNSt10_Head_baseILm0EPN7testing8internal18ActionResultHolderImEELb0EEC2Ev
FN:132,_ZNSt10_Head_baseILm1EhLb0EEC2IhEEOT_
FNDA:0,_ZNSt10_Head_baseILm1EhLb0EEC2IhEEOT_
FN:132,_ZNSt10_Head_baseILm0EhLb0EEC2IhEEOT_
FNDA:0,_ZNSt10_Head_baseILm0EhLb0EEC2IhEEOT_
FN:132,_ZNSt10_Head_baseILm1EiLb0EEC2IiEEOT_
FNDA:0,_ZNSt10_Head_baseILm1EiLb0EEC2IiEEOT_
FN:160,_ZNSt10_Head_baseILm0EPN7testing8internal18ActionResultHolderIiEELb0EE7_M_headERS5_
FNDA:0,_ZNSt10_Head_baseILm0EPN7testing8internal18ActionResultHolderIiEELb0EE7_M_headERS5_
FN:160,_ZNSt10_Head_baseILm0EPN7testing8internal18ActionResultHolderIvEELb0EE7_M_headERS5_
FNDA:0,_ZNSt10_Head_baseILm0EPN7testing8internal18ActionResultHolderIvEELb0EE7_M_headERS5_
FN:160,_ZNSt10_Head_baseILm0EPN7testing8internal18ActionResultHolderImEELb0EE7_M_headERS5_
FNDA:388,_ZNSt10_Head_baseILm0EPN7testing8internal18ActionResultHolderImEELb0EE7_M_headERS5_
FN:163,_ZNSt10_Head_baseILm0EPN7testing8internal18ActionResultHolderIiEELb0EE7_M_headERKS5_
FNDA:0,_ZNSt10_Head_baseILm0EPN7testing8internal18ActionResultHolderIiEELb0EE7_M_headERKS5_
FN:163,_ZNSt10_Head_baseILm0EPN7testing8internal18ActionResultHolderIvEELb0EE7_M_headERKS5_
FNDA:0,_ZNSt10_Head_baseILm0EPN7testing8internal18ActionResultHolderIvEELb0EE7_M_headERKS5_
FN:163,_ZNSt10_Head_baseILm0EPN7testing8internal18ActionResultHolderImEELb0EE7_M_headERKS5_
FNDA:194,_ZNSt10_Head_baseILm0EPN7testing8internal18ActionResultHolderImEELb0EE7_M_headERKS5_
FN:195,_ZNSt11_Tuple_implILm0EJPN7testing8internal18ActionResultHolderImEESt14default_deleteIS3_EEE7_M_headERS7_
FNDA:388,_ZNSt11_Tuple_implILm0EJPN7testing8internal18ActionResultHolderImEESt14default_deleteIS3_EEE7_M_headERS7_
FN:195,_ZNSt11_Tuple_implILm0EJPN7testing8internal18ActionResultHolderIvEESt14default_deleteIS3_EEE7_M_headERS7_
FNDA:0,_ZNSt11_Tuple_implILm0EJPN7testing8internal18ActionResultHolderIvEESt14default_deleteIS3_EEE7_M_headERS7_
FN:195,_ZNSt11_Tuple_implILm0EJPN7testing8internal18ActionResultHolderIiEESt14default_deleteIS3_EEE7_M_headERS7_
FNDA:0,_ZNSt11_Tuple_implILm0EJPN7testing8internal18ActionResultHolderIiEESt14default_deleteIS3_EEE7_M_headERS7_
FN:198,_ZNSt11_Tuple_implILm0EJPN7testing8internal18ActionResultHolderImEESt14default_deleteIS3_EEE7_M_headERKS7_
FNDA:194,_ZNSt11_Tuple_implILm0EJPN7testing8internal18ActionResultHolderImEESt14default_deleteIS3_EEE7_M_headERKS7_
FN:198,_ZNSt11_Tuple_implILm0EJPN7testing8internal18ActionResultHolderIvEESt14default_deleteIS3_EEE7_M_headERKS7_
FNDA:0,_ZNSt11_Tuple_implILm0EJPN7testing8internal18ActionResultHolderIvEESt14default_deleteIS3_EEE7_M_headERKS7_
FN:198,_ZNSt11_Tuple_implILm0EJPN7testing8internal18ActionResultHolderIiEESt14default_deleteIS3_EEE7_M_headERKS7_
FNDA:0,_ZNSt11_Tuple_implILm0EJPN7testing8internal18ActionResultHolderIiEESt14default_deleteIS3_EEE7_M_headERKS7_
FN:206,_ZNSt11_Tuple_implILm0EJPN7testing8internal18ActionResultHolderImEESt14default_deleteIS3_EEEC2Ev
FNDA:194,_ZNSt11_Tuple_implILm0EJPN7testing8internal18ActionResultHolderImEESt14default_deleteIS3_EEEC2Ev
FN:206,_ZNSt11_Tuple_implILm0EJPN7testing8internal18ActionResultHolderIvEESt14default_deleteIS3_EEEC2Ev
FNDA:0,_ZNSt11_Tuple_implILm0EJPN7testing8internal18ActionResultHolderIvEESt14default_deleteIS3_EEEC2Ev
FN:206,_ZNSt11_Tuple_implILm0EJPN7testing8internal18ActionResultHolderIiEESt14default_deleteIS3_EEEC2Ev
FNDA:0,_ZNSt11_Tuple_implILm0EJPN7testing8internal18ActionResultHolderIiEESt14default_deleteIS3_EEEC2Ev
FN:216,_ZNSt11_Tuple_implILm0EJhhEEC2IhJhEvEEOT_DpOT0_
FNDA:175,_ZNSt11_Tuple_implILm0EJhhEEC2IhJhEvEEOT_DpOT0_
FN:216,_ZNSt11_Tuple_implILm0EJhiEEC2IhJiEvEEOT_DpOT0_
FNDA:0,_ZNSt11_Tuple_implILm0EJhiEEC2IhJiEvEEOT_DpOT0_
FN:334,_ZNSt11_Tuple_implILm1EJSt14default_deleteIN7testing8internal18ActionResultHolderIvEEEEE7_M_headERS6_
FNDA:0,_ZNSt11_Tuple_implILm1EJSt14default_deleteIN7testing8internal18ActionResultHolderIvEEEEE7_M_headERS6_
FN:334,_ZNSt11_Tuple_implILm1EJSt14default_deleteIN7testing8internal18ActionResultHolderImEEEEE7_M_headERS6_
FNDA:194,_ZNSt11_Tuple_implILm1EJSt14default_deleteIN7testing8internal18ActionResultHolderImEEEEE7_M_headERS6_
FN:334,_ZNSt11_Tuple_implILm1EJSt14default_deleteIN7testing8internal18ActionResultHolderIiEEEEE7_M_headERS6_
FNDA:0,_ZNSt11_Tuple_implILm1EJSt14default_deleteIN7testing8internal18ActionResultHolderIiEEEEE7_M_headERS6_
FN:339,_ZNSt11_Tuple_implILm1EJSt14default_deleteIN7testing8internal18ActionResultHolderIiEEEEEC2Ev
FNDA:0,_ZNSt11_Tuple_implILm1EJSt14default_deleteIN7testing8internal18ActionResultHolderIiEEEEEC2Ev
FN:339,_ZNSt11_Tuple_implILm1EJSt14default_deleteIN7testing8internal18ActionResultHolderImEEEEEC2Ev
FNDA:194,_ZNSt11_Tuple_implILm1EJSt14default_deleteIN7testing8internal18ActionResultHolderImEEEEEC2Ev
FN:339,_ZNSt11_Tuple_implILm1EJSt14default_deleteIN7testing8internal18ActionResultHolderIvEEEEEC2Ev
FNDA:0,_ZNSt11_Tuple_implILm1EJSt14default_deleteIN7testing8internal18ActionResultHolderIvEEEEEC2Ev
FN:348,_ZNSt11_Tuple_implILm1EJhEEC2IhEEOT_
FNDA:0,_ZNSt11_Tuple_implILm1EJhEEC2IhEEOT_
FN:348,_ZNSt11_Tuple_implILm0EJhEEC2IhEEOT_
FNDA:0,_ZNSt11_Tuple_implILm0EJhEEC2IhEEOT_
FN:348,_ZNSt11_Tuple_implILm1EJiEEC2IiEEOT_
FNDA:0,_ZNSt11_Tuple_implILm1EJiEEC2IiEEOT_
FN:626,_ZNSt5tupleIJhEEC2IJhELb1EEEDpOT_
FNDA:0,_ZNSt5tupleIJhEEC2IJhELb1EEEDpOT_
FN:918,_ZNSt5tupleIJPN7testing8internal18ActionResultHolderImEESt14default_deleteIS3_EEEC2IS4_S6_Lb1EEEv
FNDA:194,_ZNSt5tupleIJPN7testing8internal18ActionResultHolderImEESt14default_deleteIS3_EEEC2IS4_S6_Lb1EEEv
FN:918,_ZNSt5tupleIJPN7testing8internal18ActionResultHolderIiEESt14default_deleteIS3_EEEC2IS4_S6_Lb1EEEv
FNDA:0,_ZNSt5tupleIJPN7testing8internal18ActionResultHolderIiEESt14default_deleteIS3_EEEC2IS4_S6_Lb1EEEv
FN:918,_ZNSt5tupleIJPN7testing8internal18ActionResultHolderIvEESt14default_deleteIS3_EEEC2IS4_S6_Lb1EEEv
FNDA:0,_ZNSt5tupleIJPN7testing8internal18ActionResultHolderIvEESt14default_deleteIS3_EEEC2IS4_S6_Lb1EEEv
FN:968,_ZNSt5tupleIJhhEEC2IhhLb1EEEOT_OT0_
FNDA:175,_ZNSt5tupleIJhhEEC2IhhLb1EEEOT_OT0_
FN:968,_ZNSt5tupleIJhiEEC2IhiLb1EEEOT_OT0_
FNDA:0,_ZNSt5tupleIJhiEEC2IhiLb1EEEOT_OT0_
FN:1309,_ZSt12__get_helperILm0EPN7testing8internal18ActionResultHolderIiEEJSt14default_deleteIS3_EEERT0_RSt11_Tuple_implIXT_EJS7_DpT1_EE
FNDA:0,_ZSt12__get_helperILm0EPN7testing8internal18ActionResultHolderIiEEJSt14default_deleteIS3_EEERT0_RSt11_Tuple_implIXT_EJS7_DpT1_EE
FN:1309,_ZSt12__get_helperILm1ESt14default_deleteIN7testing8internal18ActionResultHolderImEEEJEERT0_RSt11_Tuple_implIXT_EJS6_DpT1_EE
FNDA:194,_ZSt12__get_helperILm1ESt14default_deleteIN7testing8internal18ActionResultHolderImEEEJEERT0_RSt11_Tuple_implIXT_EJS6_DpT1_EE
FN:1309,_ZSt12__get_helperILm0EPN7testing8internal18ActionResultHolderIvEEJSt14default_deleteIS3_EEERT0_RSt11_Tuple_implIXT_EJS7_DpT1_EE
FNDA:0,_ZSt12__get_helperILm0EPN7testing8internal18ActionResultHolderIvEEJSt14default_deleteIS3_EEERT0_RSt11_Tuple_implIXT_EJS7_DpT1_EE
FN:1309,_ZSt12__get_helperILm1ESt14default_deleteIN7testing8internal18ActionResultHolderIiEEEJEERT0_RSt11_Tuple_implIXT_EJS6_DpT1_EE
FNDA:0,_ZSt12__get_helperILm1ESt14default_deleteIN7testing8internal18ActionResultHolderIiEEEJEERT0_RSt11_Tuple_implIXT_EJS6_DpT1_EE
FN:1309,_ZSt12__get_helperILm1ESt14default_deleteIN7testing8internal18ActionResultHolderIvEEEJEERT0_RSt11_Tuple_implIXT_EJS6_DpT1_EE
FNDA:0,_ZSt12__get_helperILm1ESt14default_deleteIN7testing8internal18ActionResultHolderIvEEEJEERT0_RSt11_Tuple_implIXT_EJS6_DpT1_EE
FN:1309,_ZSt12__get_helperILm0EPN7testing8internal18ActionResultHolderImEEJSt14default_deleteIS3_EEERT0_RSt11_Tuple_implIXT_EJS7_DpT1_EE
FNDA:388,_ZSt12__get_helperILm0EPN7testing8internal18ActionResultHolderImEEJSt14default_deleteIS3_EEERT0_RSt11_Tuple_implIXT_EJS7_DpT1_EE
FN:1314,_ZSt12__get_helperILm0EPN7testing8internal18ActionResultHolderImEEJSt14default_deleteIS3_EEERKT0_RKSt11_Tuple_implIXT_EJS7_DpT1_EE
FNDA:194,_ZSt12__get_helperILm0EPN7testing8internal18ActionResultHolderImEEJSt14default_deleteIS3_EEERKT0_RKSt11_Tuple_implIXT_EJS7_DpT1_EE
FN:1314,_ZSt12__get_helperILm0EPN7testing8internal18ActionResultHolderIiEEJSt14default_deleteIS3_EEERKT0_RKSt11_Tuple_implIXT_EJS7_DpT1_EE
FNDA:0,_ZSt12__get_helperILm0EPN7testing8internal18ActionResultHolderIiEEJSt14default_deleteIS3_EEERKT0_RKSt11_Tuple_implIXT_EJS7_DpT1_EE
FN:1314,_ZSt12__get_helperILm0EPN7testing8internal18ActionResultHolderIvEEJSt14default_deleteIS3_EEERKT0_RKSt11_Tuple_implIXT_EJS7_DpT1_EE
FNDA:0,_ZSt12__get_helperILm0EPN7testing8internal18ActionResultHolderIvEEJSt14default_deleteIS3_EEERKT0_RKSt11_Tuple_implIXT_EJS7_DpT1_EE
FN:1320,_ZSt3getILm1EJPN7testing8internal18ActionResultHolderImEESt14default_deleteIS3_EEERNSt13tuple_elementIXT_ESt5tupleIJDpT0_EEE4typeERSB_
FNDA:194,_ZSt3getILm1EJPN7testing8internal18ActionResultHolderImEESt14default_deleteIS3_EEERNSt13tuple_elementIXT_ESt5tupleIJDpT0_EEE4typeERSB_
FN:1320,_ZSt3getILm0EJPN7testing8internal18ActionResultHolderIvEESt14default_deleteIS3_EEERNSt13tuple_elementIXT_ESt5tupleIJDpT0_EEE4typeERSB_
FNDA:0,_ZSt3getILm0EJPN7testing8internal18ActionResultHolderIvEESt14default_deleteIS3_EEERNSt13tuple_elementIXT_ESt5tupleIJDpT0_EEE4typeERSB_
FN:1320,_ZSt3getILm0EJPN7testing8internal18ActionResultHolderIiEESt14default_deleteIS3_EEERNSt13tuple_elementIXT_ESt5tupleIJDpT0_EEE4typeERSB_
FNDA:0,_ZSt3getILm0EJPN7testing8internal18ActionResultHolderIiEESt14default_deleteIS3_EEERNSt13tuple_elementIXT_ESt5tupleIJDpT0_EEE4typeERSB_
FN:1320,_ZSt3getILm0EJPN7testing8internal18ActionResultHolderImEESt14default_deleteIS3_EEERNSt13tuple_elementIXT_ESt5tupleIJDpT0_EEE4typeERSB_
FNDA:388,_ZSt3getILm0EJPN7testing8internal18ActionResultHolderImEESt14default_deleteIS3_EEERNSt13tuple_elementIXT_ESt5tupleIJDpT0_EEE4typeERSB_
FN:1320,_ZSt3getILm1EJPN7testing8internal18ActionResultHolderIvEESt14default_deleteIS3_EEERNSt13tuple_elementIXT_ESt5tupleIJDpT0_EEE4typeERSB_
FNDA:0,_ZSt3getILm1EJPN7testing8internal18ActionResultHolderIvEESt14default_deleteIS3_EEERNSt13tuple_elementIXT_ESt5tupleIJDpT0_EEE4typeERSB_
FN:1320,_ZSt3getILm1EJPN7testing8internal18ActionResultHolderIiEESt14default_deleteIS3_EEERNSt13tuple_elementIXT_ESt5tupleIJDpT0_EEE4typeERSB_
FNDA:0,_ZSt3getILm1EJPN7testing8internal18ActionResultHolderIiEESt14default_deleteIS3_EEERNSt13tuple_elementIXT_ESt5tupleIJDpT0_EEE4typeERSB_
FN:1326,_ZSt3getILm0EJPN7testing8internal18ActionResultHolderImEESt14default_deleteIS3_EEERKNSt13tuple_elementIXT_ESt5tupleIJDpT0_EEE4typeERKSB_
FNDA:194,_ZSt3getILm0EJPN7testing8internal18ActionResultHolderImEESt14default_deleteIS3_EEERKNSt13tuple_elementIXT_ESt5tupleIJDpT0_EEE4typeERKSB_
FN:1326,_ZSt3getILm0EJPN7testing8internal18ActionResultHolderIiEESt14default_deleteIS3_EEERKNSt13tuple_elementIXT_ESt5tupleIJDpT0_EEE4typeERKSB_
FNDA:0,_ZSt3getILm0EJPN7testing8internal18ActionResultHolderIiEESt14default_deleteIS3_EEERKNSt13tuple_elementIXT_ESt5tupleIJDpT0_EEE4typeERKSB_
FN:1326,_ZSt3getILm0EJPN7testing8internal18ActionResultHolderIvEESt14default_deleteIS3_EEERKNSt13tuple_elementIXT_ESt5tupleIJDpT0_EEE4typeERKSB_
FNDA:0,_ZSt3getILm0EJPN7testing8internal18ActionResultHolderIvEESt14default_deleteIS3_EEERKNSt13tuple_elementIXT_ESt5tupleIJDpT0_EEE4typeERKSB_
DA:76,194
DA:77,194
DA:76,0
DA:77,0
DA:76,0
DA:77,0
DA:113,194
DA:113,0
DA:113,0
DA:122,194
DA:123,194
DA:122,0
DA:123,0
DA:122,0
DA:123,0
DA:132,0
DA:133,0
DA:132,0
DA:133,0
DA:132,0
DA:133,0
DA:160,388
DA:160,0
DA:160,0
DA:163,194
DA:163,0
DA:163,0
DA:195,388
DA:195,0
DA:195,0
DA:198,194
DA:198,0
DA:198,0
DA:206,194
DA:207,194
DA:206,0
DA:207,0
DA:206,0
DA:207,0
DA:216,0
DA:218,0
DA:216,175
DA:218,175
DA:334,194
DA:334,0
DA:334,0
DA:339,194
DA:340,194
DA:339,0
DA:340,0
DA:339,0
DA:340,0
DA:348,0
DA:349,0
DA:348,0
DA:349,0
DA:348,0
DA:349,0
DA:626,0
DA:627,0
DA:918,194
DA:919,194
DA:918,0
DA:919,0
DA:918,0
DA:919,0
DA:968,0
DA:969,0
DA:968,175
DA:969,175
DA:1309,194
DA:1310,194
DA:1309,0
DA:1310,0
DA:1309,0
DA:1310,0
DA:1309,388
DA:1310,388
DA:1309,0
DA:1310,0
DA:1309,0
DA:1310,0
DA:1314,194
DA:1315,194
DA:1314,0
DA:1315,0
DA:1314,0
DA:1315,0
DA:1320,194
DA:1321,194
DA:1320,0
DA:1321,0
DA:1320,0
DA:1321,0
DA:1320,388
DA:1321,388
DA:1320,0
DA:1321,0
DA:1320,0
DA:1321,0
DA:1326,194
DA:1327,194
DA:1326,0
DA:1327,0
DA:1326,0
DA:1327,0
end_of_record
TN:
SF:/home/pieter/GitHub/Control-Surface/src/Def/MIDICNChannelAddress.hpp
FN:49,_ZNK28RelativeMIDICNChannelAddress7isValidEv
FNDA:103,_ZNK28RelativeMIDICNChannelAddress7isValidEv
FN:115,_ZNK20MIDICNChannelAddress7isValidEv
FNDA:0,_ZNK20MIDICNChannelAddress7isValidEv
DA:49,103
DA:115,0
end_of_record
SF:/home/pieter/GitHub/Control-Surface/src/Def/MIDICNChannelAddress.cpp
FN:3,_ZN20MIDICNChannelAddresspLERK28RelativeMIDICNChannelAddress
FNDA:95,_ZN20MIDICNChannelAddresspLERK28RelativeMIDICNChannelAddress
FN:15,_ZN20MIDICNChannelAddressmIERK28RelativeMIDICNChannelAddress
FNDA:9,_ZN20MIDICNChannelAddressmIERK28RelativeMIDICNChannelAddress
FN:27,_ZNK20MIDICNChannelAddressplERK28RelativeMIDICNChannelAddress
FNDA:13,_ZNK20MIDICNChannelAddressplERK28RelativeMIDICNChannelAddress
FN:34,_ZNK20MIDICNChannelAddressmiERK28RelativeMIDICNChannelAddress
FNDA:9,_ZNK20MIDICNChannelAddressmiERK28RelativeMIDICNChannelAddress
FN:41,_ZNK20MIDICNChannelAddresseqERKS_
FNDA:22,_ZNK20MIDICNChannelAddresseqERKS_
FN:48,_ZNK20MIDICNChannelAddressneERKS_
FNDA:8,_ZNK20MIDICNChannelAddressneERKS_
FN:55,_ZN20MIDICNChannelAddress11matchSingleERKS_S1_
FNDA:16,_ZN20MIDICNChannelAddress11matchSingleERKS_S1_
FN:60,_ZN20MIDICNChannelAddress19matchAddressInRangeERKS_S1_h
FNDA:67,_ZN20MIDICNChannelAddress19matchAddressInRangeERKS_S1_h
DA:3,95
DA:5,95
DA:6,2
DA:8,93
DA:9,93
DA:10,93
DA:12,95
DA:15,9
DA:17,9
DA:18,0
DA:20,9
DA:21,9
DA:22,9
DA:24,9
DA:27,13
DA:29,13
DA:30,13
DA:31,13
DA:34,9
DA:36,9
DA:37,9
DA:38,9
DA:41,22
DA:42,21
DA:43,21
DA:44,62
DA:45,41
DA:48,8
DA:49,15
DA:50,7
DA:51,5
DA:52,11
DA:55,16
DA:57,16
DA:60,67
DA:63,67
DA:64,67
DA:65,134
DA:66,67
DA:67,67
DA:68,134
DA:69,67
DA:70,67
end_of_record
TN:
SF:/home/pieter/GitHub/Control-Surface/src/MIDI_Inputs/MIDIInputElementChannelPressure.cpp
end_of_record
SF:/usr/include/c++/9/iostream
end_of_record
TN:
SF:/usr/include/c++/9/iostream
end_of_record
SF:/home/pieter/GitHub/Control-Surface/src/MIDI_Inputs/MIDIInputElementPC.cpp
end_of_record
TN:
SF:/home/pieter/GitHub/Control-Surface/src/MIDI_Inputs/MIDIInputElementNote.cpp
end_of_record
SF:/usr/include/c++/9/iostream
end_of_record
TN:
SF:/usr/include/c++/9/iostream
end_of_record
SF:/home/pieter/GitHub/Control-Surface/src/MIDI_Inputs/MIDIInputElementCC.cpp
end_of_record
TN:
SF:/home/pieter/GitHub/Control-Surface/src/Display/DisplayElement.cpp
end_of_record
SF:/usr/include/c++/9/iostream
end_of_record
TN:
SF:/home/pieter/GitHub/Control-Surface/src/Display/DisplayInterface.cpp
FN:5,_ZN16DisplayInterface5beginEv
FNDA:0,_ZN16DisplayInterface5beginEv
FN:11,_ZN16DisplayInterface8fillRectEsssst
FNDA:0,_ZN16DisplayInterface8fillRectEsssst
FN:17,_ZN16DisplayInterface10drawCircleEssst
FNDA:0,_ZN16DisplayInterface10drawCircleEssst
FN:40,_ZN16DisplayInterface10fillCircleEssst
FNDA:0,_ZN16DisplayInterface10fillCircleEssst
FN:59,_ZN16DisplayInterface8beginAllEv
FNDA:0,_ZN16DisplayInterface8beginAllEv
DA:5,0
DA:6,0
DA:7,0
DA:8,0
DA:9,0
DA:11,0
DA:13,0
DA:14,0
DA:15,0
DA:17,0
DA:19,0
DA:20,0
DA:21,0
DA:23,0
DA:24,0
DA:25,0
DA:26,0
DA:27,0
DA:28,0
DA:29,0
DA:30,0
DA:31,0
DA:33,0
DA:34,0
DA:36,0
DA:38,0
DA:40,0
DA:42,0
DA:43,0
DA:44,0
DA:46,0
DA:47,0
DA:48,0
DA:49,0
DA:50,0
DA:52,0
DA:53,0
DA:55,0
DA:57,0
DA:59,0
DA:60,0
DA:61,0
DA:62,0
end_of_record
SF:/usr/include/c++/9/iostream
end_of_record
SF:/home/pieter/GitHub/Control-Surface/ArduinoMock/Print.h
FN:66,_ZN5Print17availableForWriteEv
FNDA:0,_ZN5Print17availableForWriteEv
FN:89,_ZN5Print5flushEv
FNDA:0,_ZN5Print5flushEv
DA:66,0
DA:89,0
DA:90,0
end_of_record
SF:/home/pieter/GitHub/Control-Surface/src/Helpers/LinkedList.hpp
FN:25,_ZN16DoublyLinkedListI16DisplayInterfaceE18node_iterator_baseIS0_EC2EPS0_
FNDA:0,_ZN16DoublyLinkedListI16DisplayInterfaceE18node_iterator_baseIS0_EC2EPS0_
FN:27,_ZNK16DoublyLinkedListI16DisplayInterfaceE18node_iterator_baseIS0_EneERKS3_
FNDA:0,_ZNK16DoublyLinkedListI16DisplayInterfaceE18node_iterator_baseIS0_EneERKS3_
FN:31,_ZNK16DoublyLinkedListI16DisplayInterfaceE18node_iterator_baseIS0_EdeEv
FNDA:0,_ZNK16DoublyLinkedListI16DisplayInterfaceE18node_iterator_baseIS0_EdeEv
FN:44,_ZN16DoublyLinkedListI16DisplayInterfaceE13node_iteratorIS0_EC2EPS0_
FNDA:0,_ZN16DoublyLinkedListI16DisplayInterfaceE13node_iteratorIS0_EC2EPS0_
FN:55,_ZN16DoublyLinkedListI16DisplayInterfaceE13node_iteratorIS0_EppEv
FNDA:0,_ZN16DoublyLinkedListI16DisplayInterfaceE13node_iteratorIS0_EppEv
FN:265,_ZN16DoublyLinkedListI16DisplayInterfaceE5beginEv
FNDA:0,_ZN16DoublyLinkedListI16DisplayInterfaceE5beginEv
FN:266,_ZN16DoublyLinkedListI16DisplayInterfaceE3endEv
FNDA:0,_ZN16DoublyLinkedListI16DisplayInterfaceE3endEv
DA:25,0
DA:27,0
DA:28,0
DA:31,0
DA:33,0
DA:44,0
DA:55,0
DA:57,0
DA:58,0
DA:265,0
DA:266,0
end_of_record
SF:/home/pieter/GitHub/Control-Surface/src/Display/DisplayInterface.hpp
FN:31,_ZN16DisplayInterface14drawBackgroundEv
FNDA:0,_ZN16DisplayInterface14drawBackgroundEv
DA:31,0
end_of_record
TN:
SF:/usr/include/c++/9/bits/move.h
FN:99,_ZSt4moveIRSaIcEEONSt16remove_referenceIT_E4typeEOS3_
FNDA:0,_ZSt4moveIRSaIcEEONSt16remove_referenceIT_E4typeEOS3_
FN:99,_ZSt4moveIRKNSt7__cxx1112basic_stringIcSt11char_traitsIcESaIcEEEEONSt16remove_referenceIT_E4typeEOS9_
FNDA:0,_ZSt4moveIRKNSt7__cxx1112basic_stringIcSt11char_traitsIcESaIcEEEEONSt16remove_referenceIT_E4typeEOS9_
DA:99,0
DA:100,0
DA:99,0
DA:100,0
end_of_record
SF:/usr/include/c++/9/bits/basic_string.tcc
FN:206,_ZNSt7__cxx1112basic_stringIcSt11char_traitsIcESaIcEE12_M_constructIPcEEvT_S7_St20forward_iterator_tag
FNDA:0,_ZNSt7__cxx1112basic_stringIcSt11char_traitsIcESaIcEE12_M_constructIPcEEvT_S7_St20forward_iterator_tag
DA:206,0
DA:211,0
DA:212,0
DA:215,0
DA:217,0
DA:219,0
DA:220,0
DA:225,0
DA:226,0
DA:228,0
DA:229,0
DA:232,0
DA:233,0
end_of_record
SF:/usr/include/c++/9/iostream
end_of_record
SF:/usr/include/c++/9/ext/new_allocator.h
FN:83,_ZN9__gnu_cxx13new_allocatorIcEC2ERKS1_
FNDA:0,_ZN9__gnu_cxx13new_allocatorIcEC2ERKS1_
FN:89,_ZN9__gnu_cxx13new_allocatorIcED2Ev
FNDA:0,_ZN9__gnu_cxx13new_allocatorIcED2Ev
DA:83,0
DA:89,0
end_of_record
SF:/usr/include/c++/9/ext/alloc_traits.h
FN:97,_ZN9__gnu_cxx14__alloc_traitsISaIcEcE17_S_select_on_copyERKS1_
FNDA:0,_ZN9__gnu_cxx14__alloc_traitsISaIcEcE17_S_select_on_copyERKS1_
DA:97,0
DA:98,0
end_of_record
SF:/usr/include/c++/9/bits/alloc_traits.h
FN:514,_ZNSt16allocator_traitsISaIcEE37select_on_container_copy_constructionERKS0_
FNDA:0,_ZNSt16allocator_traitsISaIcEE37select_on_container_copy_constructionERKS0_
DA:514,0
DA:515,0
end_of_record
SF:/usr/include/c++/9/bits/basic_string.h
FN:243,_ZNSt7__cxx1112basic_stringIcSt11char_traitsIcESaIcEE16_M_construct_auxIPcEEvT_S7_St12__false_type
FNDA:0,_ZNSt7__cxx1112basic_stringIcSt11char_traitsIcESaIcEE16_M_construct_auxIPcEEvT_S7_St12__false_type
FN:263,_ZNSt7__cxx1112basic_stringIcSt11char_traitsIcESaIcEE12_M_constructIPcEEvT_S7_
FNDA:0,_ZNSt7__cxx1112basic_stringIcSt11char_traitsIcESaIcEE12_M_constructIPcEEvT_S7_
DA:243,0
DA:247,0
DA:248,0
DA:263,0
DA:266,0
DA:267,0
end_of_record
SF:/home/pieter/GitHub/Control-Surface/src/Helpers/LinkedList.hpp
FN:25,_ZN16DoublyLinkedListI17ExtendedIOElementE18node_iterator_baseIS0_EC2EPS0_
FNDA:0,_ZN16DoublyLinkedListI17ExtendedIOElementE18node_iterator_baseIS0_EC2EPS0_
FN:27,_ZNK16DoublyLinkedListI17ExtendedIOElementE18node_iterator_baseIS0_EneERKS3_
FNDA:0,_ZNK16DoublyLinkedListI17ExtendedIOElementE18node_iterator_baseIS0_EneERKS3_
FN:31,_ZNK16DoublyLinkedListI17ExtendedIOElementE18node_iterator_baseIS0_EdeEv
FNDA:0,_ZNK16DoublyLinkedListI17ExtendedIOElementE18node_iterator_baseIS0_EdeEv
FN:44,_ZN16DoublyLinkedListI17ExtendedIOElementE13node_iteratorIS0_EC2EPS0_
FNDA:0,_ZN16DoublyLinkedListI17ExtendedIOElementE13node_iteratorIS0_EC2EPS0_
FN:55,_ZN16DoublyLinkedListI17ExtendedIOElementE13node_iteratorIS0_EppEv
FNDA:0,_ZN16DoublyLinkedListI17ExtendedIOElementE13node_iteratorIS0_EppEv
FN:265,_ZN16DoublyLinkedListI17ExtendedIOElementE5beginEv
FNDA:0,_ZN16DoublyLinkedListI17ExtendedIOElementE5beginEv
FN:266,_ZN16DoublyLinkedListI17ExtendedIOElementE3endEv
FNDA:0,_ZN16DoublyLinkedListI17ExtendedIOElementE3endEv
DA:25,0
DA:27,0
DA:28,0
DA:31,0
DA:33,0
DA:44,0
DA:55,0
DA:57,0
DA:58,0
DA:265,0
DA:266,0
end_of_record
SF:/usr/include/c++/9/bits/exception.h
FN:63,_ZNSt9exceptionC2Ev
FNDA:0,_ZNSt9exceptionC2Ev
DA:63,0
end_of_record
SF:/usr/include/c++/9/bits/stl_iterator_base_funcs.h
FN:98,_ZSt10__distanceIPcENSt15iterator_traitsIT_E15difference_typeES2_S2_St26random_access_iterator_tag
FNDA:0,_ZSt10__distanceIPcENSt15iterator_traitsIT_E15difference_typeES2_S2_St26random_access_iterator_tag
FN:138,_ZSt8distanceIPcENSt15iterator_traitsIT_E15difference_typeES2_S2_
FNDA:0,_ZSt8distanceIPcENSt15iterator_traitsIT_E15difference_typeES2_S2_
DA:98,0
DA:104,0
DA:138,0
DA:141,0
DA:142,0
end_of_record
SF:/usr/include/c++/9/ext/type_traits.h
FN:152,_ZN9__gnu_cxx17__is_null_pointerIcEEbPT_
FNDA:0,_ZN9__gnu_cxx17__is_null_pointerIcEEbPT_
DA:152,0
DA:153,0
end_of_record
SF:/usr/include/c++/9/bits/stl_iterator_base_types.h
FN:205,_ZSt19__iterator_categoryIPcENSt15iterator_traitsIT_E17iterator_categoryERKS2_
FNDA:0,_ZSt19__iterator_categoryIPcENSt15iterator_traitsIT_E17iterator_categoryERKS2_
DA:205,0
DA:206,0
end_of_record
SF:/home/pieter/GitHub/Control-Surface/src/Helpers/Error.hpp
FN:44,_ZN14ErrorExceptionC2ENSt7__cxx1112basic_stringIcSt11char_traitsIcESaIcEEEi
FNDA:0,_ZN14ErrorExceptionC2ENSt7__cxx1112basic_stringIcSt11char_traitsIcESaIcEEEi
FN:46,_ZNK14ErrorException4whatEv
FNDA:0,_ZNK14ErrorException4whatEv
DA:44,0
DA:45,0
DA:46,0
end_of_record
SF:/home/pieter/GitHub/Control-Surface/src/Hardware/ExtendedInputOutput/ExtendedInputOutput.cpp
FN:9,_ZN5ExtIO7inRangeItEEbT_S1_S1_
FNDA:18,_ZN5ExtIO7inRangeItEEbT_S1_S1_
FN:13,_ZN5ExtIO17getIOElementOfPinEt
FNDA:16,_ZN5ExtIO17getIOElementOfPinEt
FN:32,_ZN5ExtIO7pinModeEth
FNDA:119,_ZN5ExtIO7pinModeEth
FN:41,_ZN5ExtIO7pinModeEih
FNDA:0,_ZN5ExtIO7pinModeEih
FN:43,_ZN5ExtIO12digitalWriteEth
FNDA:57,_ZN5ExtIO12digitalWriteEth
FN:52,_ZN5ExtIO12digitalWriteEih
FNDA:0,_ZN5ExtIO12digitalWriteEih
FN:54,_ZN5ExtIO11digitalReadEt
FNDA:223,_ZN5ExtIO11digitalReadEt
FN:63,_ZN5ExtIO11digitalReadEi
FNDA:1,_ZN5ExtIO11digitalReadEi
FN:65,_ZN5ExtIO8shiftOutEtthh
FNDA:0,_ZN5ExtIO8shiftOutEtthh
FN:78,_ZN5ExtIO8shiftOutEiihh
FNDA:0,_ZN5ExtIO8shiftOutEiihh
FN:82,_ZN5ExtIO10analogReadEt
FNDA:21,_ZN5ExtIO10analogReadEt
FN:91,_ZN5ExtIO10analogReadEi
FNDA:0,_ZN5ExtIO10analogReadEi
DA:9,18
DA:10,18
DA:13,16
DA:14,20
DA:15,19
DA:16,1
DA:17,18
DA:18,14
DA:20,2
DA:32,119
DA:34,119
DA:35,118
DA:37,1
DA:38,1
DA:40,119
DA:41,0
DA:43,57
DA:45,57
DA:46,57
DA:48,0
DA:49,0
DA:51,57
DA:52,0
DA:54,223
DA:55,223
DA:56,215
DA:58,8
DA:59,6
DA:63,1
DA:65,0
DA:68,0
DA:69,0
DA:70,0
DA:72,0
DA:74,0
DA:75,0
DA:77,0
DA:78,0
DA:79,0
DA:80,0
DA:82,21
DA:83,21
DA:84,14
DA:86,7
DA:87,7
DA:91,0
end_of_record
TN:
SF:/usr/include/c++/9/ext/type_traits.h
FN:152,_ZN9__gnu_cxx17__is_null_pointerIcEEbPT_
FNDA:0,_ZN9__gnu_cxx17__is_null_pointerIcEEbPT_
DA:152,0
DA:153,0
end_of_record
SF:/usr/include/c++/9/bits/stl_iterator_base_funcs.h
FN:98,_ZSt10__distanceIPcENSt15iterator_traitsIT_E15difference_typeES2_S2_St26random_access_iterator_tag
FNDA:0,_ZSt10__distanceIPcENSt15iterator_traitsIT_E15difference_typeES2_S2_St26random_access_iterator_tag
FN:138,_ZSt8distanceIPcENSt15iterator_traitsIT_E15difference_typeES2_S2_
FNDA:0,_ZSt8distanceIPcENSt15iterator_traitsIT_E15difference_typeES2_S2_
DA:98,0
DA:104,0
DA:138,0
DA:141,0
DA:142,0
end_of_record
SF:/usr/include/c++/9/bits/stl_iterator_base_types.h
FN:205,_ZSt19__iterator_categoryIPcENSt15iterator_traitsIT_E17iterator_categoryERKS2_
FNDA:0,_ZSt19__iterator_categoryIPcENSt15iterator_traitsIT_E17iterator_categoryERKS2_
DA:205,0
DA:206,0
end_of_record
SF:/usr/include/c++/9/bits/exception.h
FN:63,_ZNSt9exceptionC2Ev
FNDA:0,_ZNSt9exceptionC2Ev
DA:63,0
end_of_record
SF:/home/pieter/GitHub/Control-Surface/src/Helpers/LinkedList.hpp
FN:25,_ZN16DoublyLinkedListI17ExtendedIOElementE18node_iterator_baseIS0_EC2EPS0_
FNDA:44,_ZN16DoublyLinkedListI17ExtendedIOElementE18node_iterator_baseIS0_EC2EPS0_
FN:27,_ZNK16DoublyLinkedListI17ExtendedIOElementE18node_iterator_baseIS0_EneERKS3_
FNDA:32,_ZNK16DoublyLinkedListI17ExtendedIOElementE18node_iterator_baseIS0_EneERKS3_
FN:31,_ZNK16DoublyLinkedListI17ExtendedIOElementE18node_iterator_baseIS0_EdeEv
FNDA:25,_ZNK16DoublyLinkedListI17ExtendedIOElementE18node_iterator_baseIS0_EdeEv
FN:44,_ZN16DoublyLinkedListI17ExtendedIOElementE13node_iteratorIS0_EC2EPS0_
FNDA:44,_ZN16DoublyLinkedListI17ExtendedIOElementE13node_iteratorIS0_EC2EPS0_
FN:55,_ZN16DoublyLinkedListI17ExtendedIOElementE13node_iteratorIS0_EppEv
FNDA:10,_ZN16DoublyLinkedListI17ExtendedIOElementE13node_iteratorIS0_EppEv
FN:109,_ZN16DoublyLinkedListI17ExtendedIOElementE6appendEPS0_
FNDA:14,_ZN16DoublyLinkedListI17ExtendedIOElementE6appendEPS0_
FN:192,_ZN16DoublyLinkedListI17ExtendedIOElementE6removeEPS0_
FNDA:14,_ZN16DoublyLinkedListI17ExtendedIOElementE6removeEPS0_
FN:265,_ZN16DoublyLinkedListI17ExtendedIOElementE5beginEv
FNDA:22,_ZN16DoublyLinkedListI17ExtendedIOElementE5beginEv
FN:266,_ZN16DoublyLinkedListI17ExtendedIOElementE3endEv
FNDA:22,_ZN16DoublyLinkedListI17ExtendedIOElementE3endEv
FN:299,_ZN14DoublyLinkableI17ExtendedIOElementED0Ev
FNDA:0,_ZN14DoublyLinkableI17ExtendedIOElementED0Ev
FN:299,_ZN14DoublyLinkableI17ExtendedIOElementED2Ev
FNDA:15,_ZN14DoublyLinkableI17ExtendedIOElementED2Ev
DA:25,44
DA:27,32
DA:28,32
DA:31,25
DA:33,25
DA:44,44
DA:55,10
DA:57,10
DA:58,10
DA:109,14
DA:110,14
DA:111,11
DA:112,14
DA:113,14
DA:114,3
DA:115,14
DA:116,14
DA:117,14
DA:192,14
DA:193,14
DA:194,3
DA:195,14
DA:196,14
DA:197,14
DA:198,0
DA:199,14
DA:200,11
DA:201,14
DA:202,14
DA:203,14
DA:265,22
DA:266,22
DA:299,0
DA:299,15
end_of_record
SF:/usr/include/c++/9/bits/basic_string.h
FN:243,_ZNSt7__cxx1112basic_stringIcSt11char_traitsIcESaIcEE16_M_construct_auxIPcEEvT_S7_St12__false_type
FNDA:0,_ZNSt7__cxx1112basic_stringIcSt11char_traitsIcESaIcEE16_M_construct_auxIPcEEvT_S7_St12__false_type
FN:263,_ZNSt7__cxx1112basic_stringIcSt11char_traitsIcESaIcEE12_M_constructIPcEEvT_S7_
FNDA:0,_ZNSt7__cxx1112basic_stringIcSt11char_traitsIcESaIcEE12_M_constructIPcEEvT_S7_
DA:243,0
DA:247,0
DA:248,0
DA:263,0
DA:266,0
DA:267,0
end_of_record
SF:/home/pieter/GitHub/Control-Surface/src/Helpers/Error.hpp
FN:44,_ZN14ErrorExceptionC2ENSt7__cxx1112basic_stringIcSt11char_traitsIcESaIcEEEi
FNDA:0,_ZN14ErrorExceptionC2ENSt7__cxx1112basic_stringIcSt11char_traitsIcESaIcEEEi
FN:46,_ZNK14ErrorException4whatEv
FNDA:0,_ZNK14ErrorException4whatEv
DA:44,0
DA:45,0
DA:46,0
end_of_record
SF:/usr/include/c++/9/bits/basic_string.tcc
FN:206,_ZNSt7__cxx1112basic_stringIcSt11char_traitsIcESaIcEE12_M_constructIPcEEvT_S7_St20forward_iterator_tag
FNDA:0,_ZNSt7__cxx1112basic_stringIcSt11char_traitsIcESaIcEE12_M_constructIPcEEvT_S7_St20forward_iterator_tag
DA:206,0
DA:211,0
DA:212,0
DA:215,0
DA:217,0
DA:219,0
DA:220,0
DA:225,0
DA:226,0
DA:228,0
DA:229,0
DA:232,0
DA:233,0
end_of_record
SF:/usr/include/c++/9/bits/move.h
FN:99,_ZSt4moveIRSaIcEEONSt16remove_referenceIT_E4typeEOS3_
FNDA:0,_ZSt4moveIRSaIcEEONSt16remove_referenceIT_E4typeEOS3_
FN:99,_ZSt4moveIRKNSt7__cxx1112basic_stringIcSt11char_traitsIcESaIcEEEEONSt16remove_referenceIT_E4typeEOS9_
FNDA:0,_ZSt4moveIRKNSt7__cxx1112basic_stringIcSt11char_traitsIcESaIcEEEEONSt16remove_referenceIT_E4typeEOS9_
DA:99,0
DA:100,0
DA:99,0
DA:100,0
end_of_record
SF:/home/pieter/GitHub/Control-Surface/src/Hardware/ExtendedInputOutput/ExtendedIOElement.cpp
FN:6,_ZN17ExtendedIOElementC2Et
FNDA:15,_ZN17ExtendedIOElementC2Et
FN:17,_ZN17ExtendedIOElementD0Ev
FNDA:0,_ZN17ExtendedIOElementD0Ev
FN:17,_ZN17ExtendedIOElementD2Ev
FNDA:14,_ZN17ExtendedIOElementD2Ev
FN:19,_ZN17ExtendedIOElement8beginAllEv
FNDA:6,_ZN17ExtendedIOElement8beginAllEv
FN:24,_ZNK17ExtendedIOElement3pinEt
FNDA:20,_ZNK17ExtendedIOElement3pinEt
FN:39,_ZNK17ExtendedIOElementixEt
FNDA:0,_ZNK17ExtendedIOElementixEt
FN:41,_ZNK17ExtendedIOElement9getLengthEv
FNDA:0,_ZNK17ExtendedIOElement9getLengthEv
FN:43,_ZNK17ExtendedIOElement6getEndEv
FNDA:18,_ZNK17ExtendedIOElement6getEndEv
FN:45,_ZNK17ExtendedIOElement8getStartEv
FNDA:51,_ZNK17ExtendedIOElement8getStartEv
FN:47,_ZN17ExtendedIOElement6getAllEv
FNDA:16,_ZN17ExtendedIOElement6getAllEv
DA:6,15
DA:7,16
DA:8,15
DA:9,1
DA:13,14
DA:14,14
DA:15,14
DA:17,0
DA:17,14
DA:19,6
DA:20,12
DA:21,6
DA:22,6
DA:24,20
DA:25,20
DA:28,2
DA:36,18
DA:39,0
DA:41,0
DA:43,18
DA:45,51
DA:47,16
DA:48,16
end_of_record
SF:/usr/include/c++/9/bits/alloc_traits.h
FN:514,_ZNSt16allocator_traitsISaIcEE37select_on_container_copy_constructionERKS0_
FNDA:0,_ZNSt16allocator_traitsISaIcEE37select_on_container_copy_constructionERKS0_
DA:514,0
DA:515,0
end_of_record
SF:/usr/include/c++/9/ext/new_allocator.h
FN:83,_ZN9__gnu_cxx13new_allocatorIcEC2ERKS1_
FNDA:0,_ZN9__gnu_cxx13new_allocatorIcEC2ERKS1_
FN:89,_ZN9__gnu_cxx13new_allocatorIcED2Ev
FNDA:0,_ZN9__gnu_cxx13new_allocatorIcED2Ev
DA:83,0
DA:89,0
end_of_record
SF:/usr/include/c++/9/iostream
end_of_record
SF:/usr/include/c++/9/ext/alloc_traits.h
FN:97,_ZN9__gnu_cxx14__alloc_traitsISaIcEcE17_S_select_on_copyERKS1_
FNDA:0,_ZN9__gnu_cxx14__alloc_traitsISaIcEcE17_S_select_on_copyERKS1_
DA:97,0
DA:98,0
end_of_record
TN:
SF:/home/pieter/GitHub/Control-Surface/src/Hardware/IncrementDecrementButtons.cpp
FN:3,_ZN25IncrementDecrementButtons8getStateEv
FNDA:19,_ZN25IncrementDecrementButtons8getStateEv
DA:3,19
DA:4,19
DA:5,19
DA:7,19
DA:9,17
DA:10,3
DA:13,6
DA:14,11
DA:17,1
DA:18,1
DA:19,10
DA:20,5
DA:22,0
DA:23,0
DA:26,5
DA:28,5
DA:29,5
DA:31,0
DA:32,0
DA:35,5
DA:37,0
DA:39,0
DA:41,0
DA:42,0
DA:43,0
DA:44,0
DA:46,0
DA:47,0
DA:48,0
DA:49,0
DA:51,0
DA:53,0
DA:54,0
DA:55,0
DA:56,0
DA:58,0
DA:59,0
DA:60,0
DA:61,0
DA:64,8
end_of_record
SF:/usr/include/c++/9/iostream
end_of_record
TN:
SF:/usr/include/c++/9/iostream
end_of_record
SF:/home/pieter/GitHub/Control-Surface/src/Hardware/IncrementButton.cpp
FN:3,_ZN15IncrementButton8getStateEv
FNDA:12,_ZN15IncrementButton8getStateEv
DA:3,12
DA:4,12
DA:6,12
DA:11,10
DA:12,4
DA:13,6
DA:14,6
DA:16,0
DA:18,0
DA:19,0
DA:20,0
DA:22,0
DA:24,0
DA:25,0
DA:26,0
DA:29,6
end_of_record
TN:
SF:/usr/include/c++/9/iostream
end_of_record
SF:/home/pieter/GitHub/Control-Surface/src/Hardware/Button.cpp
FN:5,_ZN6ButtonC2Et
FNDA:37,_ZN6ButtonC2Et
FN:7,_ZN6Button5beginEv
FNDA:37,_ZN6Button5beginEv
FN:9,_ZN6Button6invertEv
FNDA:0,_ZN6Button6invertEv
FN:15,_ZN6Button8getStateEv
FNDA:172,_ZN6Button8getStateEv
FN:33,_ZN6Button7getNameENS_5StateE
FNDA:0,_ZN6Button7getNameENS_5StateE
FN:43,_ZN6Button10stableTimeEv
FNDA:0,_ZN6Button10stableTimeEv
DA:5,37
DA:7,37
DA:9,0
DA:15,172
DA:18,172
DA:19,172
DA:20,172
DA:21,160
DA:22,160
DA:24,12
DA:26,172
DA:27,81
DA:28,81
DA:30,172
DA:33,0
DA:34,0
DA:35,0
DA:36,0
DA:37,0
DA:38,0
DA:39,0
DA:43,0
end_of_record
TN:
SF:/usr/include/c++/9/bits/alloc_traits.h
FN:514,_ZNSt16allocator_traitsISaIcEE37select_on_container_copy_constructionERKS0_
FNDA:0,_ZNSt16allocator_traitsISaIcEE37select_on_container_copy_constructionERKS0_
DA:514,0
DA:515,0
end_of_record
SF:/usr/include/c++/9/ext/alloc_traits.h
FN:97,_ZN9__gnu_cxx14__alloc_traitsISaIcEcE17_S_select_on_copyERKS1_
FNDA:0,_ZN9__gnu_cxx14__alloc_traitsISaIcEcE17_S_select_on_copyERKS1_
DA:97,0
DA:98,0
end_of_record
SF:/usr/include/c++/9/iostream
end_of_record
SF:/usr/include/c++/9/ext/new_allocator.h
FN:83,_ZN9__gnu_cxx13new_allocatorIcEC2ERKS1_
FNDA:0,_ZN9__gnu_cxx13new_allocatorIcEC2ERKS1_
FN:89,_ZN9__gnu_cxx13new_allocatorIcED2Ev
FNDA:0,_ZN9__gnu_cxx13new_allocatorIcED2Ev
DA:83,0
DA:89,0
end_of_record
SF:/home/pieter/GitHub/Control-Surface/src/MIDI_Inputs/MIDIInputElementChannelPressure.hpp
FN:36,_ZN31MIDIInputElementChannelPressure8beginAllEv
FNDA:0,_ZN31MIDIInputElementChannelPressure8beginAllEv
FN:48,_ZN31MIDIInputElementChannelPressure8resetAllEv
FNDA:0,_ZN31MIDIInputElementChannelPressure8resetAllEv
FN:57,_ZN31MIDIInputElementChannelPressure9updateAllEv
FNDA:0,_ZN31MIDIInputElementChannelPressure9updateAllEv
FN:69,_ZN31MIDIInputElementChannelPressure13updateAllWithERK20MIDI_message_matcher
FNDA:0,_ZN31MIDIInputElementChannelPressure13updateAllWithERK20MIDI_message_matcher
DA:36,0
DA:38,0
DA:39,0
DA:40,0
DA:48,0
DA:50,0
DA:51,0
DA:52,0
DA:57,0
DA:59,0
DA:60,0
DA:61,0
DA:69,0
DA:70,0
DA:71,0
DA:72,0
end_of_record
SF:/usr/include/c++/9/bits/basic_string.tcc
FN:206,_ZNSt7__cxx1112basic_stringIcSt11char_traitsIcESaIcEE12_M_constructIPcEEvT_S7_St20forward_iterator_tag
FNDA:0,_ZNSt7__cxx1112basic_stringIcSt11char_traitsIcESaIcEE12_M_constructIPcEEvT_S7_St20forward_iterator_tag
DA:206,0
DA:211,0
DA:212,0
DA:215,0
DA:217,0
DA:219,0
DA:220,0
DA:225,0
DA:226,0
DA:228,0
DA:229,0
DA:232,0
DA:233,0
end_of_record
SF:/home/pieter/GitHub/Control-Surface/src/MIDI_Inputs/MIDIInputElementCC.hpp
FN:47,_ZN18MIDIInputElementCC8beginAllEv
FNDA:0,_ZN18MIDIInputElementCC8beginAllEv
FN:55,_ZN18MIDIInputElementCC9updateAllEv
FNDA:0,_ZN18MIDIInputElementCC9updateAllEv
FN:63,_ZN18MIDIInputElementCC8resetAllEv
FNDA:0,_ZN18MIDIInputElementCC8resetAllEv
FN:71,_ZN18MIDIInputElementCC13updateAllWithERK20MIDI_message_matcher
FNDA:0,_ZN18MIDIInputElementCC13updateAllWithERK20MIDI_message_matcher
DA:47,0
DA:49,0
DA:50,0
DA:51,0
DA:55,0
DA:57,0
DA:58,0
DA:59,0
DA:63,0
DA:65,0
DA:66,0
DA:67,0
DA:71,0
DA:72,0
DA:73,0
DA:74,0
end_of_record
SF:/usr/include/c++/9/bits/move.h
FN:99,_ZSt4moveIRSaIcEEONSt16remove_referenceIT_E4typeEOS3_
FNDA:0,_ZSt4moveIRSaIcEEONSt16remove_referenceIT_E4typeEOS3_
FN:99,_ZSt4moveIRKNSt7__cxx1112basic_stringIcSt11char_traitsIcESaIcEEEEONSt16remove_referenceIT_E4typeEOS9_
FNDA:0,_ZSt4moveIRKNSt7__cxx1112basic_stringIcSt11char_traitsIcESaIcEEEEONSt16remove_referenceIT_E4typeEOS9_
DA:99,0
DA:100,0
DA:99,0
DA:100,0
end_of_record
SF:/home/pieter/GitHub/Control-Surface/src/Helpers/MillisTimer.hpp
FN:10,_ZN5TimerIXadL_Z6microsvEEEC2Em
FNDA:2,_ZN5TimerIXadL_Z6microsvEEEC2Em
FN:11,_ZN5TimerIXadL_Z6microsvEEE5beginEv
FNDA:0,_ZN5TimerIXadL_Z6microsvEEE5beginEv
FN:12,_ZN5TimerIXadL_Z6microsvEEEcvbEv
FNDA:0,_ZN5TimerIXadL_Z6microsvEEEcvbEv
DA:10,2
DA:11,0
DA:12,0
DA:13,0
DA:14,0
DA:15,0
DA:17,0
end_of_record
SF:/home/pieter/GitHub/Control-Surface/src/Display/DisplayElement.hpp
FN:34,_ZN14DisplayElement10getDisplayEv
FNDA:0,_ZN14DisplayElement10getDisplayEv
FN:39,_ZN14DisplayElement6getAllEv
FNDA:0,_ZN14DisplayElement6getAllEv
DA:34,0
DA:39,0
end_of_record
SF:/home/pieter/GitHub/Control-Surface/src/MIDI_Interfaces/MIDI_Interface.hpp
FN:16,_ZN14MIDI_Callbacks16onChannelMessageER14MIDI_Interface
FNDA:0,_ZN14MIDI_Callbacks16onChannelMessageER14MIDI_Interface
FN:17,_ZN14MIDI_Callbacks14onSysExMessageER14MIDI_Interface
FNDA:0,_ZN14MIDI_Callbacks14onSysExMessageER14MIDI_Interface
FN:18,_ZN14MIDI_Callbacks17onRealtimeMessageER14MIDI_Interfaceh
FNDA:0,_ZN14MIDI_Callbacks17onRealtimeMessageER14MIDI_Interfaceh
FN:22,_ZN14MIDI_CallbacksD0Ev
FNDA:0,_ZN14MIDI_CallbacksD0Ev
FN:22,_ZN14MIDI_CallbacksD2Ev
FNDA:0,_ZN14MIDI_CallbacksD2Ev
FN:41,_ZN14MIDI_Interface12setCallbacksEP14MIDI_Callbacks
FNDA:0,_ZN14MIDI_Interface12setCallbacksEP14MIDI_Callbacks
DA:16,0
DA:17,0
DA:18,0
DA:19,0
DA:22,0
DA:22,0
DA:41,0
end_of_record
SF:/home/pieter/GitHub/Control-Surface/src/Helpers/Error.hpp
FN:44,_ZN14ErrorExceptionC2ENSt7__cxx1112basic_stringIcSt11char_traitsIcESaIcEEEi
FNDA:0,_ZN14ErrorExceptionC2ENSt7__cxx1112basic_stringIcSt11char_traitsIcESaIcEEEi
FN:46,_ZNK14ErrorException4whatEv
FNDA:0,_ZNK14ErrorException4whatEv
DA:44,0
DA:45,0
DA:46,0
end_of_record
SF:/home/pieter/GitHub/Control-Surface/src/Helpers/Updatable.hpp
FN:66,_ZN9UpdatableI7DisplayE8beginAllEv
FNDA:0,_ZN9UpdatableI7DisplayE8beginAllEv
FN:66,_ZN9UpdatableI10MotorFaderE8beginAllEv
FNDA:0,_ZN9UpdatableI10MotorFaderE8beginAllEv
FN:66,_ZN9UpdatableI13PotentiometerE8beginAllEv
FNDA:0,_ZN9UpdatableI13PotentiometerE8beginAllEv
FN:66,_ZN9UpdatableI15NormalUpdatableE8beginAllEv
FNDA:0,_ZN9UpdatableI15NormalUpdatableE8beginAllEv
FN:73,_ZN9UpdatableI13PotentiometerE9updateAllEv
FNDA:0,_ZN9UpdatableI13PotentiometerE9updateAllEv
FN:73,_ZN9UpdatableI15NormalUpdatableE9updateAllEv
FNDA:0,_ZN9UpdatableI15NormalUpdatableE9updateAllEv
DA:66,0
DA:67,0
DA:68,0
DA:69,0
DA:66,0
DA:67,0
DA:68,0
DA:69,0
DA:66,0
DA:67,0
DA:68,0
DA:69,0
DA:66,0
DA:67,0
DA:68,0
DA:69,0
DA:73,0
DA:74,0
DA:75,0
DA:76,0
DA:73,0
DA:74,0
DA:75,0
DA:76,0
end_of_record
SF:/home/pieter/GitHub/Control-Surface/src/Display/DisplayInterface.hpp
FN:87,_ZN16DisplayInterface22clearAndDrawBackgroundEv
FNDA:0,_ZN16DisplayInterface22clearAndDrawBackgroundEv
DA:87,0
DA:88,0
DA:89,0
DA:90,0
end_of_record
SF:/home/pieter/GitHub/Control-Surface/src/MIDI_Inputs/MIDI_message_matcher.hpp
FN:13,_ZN20MIDI_message_matcherC2ERK12MIDI_message
FNDA:0,_ZN20MIDI_message_matcherC2ERK12MIDI_message
DA:13,0
DA:14,0
DA:15,0
end_of_record
SF:/home/pieter/GitHub/Control-Surface/src/Control_Surface/Control_Surface_Class.hpp
FN:65,_ZN16Control_Surface_C2Ev
FNDA:1,_ZN16Control_Surface_C2Ev
DA:65,1
end_of_record
SF:/home/pieter/GitHub/Control-Surface/src/Control_Surface/Control_Surface_Class.cpp
FN:13,_ZN16Control_Surface_11getInstanceEv
FNDA:1,_ZN16Control_Surface_11getInstanceEv
FN:18,_ZN16Control_Surface_5beginEv
FNDA:0,_ZN16Control_Surface_5beginEv
FN:42,_ZN16Control_Surface_4loopEv
FNDA:0,_ZN16Control_Surface_4loopEv
FN:52,_ZN16Control_Surface_4MIDIEv
FNDA:66,_ZN16Control_Surface_4MIDIEv
FN:60,_ZN16Control_Surface_15updateMidiInputEv
FNDA:0,_ZN16Control_Surface_15updateMidiInputEv
FN:65,_ZN16Control_Surface_16onChannelMessageER14MIDI_Interface
FNDA:0,_ZN16Control_Surface_16onChannelMessageER14MIDI_Interface
FN:116,_ZN16Control_Surface_14onSysExMessageER14MIDI_Interface
FNDA:0,_ZN16Control_Surface_14onSysExMessageER14MIDI_Interface
FN:135,_ZN16Control_Surface_17onRealtimeMessageER14MIDI_Interfaceh
FNDA:0,_ZN16Control_Surface_17onRealtimeMessageER14MIDI_Interfaceh
FN:145,_ZN16Control_Surface_12updateInputsEv
FNDA:0,_ZN16Control_Surface_12updateInputsEv
FN:151,_ZN16Control_Surface_14updateDisplaysEv
FNDA:0,_ZN16Control_Surface_14updateDisplaysEv
DA:13,1
DA:14,1
DA:15,1
DA:18,0
DA:26,0
DA:27,0
DA:28,0
DA:29,0
DA:30,0
DA:31,0
DA:32,0
DA:33,0
DA:34,0
DA:35,0
DA:36,0
DA:37,0
DA:38,0
DA:39,0
DA:40,0
DA:42,0
DA:43,0
DA:44,0
DA:45,0
DA:46,0
DA:47,0
DA:48,0
DA:49,0
DA:50,0
DA:52,66
DA:53,66
DA:54,66
DA:55,0
DA:57,66
DA:60,0
DA:61,0
DA:62,0
DA:63,0
DA:65,0
DA:66,0
DA:67,0
DA:81,0
DA:82,0
DA:84,0
DA:87,0
DA:88,0
DA:89,0
DA:90,0
DA:92,0
DA:95,0
DA:97,0
DA:100,0
DA:102,0
DA:106,0
DA:107,0
DA:111,0
DA:116,0
DA:118,0
DA:130,0
DA:131,0
DA:135,0
DA:139,0
DA:140,0
DA:145,0
DA:146,0
DA:147,0
DA:148,0
DA:149,0
DA:151,0
DA:152,0
DA:153,0
DA:154,0
DA:155,0
DA:156,0
DA:157,0
DA:158,0
DA:160,0
DA:161,0
DA:163,0
DA:164,0
DA:165,0
end_of_record
SF:/usr/include/c++/9/bits/stl_iterator_base_types.h
FN:205,_ZSt19__iterator_categoryIPcENSt15iterator_traitsIT_E17iterator_categoryERKS2_
FNDA:0,_ZSt19__iterator_categoryIPcENSt15iterator_traitsIT_E17iterator_categoryERKS2_
DA:205,0
DA:206,0
end_of_record
SF:/usr/include/c++/9/bits/stl_iterator_base_funcs.h
FN:98,_ZSt10__distanceIPcENSt15iterator_traitsIT_E15difference_typeES2_S2_St26random_access_iterator_tag
FNDA:0,_ZSt10__distanceIPcENSt15iterator_traitsIT_E15difference_typeES2_S2_St26random_access_iterator_tag
FN:138,_ZSt8distanceIPcENSt15iterator_traitsIT_E15difference_typeES2_S2_
FNDA:0,_ZSt8distanceIPcENSt15iterator_traitsIT_E15difference_typeES2_S2_
DA:98,0
DA:104,0
DA:138,0
DA:141,0
DA:142,0
end_of_record
SF:/usr/include/c++/9/ext/type_traits.h
FN:152,_ZN9__gnu_cxx17__is_null_pointerIcEEbPT_
FNDA:0,_ZN9__gnu_cxx17__is_null_pointerIcEEbPT_
DA:152,0
DA:153,0
end_of_record
SF:/home/pieter/GitHub/Control-Surface/src/MIDI_Inputs/MIDIInputElementPC.hpp
FN:35,_ZN18MIDIInputElementPC8beginAllEv
FNDA:0,_ZN18MIDIInputElementPC8beginAllEv
FN:68,_ZN18MIDIInputElementPC13updateAllWithERK20MIDI_message_matcher
FNDA:0,_ZN18MIDIInputElementPC13updateAllWithERK20MIDI_message_matcher
DA:35,0
DA:37,0
DA:38,0
DA:39,0
DA:68,0
DA:69,0
DA:70,0
DA:71,0
end_of_record
SF:/usr/include/c++/9/bits/basic_string.h
FN:243,_ZNSt7__cxx1112basic_stringIcSt11char_traitsIcESaIcEE16_M_construct_auxIPcEEvT_S7_St12__false_type
FNDA:0,_ZNSt7__cxx1112basic_stringIcSt11char_traitsIcESaIcEE16_M_construct_auxIPcEEvT_S7_St12__false_type
FN:263,_ZNSt7__cxx1112basic_stringIcSt11char_traitsIcESaIcEE12_M_constructIPcEEvT_S7_
FNDA:0,_ZNSt7__cxx1112basic_stringIcSt11char_traitsIcESaIcEE12_M_constructIPcEEvT_S7_
DA:243,0
DA:247,0
DA:248,0
DA:263,0
DA:266,0
DA:267,0
end_of_record
SF:/home/pieter/GitHub/Control-Surface/src/Helpers/LinkedList.hpp
FN:25,_ZN16DoublyLinkedListI9UpdatableI10MotorFaderEE18node_iterator_baseIS2_EC2EPS2_
FNDA:0,_ZN16DoublyLinkedListI9UpdatableI10MotorFaderEE18node_iterator_baseIS2_EC2EPS2_
FN:25,_ZN16DoublyLinkedListI9UpdatableI13PotentiometerEE18node_iterator_baseIS2_EC2EPS2_
FNDA:0,_ZN16DoublyLinkedListI9UpdatableI13PotentiometerEE18node_iterator_baseIS2_EC2EPS2_
FN:25,_ZN16DoublyLinkedListI9UpdatableI15NormalUpdatableEE18node_iterator_baseIS2_EC2EPS2_
FNDA:0,_ZN16DoublyLinkedListI9UpdatableI15NormalUpdatableEE18node_iterator_baseIS2_EC2EPS2_
FN:25,_ZN16DoublyLinkedListI14DisplayElementE18node_iterator_baseIS0_EC2EPS0_
FNDA:0,_ZN16DoublyLinkedListI14DisplayElementE18node_iterator_baseIS0_EC2EPS0_
FN:25,_ZN16DoublyLinkedListI9UpdatableI7DisplayEE18node_iterator_baseIS2_EC2EPS2_
FNDA:0,_ZN16DoublyLinkedListI9UpdatableI7DisplayEE18node_iterator_baseIS2_EC2EPS2_
FN:25,_ZN16DoublyLinkedListI18MIDIInputElementPCE18node_iterator_baseIS0_EC2EPS0_
FNDA:0,_ZN16DoublyLinkedListI18MIDIInputElementPCE18node_iterator_baseIS0_EC2EPS0_
FN:25,_ZN16DoublyLinkedListI20MIDIInputElementNoteE18node_iterator_baseIS0_EC2EPS0_
FNDA:0,_ZN16DoublyLinkedListI20MIDIInputElementNoteE18node_iterator_baseIS0_EC2EPS0_
FN:25,_ZN16DoublyLinkedListI31MIDIInputElementChannelPressureE18node_iterator_baseIS0_EC2EPS0_
FNDA:0,_ZN16DoublyLinkedListI31MIDIInputElementChannelPressureE18node_iterator_baseIS0_EC2EPS0_
FN:25,_ZN16DoublyLinkedListI18MIDIInputElementCCE18node_iterator_baseIS0_EC2EPS0_
FNDA:0,_ZN16DoublyLinkedListI18MIDIInputElementCCE18node_iterator_baseIS0_EC2EPS0_
FN:27,_ZNK16DoublyLinkedListI9UpdatableI10MotorFaderEE18node_iterator_baseIS2_EneERKS5_
FNDA:0,_ZNK16DoublyLinkedListI9UpdatableI10MotorFaderEE18node_iterator_baseIS2_EneERKS5_
FN:27,_ZNK16DoublyLinkedListI9UpdatableI15NormalUpdatableEE18node_iterator_baseIS2_EneERKS5_
FNDA:0,_ZNK16DoublyLinkedListI9UpdatableI15NormalUpdatableEE18node_iterator_baseIS2_EneERKS5_
FN:27,_ZNK16DoublyLinkedListI9UpdatableI13PotentiometerEE18node_iterator_baseIS2_EneERKS5_
FNDA:0,_ZNK16DoublyLinkedListI9UpdatableI13PotentiometerEE18node_iterator_baseIS2_EneERKS5_
FN:27,_ZNK16DoublyLinkedListI14DisplayElementE18node_iterator_baseIS0_EneERKS3_
FNDA:0,_ZNK16DoublyLinkedListI14DisplayElementE18node_iterator_baseIS0_EneERKS3_
FN:27,_ZNK16DoublyLinkedListI18MIDIInputElementPCE18node_iterator_baseIS0_EneERKS3_
FNDA:0,_ZNK16DoublyLinkedListI18MIDIInputElementPCE18node_iterator_baseIS0_EneERKS3_
FN:27,_ZNK16DoublyLinkedListI20MIDIInputElementNoteE18node_iterator_baseIS0_EneERKS3_
FNDA:0,_ZNK16DoublyLinkedListI20MIDIInputElementNoteE18node_iterator_baseIS0_EneERKS3_
FN:27,_ZNK16DoublyLinkedListI31MIDIInputElementChannelPressureE18node_iterator_baseIS0_EneERKS3_
FNDA:0,_ZNK16DoublyLinkedListI31MIDIInputElementChannelPressureE18node_iterator_baseIS0_EneERKS3_
FN:27,_ZNK16DoublyLinkedListI18MIDIInputElementCCE18node_iterator_baseIS0_EneERKS3_
FNDA:0,_ZNK16DoublyLinkedListI18MIDIInputElementCCE18node_iterator_baseIS0_EneERKS3_
FN:27,_ZNK16DoublyLinkedListI9UpdatableI7DisplayEE18node_iterator_baseIS2_EneERKS5_
FNDA:0,_ZNK16DoublyLinkedListI9UpdatableI7DisplayEE18node_iterator_baseIS2_EneERKS5_
FN:31,_ZNK16DoublyLinkedListI20MIDIInputElementNoteE18node_iterator_baseIS0_EdeEv
FNDA:0,_ZNK16DoublyLinkedListI20MIDIInputElementNoteE18node_iterator_baseIS0_EdeEv
FN:31,_ZNK16DoublyLinkedListI31MIDIInputElementChannelPressureE18node_iterator_baseIS0_EdeEv
FNDA:0,_ZNK16DoublyLinkedListI31MIDIInputElementChannelPressureE18node_iterator_baseIS0_EdeEv
FN:31,_ZNK16DoublyLinkedListI9UpdatableI7DisplayEE18node_iterator_baseIS2_EdeEv
FNDA:0,_ZNK16DoublyLinkedListI9UpdatableI7DisplayEE18node_iterator_baseIS2_EdeEv
FN:31,_ZNK16DoublyLinkedListI9UpdatableI15NormalUpdatableEE18node_iterator_baseIS2_EdeEv
FNDA:0,_ZNK16DoublyLinkedListI9UpdatableI15NormalUpdatableEE18node_iterator_baseIS2_EdeEv
FN:31,_ZNK16DoublyLinkedListI14DisplayElementE18node_iterator_baseIS0_EdeEv
FNDA:0,_ZNK16DoublyLinkedListI14DisplayElementE18node_iterator_baseIS0_EdeEv
FN:31,_ZNK16DoublyLinkedListI9UpdatableI13PotentiometerEE18node_iterator_baseIS2_EdeEv
FNDA:0,_ZNK16DoublyLinkedListI9UpdatableI13PotentiometerEE18node_iterator_baseIS2_EdeEv
FN:31,_ZNK16DoublyLinkedListI18MIDIInputElementCCE18node_iterator_baseIS0_EdeEv
FNDA:0,_ZNK16DoublyLinkedListI18MIDIInputElementCCE18node_iterator_baseIS0_EdeEv
FN:31,_ZNK16DoublyLinkedListI18MIDIInputElementPCE18node_iterator_baseIS0_EdeEv
FNDA:0,_ZNK16DoublyLinkedListI18MIDIInputElementPCE18node_iterator_baseIS0_EdeEv
FN:31,_ZNK16DoublyLinkedListI9UpdatableI10MotorFaderEE18node_iterator_baseIS2_EdeEv
FNDA:0,_ZNK16DoublyLinkedListI9UpdatableI10MotorFaderEE18node_iterator_baseIS2_EdeEv
FN:44,_ZN16DoublyLinkedListI9UpdatableI13PotentiometerEE13node_iteratorIS2_EC2EPS2_
FNDA:0,_ZN16DoublyLinkedListI9UpdatableI13PotentiometerEE13node_iteratorIS2_EC2EPS2_
FN:44,_ZN16DoublyLinkedListI14DisplayElementE13node_iteratorIS0_EC2EPS0_
FNDA:0,_ZN16DoublyLinkedListI14DisplayElementE13node_iteratorIS0_EC2EPS0_
FN:44,_ZN16DoublyLinkedListI18MIDIInputElementCCE13node_iteratorIS0_EC2EPS0_
FNDA:0,_ZN16DoublyLinkedListI18MIDIInputElementCCE13node_iteratorIS0_EC2EPS0_
FN:44,_ZN16DoublyLinkedListI9UpdatableI15NormalUpdatableEE13node_iteratorIS2_EC2EPS2_
FNDA:0,_ZN16DoublyLinkedListI9UpdatableI15NormalUpdatableEE13node_iteratorIS2_EC2EPS2_
FN:44,_ZN16DoublyLinkedListI31MIDIInputElementChannelPressureE13node_iteratorIS0_EC2EPS0_
FNDA:0,_ZN16DoublyLinkedListI31MIDIInputElementChannelPressureE13node_iteratorIS0_EC2EPS0_
FN:44,_ZN16DoublyLinkedListI20MIDIInputElementNoteE13node_iteratorIS0_EC2EPS0_
FNDA:0,_ZN16DoublyLinkedListI20MIDIInputElementNoteE13node_iteratorIS0_EC2EPS0_
FN:44,_ZN16DoublyLinkedListI9UpdatableI7DisplayEE13node_iteratorIS2_EC2EPS2_
FNDA:0,_ZN16DoublyLinkedListI9UpdatableI7DisplayEE13node_iteratorIS2_EC2EPS2_
FN:44,_ZN16DoublyLinkedListI18MIDIInputElementPCE13node_iteratorIS0_EC2EPS0_
FNDA:0,_ZN16DoublyLinkedListI18MIDIInputElementPCE13node_iteratorIS0_EC2EPS0_
FN:44,_ZN16DoublyLinkedListI9UpdatableI10MotorFaderEE13node_iteratorIS2_EC2EPS2_
FNDA:0,_ZN16DoublyLinkedListI9UpdatableI10MotorFaderEE13node_iteratorIS2_EC2EPS2_
FN:55,_ZN16DoublyLinkedListI31MIDIInputElementChannelPressureE13node_iteratorIS0_EppEv
FNDA:0,_ZN16DoublyLinkedListI31MIDIInputElementChannelPressureE13node_iteratorIS0_EppEv
FN:55,_ZN16DoublyLinkedListI9UpdatableI15NormalUpdatableEE13node_iteratorIS2_EppEv
FNDA:0,_ZN16DoublyLinkedListI9UpdatableI15NormalUpdatableEE13node_iteratorIS2_EppEv
FN:55,_ZN16DoublyLinkedListI14DisplayElementE13node_iteratorIS0_EppEv
FNDA:0,_ZN16DoublyLinkedListI14DisplayElementE13node_iteratorIS0_EppEv
FN:55,_ZN16DoublyLinkedListI9UpdatableI7DisplayEE13node_iteratorIS2_EppEv
FNDA:0,_ZN16DoublyLinkedListI9UpdatableI7DisplayEE13node_iteratorIS2_EppEv
FN:55,_ZN16DoublyLinkedListI9UpdatableI13PotentiometerEE13node_iteratorIS2_EppEv
FNDA:0,_ZN16DoublyLinkedListI9UpdatableI13PotentiometerEE13node_iteratorIS2_EppEv
FN:55,_ZN16DoublyLinkedListI18MIDIInputElementCCE13node_iteratorIS0_EppEv
FNDA:0,_ZN16DoublyLinkedListI18MIDIInputElementCCE13node_iteratorIS0_EppEv
FN:55,_ZN16DoublyLinkedListI18MIDIInputElementPCE13node_iteratorIS0_EppEv
FNDA:0,_ZN16DoublyLinkedListI18MIDIInputElementPCE13node_iteratorIS0_EppEv
FN:55,_ZN16DoublyLinkedListI9UpdatableI10MotorFaderEE13node_iteratorIS2_EppEv
FNDA:0,_ZN16DoublyLinkedListI9UpdatableI10MotorFaderEE13node_iteratorIS2_EppEv
FN:55,_ZN16DoublyLinkedListI20MIDIInputElementNoteE13node_iteratorIS0_EppEv
FNDA:0,_ZN16DoublyLinkedListI20MIDIInputElementNoteE13node_iteratorIS0_EppEv
FN:265,_ZN16DoublyLinkedListI31MIDIInputElementChannelPressureE5beginEv
FNDA:0,_ZN16DoublyLinkedListI31MIDIInputElementChannelPressureE5beginEv
FN:265,_ZN16DoublyLinkedListI20MIDIInputElementNoteE5beginEv
FNDA:0,_ZN16DoublyLinkedListI20MIDIInputElementNoteE5beginEv
FN:265,_ZN16DoublyLinkedListI18MIDIInputElementCCE5beginEv
FNDA:0,_ZN16DoublyLinkedListI18MIDIInputElementCCE5beginEv
FN:265,_ZN16DoublyLinkedListI18MIDIInputElementPCE5beginEv
FNDA:0,_ZN16DoublyLinkedListI18MIDIInputElementPCE5beginEv
FN:265,_ZN16DoublyLinkedListI14DisplayElementE5beginEv
FNDA:0,_ZN16DoublyLinkedListI14DisplayElementE5beginEv
FN:265,_ZN16DoublyLinkedListI9UpdatableI15NormalUpdatableEE5beginEv
FNDA:0,_ZN16DoublyLinkedListI9UpdatableI15NormalUpdatableEE5beginEv
FN:265,_ZN16DoublyLinkedListI9UpdatableI13PotentiometerEE5beginEv
FNDA:0,_ZN16DoublyLinkedListI9UpdatableI13PotentiometerEE5beginEv
FN:265,_ZN16DoublyLinkedListI9UpdatableI10MotorFaderEE5beginEv
FNDA:0,_ZN16DoublyLinkedListI9UpdatableI10MotorFaderEE5beginEv
FN:265,_ZN16DoublyLinkedListI9UpdatableI7DisplayEE5beginEv
FNDA:0,_ZN16DoublyLinkedListI9UpdatableI7DisplayEE5beginEv
FN:266,_ZN16DoublyLinkedListI18MIDIInputElementPCE3endEv
FNDA:0,_ZN16DoublyLinkedListI18MIDIInputElementPCE3endEv
FN:266,_ZN16DoublyLinkedListI20MIDIInputElementNoteE3endEv
FNDA:0,_ZN16DoublyLinkedListI20MIDIInputElementNoteE3endEv
FN:266,_ZN16DoublyLinkedListI14DisplayElementE3endEv
FNDA:0,_ZN16DoublyLinkedListI14DisplayElementE3endEv
FN:266,_ZN16DoublyLinkedListI9UpdatableI15NormalUpdatableEE3endEv
FNDA:0,_ZN16DoublyLinkedListI9UpdatableI15NormalUpdatableEE3endEv
FN:266,_ZN16DoublyLinkedListI31MIDIInputElementChannelPressureE3endEv
FNDA:0,_ZN16DoublyLinkedListI31MIDIInputElementChannelPressureE3endEv
FN:266,_ZN16DoublyLinkedListI9UpdatableI13PotentiometerEE3endEv
FNDA:0,_ZN16DoublyLinkedListI9UpdatableI13PotentiometerEE3endEv
FN:266,_ZN16DoublyLinkedListI9UpdatableI10MotorFaderEE3endEv
FNDA:0,_ZN16DoublyLinkedListI9UpdatableI10MotorFaderEE3endEv
FN:266,_ZN16DoublyLinkedListI18MIDIInputElementCCE3endEv
FNDA:0,_ZN16DoublyLinkedListI18MIDIInputElementCCE3endEv
FN:266,_ZN16DoublyLinkedListI9UpdatableI7DisplayEE3endEv
FNDA:0,_ZN16DoublyLinkedListI9UpdatableI7DisplayEE3endEv
DA:25,0
DA:25,0
DA:25,0
DA:25,0
DA:25,0
DA:25,0
DA:25,0
DA:25,0
DA:25,0
DA:27,0
DA:28,0
DA:27,0
DA:28,0
DA:27,0
DA:28,0
DA:27,0
DA:28,0
DA:27,0
DA:28,0
DA:27,0
DA:28,0
DA:27,0
DA:28,0
DA:27,0
DA:28,0
DA:27,0
DA:28,0
DA:31,0
DA:33,0
DA:31,0
DA:33,0
DA:31,0
DA:33,0
DA:31,0
DA:33,0
DA:31,0
DA:33,0
DA:31,0
DA:33,0
DA:31,0
DA:33,0
DA:31,0
DA:33,0
DA:31,0
DA:33,0
DA:44,0
DA:44,0
DA:44,0
DA:44,0
DA:44,0
DA:44,0
DA:44,0
DA:44,0
DA:44,0
DA:55,0
DA:57,0
DA:58,0
DA:55,0
DA:57,0
DA:58,0
DA:55,0
DA:57,0
DA:58,0
DA:55,0
DA:57,0
DA:58,0
DA:55,0
DA:57,0
DA:58,0
DA:55,0
DA:57,0
DA:58,0
DA:55,0
DA:57,0
DA:58,0
DA:55,0
DA:57,0
DA:58,0
DA:55,0
DA:57,0
DA:58,0
DA:265,0
DA:265,0
DA:265,0
DA:265,0
DA:265,0
DA:265,0
DA:265,0
DA:265,0
DA:265,0
DA:266,0
DA:266,0
DA:266,0
DA:266,0
DA:266,0
DA:266,0
DA:266,0
DA:266,0
DA:266,0
end_of_record
SF:/usr/include/c++/9/bits/exception.h
FN:63,_ZNSt9exceptionC2Ev
FNDA:0,_ZNSt9exceptionC2Ev
DA:63,0
end_of_record
SF:/home/pieter/GitHub/Control-Surface/src/MIDI_Inputs/MIDIInputElement.hpp
FN:40,_ZN16MIDIInputElement10updateWithERK20MIDI_message_matcher
FNDA:0,_ZN16MIDIInputElement10updateWithERK20MIDI_message_matcher
DA:40,0
DA:42,0
DA:43,0
DA:44,0
DA:46,0
DA:47,0
DA:49,0
DA:50,0
DA:51,0
end_of_record
SF:/home/pieter/GitHub/Control-Surface/src/MIDI_Inputs/MIDIInputElementNote.hpp
FN:48,_ZN20MIDIInputElementNote8beginAllEv
FNDA:0,_ZN20MIDIInputElementNote8beginAllEv
FN:59,_ZN20MIDIInputElementNote9updateAllEv
FNDA:0,_ZN20MIDIInputElementNote9updateAllEv
FN:70,_ZN20MIDIInputElementNote8resetAllEv
FNDA:0,_ZN20MIDIInputElementNote8resetAllEv
FN:82,_ZN20MIDIInputElementNote13updateAllWithERK20MIDI_message_matcher
FNDA:0,_ZN20MIDIInputElementNote13updateAllWithERK20MIDI_message_matcher
DA:48,0
DA:50,0
DA:51,0
DA:52,0
DA:59,0
DA:61,0
DA:62,0
DA:63,0
DA:70,0
DA:72,0
DA:73,0
DA:74,0
DA:82,0
DA:83,0
DA:84,0
DA:85,0
end_of_record
TN:
SF:/usr/include/c++/9/iostream
end_of_record
SF:/home/pieter/GitHub/Control-Surface/src/MIDI_Senders/RelativeCCSender.cpp
end_of_record
TN:
SF:/home/pieter/GitHub/Control-Surface/src/MIDI_Parsers/USBMIDI_Parser.cpp
FN:5,_ZN14USBMIDI_Parser5parseEPh
FNDA:23,_ZN14USBMIDI_Parser5parseEPh
DA:5,23
DA:9,23
DA:10,23
DA:12,23
DA:18,3
DA:19,3
DA:20,3
DA:21,3
DA:22,3
DA:26,20
DA:28,8
DA:29,5
DA:31,3
DA:33,0
DA:35,8
DA:36,8
DA:37,8
DA:40,12
DA:42,3
DA:43,0
DA:44,3
DA:46,1
DA:48,2
DA:49,2
DA:50,2
DA:52,0
DA:55,9
DA:57,3
DA:58,1
DA:60,2
DA:62,1
DA:64,2
DA:65,2
DA:66,2
DA:67,2
DA:69,0
DA:72,6
DA:74,5
DA:75,1
DA:77,4
DA:79,2
DA:81,3
DA:82,6
DA:83,3
DA:84,3
DA:85,3
DA:87,0
DA:101,1
DA:102,1
DA:104,0
end_of_record
SF:/home/pieter/GitHub/Control-Surface/src/MIDI_Parsers/USBMIDI_Parser.hpp
FN:25,_ZN14USBMIDI_Parser10startSysExEh
FNDA:7,_ZN14USBMIDI_Parser10startSysExEh
FN:26,_ZN14USBMIDI_Parser8endSysExEh
FNDA:7,_ZN14USBMIDI_Parser8endSysExEh
FN:27,_ZN14USBMIDI_Parser12addSysExByteEhh
FNDA:39,_ZN14USBMIDI_Parser12addSysExByteEhh
FN:30,_ZNK14USBMIDI_Parser14receivingSysExEh
FNDA:12,_ZNK14USBMIDI_Parser14receivingSysExEh
DA:25,7
DA:26,7
DA:27,39
DA:28,39
DA:30,12
DA:31,12
end_of_record
SF:/usr/include/c++/9/iostream
end_of_record
TN:
SF:/usr/include/c++/9/iostream
end_of_record
SF:/home/pieter/GitHub/Control-Surface/src/MIDI_Parsers/MIDI_Parser.cpp
FN:9,_ZN11MIDI_Parser8isStatusEh
FNDA:112,_ZN11MIDI_Parser8isStatusEh
FN:13,_ZN11MIDI_Parser6isDataEh
FNDA:94,_ZN11MIDI_Parser6isDataEh
FN:15,_ZN11MIDI_Parser17getChannelMessageEv
FNDA:28,_ZN11MIDI_Parser17getChannelMessageEv
DA:9,112
DA:10,112
DA:13,94
DA:15,28
end_of_record
TN:
SF:/home/pieter/GitHub/Control-Surface/src/MIDI_Parsers/SysExBuffer.cpp
FN:3,_ZN11SysExBuffer5startEv
FNDA:14,_ZN11SysExBuffer5startEv
FN:9,_ZN11SysExBuffer3endEv
FNDA:14,_ZN11SysExBuffer3endEv
FN:14,_ZN11SysExBuffer3addEh
FNDA:75,_ZN11SysExBuffer3addEh
FN:22,_ZNK11SysExBuffer12hasSpaceLeftEv
FNDA:75,_ZNK11SysExBuffer12hasSpaceLeftEv
FN:29,_ZNK11SysExBuffer11isReceivingEv
FNDA:12,_ZNK11SysExBuffer11isReceivingEv
FN:31,_ZNK11SysExBuffer9getBufferEv
FNDA:34,_ZNK11SysExBuffer9getBufferEv
FN:33,_ZNK11SysExBuffer9getLengthEv
FNDA:34,_ZNK11SysExBuffer9getLengthEv
DA:3,14
DA:4,14
DA:5,14
DA:7,14
DA:9,14
DA:10,14
DA:12,14
DA:14,75
DA:15,75
DA:16,0
DA:17,75
DA:18,75
DA:19,75
DA:22,75
DA:23,75
DA:24,75
DA:26,75
DA:29,12
DA:31,34
DA:33,34
end_of_record
SF:/usr/include/c++/9/iostream
end_of_record
TN:
SF:/home/pieter/GitHub/Control-Surface/src/MIDI_Parsers/SerialMIDI_Parser.cpp
FN:3,_ZN17SerialMIDI_Parser5parseEh
FNDA:112,_ZN17SerialMIDI_Parser5parseEh
DA:3,112
DA:4,112
DA:6,43
DA:8,5
DA:11,38
DA:12,38
DA:13,38
DA:15,38
DA:18,7
DA:19,7
DA:20,7
DA:23,31
DA:25,7
DA:26,7
DA:27,24
DA:36,69
DA:39,69
DA:41,19
DA:42,19
DA:43,19
DA:46,50
DA:48,19
DA:49,19
DA:50,31
DA:52,6
DA:53,6
DA:56,25
DA:58,22
DA:66,75
end_of_record
SF:/usr/include/c++/9/iostream
end_of_record
SF:/home/pieter/GitHub/Control-Surface/src/MIDI_Parsers/SerialMIDI_Parser.hpp
FN:17,_ZN17SerialMIDI_Parser12addSysExByteEh
FNDA:36,_ZN17SerialMIDI_Parser12addSysExByteEh
FN:18,_ZN17SerialMIDI_Parser10startSysExEv
FNDA:7,_ZN17SerialMIDI_Parser10startSysExEv
FN:19,_ZN17SerialMIDI_Parser8endSysExEv
FNDA:7,_ZN17SerialMIDI_Parser8endSysExEv
DA:17,36
DA:18,7
DA:19,7
end_of_record
TN:
SF:/home/pieter/GitHub/Control-Surface/src/MIDI_Interfaces/MIDI_Interface.cpp
FN:3,_ZN14MIDI_InterfaceC2ER11MIDI_Parser
FNDA:33,_ZN14MIDI_InterfaceC2ER11MIDI_Parser
FN:7,_ZN14MIDI_InterfaceD2Ev
FNDA:33,_ZN14MIDI_InterfaceD2Ev
FN:7,_ZN14MIDI_InterfaceD0Ev
FNDA:0,_ZN14MIDI_InterfaceD0Ev
FN:14,_ZN14MIDI_Interface12setAsDefaultEv
FNDA:33,_ZN14MIDI_Interface12setAsDefaultEv
FN:16,_ZN14MIDI_Interface10getDefaultEv
FNDA:99,_ZN14MIDI_Interface10getDefaultEv
FN:20,_ZN14MIDI_Interface6updateEv
FNDA:0,_ZN14MIDI_Interface6updateEv
FN:33,_ZN14MIDI_Interface17dispatchMIDIEventE11MIDI_read_t
FNDA:61,_ZN14MIDI_Interface17dispatchMIDIEventE11MIDI_read_t
FN:44,_ZN14MIDI_Interface17onRealtimeMessageEh
FNDA:2,_ZN14MIDI_Interface17onRealtimeMessageEh
FN:49,_ZN14MIDI_Interface16onChannelMessageEv
FNDA:13,_ZN14MIDI_Interface16onChannelMessageEv
FN:54,_ZN14MIDI_Interface14onSysExMessageEv
FNDA:4,_ZN14MIDI_Interface14onSysExMessageEv
FN:61,_ZN14MIDI_Interface4sendEhhhh
FNDA:0,_ZN14MIDI_Interface4sendEhhhh
FN:65,_ZN14MIDI_Interface4sendEhhh
FNDA:0,_ZN14MIDI_Interface4sendEhhh
FN:69,_ZN14MIDI_Interface6sendCNEhhhhh
FNDA:0,_ZN14MIDI_Interface6sendCNEhhhhh
FN:81,_ZN14MIDI_Interface6sendCNEhhhh
FNDA:0,_ZN14MIDI_Interface6sendCNEhhhh
FN:92,_ZN14MIDI_Interface10sendNoteOnE20MIDICNChannelAddressh
FNDA:16,_ZN14MIDI_Interface10sendNoteOnE20MIDICNChannelAddressh
FN:98,_ZN14MIDI_Interface11sendNoteOffE20MIDICNChannelAddressh
FNDA:16,_ZN14MIDI_Interface11sendNoteOffE20MIDICNChannelAddressh
FN:104,_ZN14MIDI_Interface6sendCCE20MIDICNChannelAddressh
FNDA:34,_ZN14MIDI_Interface6sendCCE20MIDICNChannelAddressh
FN:109,_ZN14MIDI_Interface6sendPBE20MIDICNChannelAddresst
FNDA:0,_ZN14MIDI_Interface6sendPBE20MIDICNChannelAddresst
FN:114,_ZN14MIDI_Interface6sendPBE13MIDICNChannelt
FNDA:0,_ZN14MIDI_Interface6sendPBE13MIDICNChannelt
FN:118,_ZN14MIDI_Interface6sendPCE13MIDICNChannelh
FNDA:0,_ZN14MIDI_Interface6sendPCE13MIDICNChannelh
FN:125,_ZN14MIDI_Interface17getChannelMessageEv
FNDA:13,_ZN14MIDI_Interface17getChannelMessageEv
FN:129,_ZNK14MIDI_Interface15getSysExMessageEv
FNDA:4,_ZNK14MIDI_Interface15getSysExMessageEv
FN:133,_ZNK14MIDI_Interface5getCNEv
FNDA:0,_ZNK14MIDI_Interface5getCNEv
DA:3,33
DA:4,33
DA:5,33
DA:7,0
DA:10,0
DA:7,66
DA:8,33
DA:9,33
DA:10,33
DA:14,33
DA:16,99
DA:20,0
DA:21,0
DA:22,0
DA:23,0
DA:24,0
DA:25,0
DA:26,0
DA:33,61
DA:34,61
DA:35,42
DA:36,13
DA:37,4
DA:38,2
DA:44,2
DA:45,2
DA:46,2
DA:47,2
DA:49,13
DA:50,13
DA:51,13
DA:52,13
DA:54,4
DA:55,4
DA:56,4
DA:57,4
DA:61,0
DA:62,0
DA:63,0
DA:65,0
DA:66,0
DA:67,0
DA:69,0
DA:71,0
DA:72,0
DA:73,0
DA:74,0
DA:75,0
DA:76,0
DA:77,0
DA:78,0
DA:79,0
DA:81,0
DA:82,0
DA:83,0
DA:84,0
DA:85,0
DA:86,0
DA:87,0
DA:88,0
DA:89,0
DA:92,16
DA:94,16
DA:95,16
DA:96,16
DA:97,16
DA:98,16
DA:100,16
DA:101,16
DA:102,16
DA:103,16
DA:104,34
DA:105,34
DA:106,34
DA:107,34
DA:108,34
DA:109,0
DA:110,0
DA:111,0
DA:112,0
DA:113,0
DA:114,0
DA:115,0
DA:116,0
DA:117,0
DA:118,0
DA:119,0
DA:120,0
DA:121,0
DA:125,13
DA:126,13
DA:129,4
DA:130,4
DA:133,0
end_of_record
SF:/usr/include/c++/9/iostream
end_of_record
SF:/home/pieter/GitHub/Control-Surface/src/Def/Channel.hpp
FN:18,_ZN7ChannelC2Ea
FNDA:0,_ZN7ChannelC2Ea
FN:26,_ZNK7Channel6getRawEv
FNDA:0,_ZNK7Channel6getRawEv
DA:18,0
DA:19,0
DA:26,0
end_of_record
SF:/home/pieter/GitHub/Control-Surface/src/MIDI_Interfaces/MIDI_Interface.hpp
FN:51,_ZN14MIDI_Interface5beginEv
FNDA:0,_ZN14MIDI_Interface5beginEv
DA:51,0
end_of_record
SF:/home/pieter/GitHub/Control-Surface/src/Def/MIDICNChannelAddress.hpp
FN:26,_ZNK13MIDICNChannel10getChannelEv
FNDA:0,_ZNK13MIDICNChannel10getChannelEv
FN:32,_ZNK13MIDICNChannel14getCableNumberEv
FNDA:0,_ZNK13MIDICNChannel14getCableNumberEv
FN:106,_ZNK20MIDICNChannelAddress10getAddressEv
FNDA:0,_ZNK20MIDICNChannelAddress10getAddressEv
FN:109,_ZNK20MIDICNChannelAddress10getChannelEv
FNDA:0,_ZNK20MIDICNChannelAddress10getChannelEv
FN:112,_ZNK20MIDICNChannelAddress14getCableNumberEv
FNDA:0,_ZNK20MIDICNChannelAddress14getCableNumberEv
FN:115,_ZNK20MIDICNChannelAddress7isValidEv
FNDA:0,_ZNK20MIDICNChannelAddress7isValidEv
FN:119,_ZNK20MIDICNChannelAddresscvbEv
FNDA:66,_ZNK20MIDICNChannelAddresscvbEv
DA:26,0
DA:32,0
DA:106,0
DA:109,0
DA:112,0
DA:115,0
DA:119,66
end_of_record
TN:
SF:/home/pieter/GitHub/Control-Surface/build/googletest/googletest-src/googletest/include/gtest/gtest-printers.h
FN:259,_ZN16testing_internal26DefaultPrintNonContainerToIiEEvRKT_PSo
FNDA:0,_ZN16testing_internal26DefaultPrintNonContainerToIiEEvRKT_PSo
FN:312,_ZN7testing8internal19FormatForComparisonIihE6FormatB5cxx11ERKi
FNDA:0,_ZN7testing8internal19FormatForComparisonIihE6FormatB5cxx11ERKi
FN:312,_ZN7testing8internal19FormatForComparisonIhiE6FormatB5cxx11ERKh
FNDA:0,_ZN7testing8internal19FormatForComparisonIhiE6FormatB5cxx11ERKh
FN:376,_ZN7testing8internal33FormatForComparisonFailureMessageIihEENSt7__cxx1112basic_stringIcSt11char_traitsIcESaIcEEERKT_RKT0_
FNDA:0,_ZN7testing8internal33FormatForComparisonFailureMessageIihEENSt7__cxx1112basic_stringIcSt11char_traitsIcESaIcEEERKT_RKT0_
FN:376,_ZN7testing8internal33FormatForComparisonFailureMessageIhiEENSt7__cxx1112basic_stringIcSt11char_traitsIcESaIcEEERKT_RKT0_
FNDA:0,_ZN7testing8internal33FormatForComparisonFailureMessageIhiEENSt7__cxx1112basic_stringIcSt11char_traitsIcESaIcEEERKT_RKT0_
FN:465,_ZN7testing8internal14DefaultPrintToIiEEvNS0_15WrapPrinterTypeILNS0_18DefaultPrinterTypeE3EEERKT_PSo
FNDA:0,_ZN7testing8internal14DefaultPrintToIiEEvNS0_15WrapPrinterTypeILNS0_18DefaultPrinterTypeE3EEERKT_PSo
FN:482,_ZN7testing8internal7PrintToIiEEvRKT_PSo
FNDA:0,_ZN7testing8internal7PrintToIiEEvRKT_PSo
FN:669,_ZN7testing8internal16UniversalPrinterIiE5PrintERKiPSo
FNDA:0,_ZN7testing8internal16UniversalPrinterIiE5PrintERKiPSo
FN:669,_ZN7testing8internal16UniversalPrinterIhE5PrintERKhPSo
FNDA:0,_ZN7testing8internal16UniversalPrinterIhE5PrintERKhPSo
FN:795,_ZN7testing8internal21UniversalTersePrinterIiE5PrintERKiPSo
FNDA:0,_ZN7testing8internal21UniversalTersePrinterIiE5PrintERKiPSo
FN:795,_ZN7testing8internal21UniversalTersePrinterIhE5PrintERKhPSo
FNDA:0,_ZN7testing8internal21UniversalTersePrinterIhE5PrintERKhPSo
FN:864,_ZN7testing8internal14UniversalPrintIiEEvRKT_PSo
FNDA:0,_ZN7testing8internal14UniversalPrintIiEEvRKT_PSo
FN:864,_ZN7testing8internal14UniversalPrintIhEEvRKT_PSo
FNDA:0,_ZN7testing8internal14UniversalPrintIhEEvRKT_PSo
FN:914,_ZN7testing13PrintToStringIiEENSt7__cxx1112basic_stringIcSt11char_traitsIcESaIcEEERKT_
FNDA:0,_ZN7testing13PrintToStringIiEENSt7__cxx1112basic_stringIcSt11char_traitsIcESaIcEEERKT_
FN:914,_ZN7testing13PrintToStringIhEENSt7__cxx1112basic_stringIcSt11char_traitsIcESaIcEEERKT_
FNDA:0,_ZN7testing13PrintToStringIhEENSt7__cxx1112basic_stringIcSt11char_traitsIcESaIcEEERKT_
DA:259,0
DA:286,0
DA:287,0
DA:312,0
DA:313,0
DA:312,0
DA:313,0
DA:376,0
DA:378,0
DA:376,0
DA:378,0
DA:465,0
DA:467,0
DA:468,0
DA:482,0
DA:502,0
DA:513,0
DA:669,0
DA:678,0
DA:679,0
DA:669,0
DA:678,0
DA:679,0
DA:795,0
DA:796,0
DA:797,0
DA:795,0
DA:796,0
DA:797,0
DA:864,0
DA:868,0
DA:869,0
DA:864,0
DA:868,0
DA:869,0
DA:914,0
DA:915,0
DA:916,0
DA:917,0
DA:914,0
DA:915,0
DA:916,0
DA:917,0
end_of_record
SF:/home/pieter/GitHub/Control-Surface/src/MIDI_Inputs/MCU/VU.hpp
FN:18,_ZN3IVUC2Eh
FNDA:9,_ZN3IVUC2Eh
FN:40,_ZN3MCU7VU_BaseC2ERK20MIDICNChannelAddressj
FNDA:9,_ZN3MCU7VU_BaseC2ERK20MIDICNChannelAddressj
FN:45,_ZNK3MCU7VU_Base8getValueEv
FNDA:20,_ZNK3MCU7VU_Base8getValueEv
FN:47,_ZNK3MCU7VU_Base11getOverloadEv
FNDA:9,_ZNK3MCU7VU_Base11getOverloadEv
FN:57,_ZN3MCU7VU_Base6updateEv
FNDA:1,_ZN3MCU7VU_Base6updateEv
FN:66,_ZNK3MCU7VU_Base9getTargetERK20MIDI_message_matcher
FNDA:15,_ZNK3MCU7VU_Base9getTargetERK20MIDI_message_matcher
FN:86,_ZN3MCU7VU_Base14setValueHelperEhh
FNDA:8,_ZN3MCU7VU_Base14setValueHelperEhh
FN:94,_ZN3MCU7VU_Base17setOverloadHelperEh
FNDA:4,_ZN3MCU7VU_Base17setOverloadHelperEh
FN:100,_ZN3MCU7VU_Base19clearOverloadHelperEh
FNDA:3,_ZN3MCU7VU_Base19clearOverloadHelperEh
FN:104,_ZN3MCU7VU_Base14getValueHelperEh
FNDA:20,_ZN3MCU7VU_Base14getValueHelperEh
FN:108,_ZN3MCU7VU_Base17getOverloadHelperEh
FNDA:9,_ZN3MCU7VU_Base17getOverloadHelperEh
FN:138,_ZN3MCU2VUC1ERK20MIDICNChannelAddressj
FNDA:5,_ZN3MCU2VUC1ERK20MIDICNChannelAddressj
FN:141,_ZN3MCU2VU10updateImplERK20MIDI_message_matcherRK20MIDICNChannelAddress
FNDA:8,_ZN3MCU2VU10updateImplERK20MIDI_message_matcherRK20MIDICNChannelAddress
FN:153,_ZN3MCU2VU5resetEv
FNDA:0,_ZN3MCU2VU5resetEv
FN:156,_ZN3MCU2VU8decayAllEv
FNDA:1,_ZN3MCU2VU8decayAllEv
FN:161,_ZNK3MCU2VU11getRawValueEv
FNDA:12,_ZNK3MCU2VU11getRawValueEv
FN:163,_ZN3MCU2VU8setValueEh
FNDA:3,_ZN3MCU2VU8setValueEh
FN:164,_ZN3MCU2VU11setOverloadEv
FNDA:3,_ZN3MCU2VU11setOverloadEv
FN:165,_ZN3MCU2VU13clearOverloadEv
FNDA:2,_ZN3MCU2VU13clearOverloadEv
FN:203,_ZN3MCU8Bankable2VUILm2EEC2ERK10BankConfigILh2EERK20MIDICNChannelAddressj
FNDA:1,_ZN3MCU8Bankable2VUILm2EEC2ERK10BankConfigILh2EERK20MIDICNChannelAddressj
FN:203,_ZN3MCU8Bankable2VUILm2EEC1ERK10BankConfigILh2EERK20MIDICNChannelAddressj
FNDA:2,_ZN3MCU8Bankable2VUILm2EEC1ERK10BankConfigILh2EERK20MIDICNChannelAddressj
FN:203,_ZN3MCU8Bankable2VUILm3EEC1ERK10BankConfigILh3EERK20MIDICNChannelAddressj
FNDA:1,_ZN3MCU8Bankable2VUILm3EEC1ERK10BankConfigILh3EERK20MIDICNChannelAddressj
FN:207,_ZN3MCU8Bankable2VUILm3EE10updateImplERK20MIDI_message_matcherRK20MIDICNChannelAddress
FNDA:2,_ZN3MCU8Bankable2VUILm3EE10updateImplERK20MIDI_message_matcherRK20MIDICNChannelAddress
FN:207,_ZN3MCU8Bankable2VUILm2EE10updateImplERK20MIDI_message_matcherRK20MIDICNChannelAddress
FNDA:5,_ZN3MCU8Bankable2VUILm2EE10updateImplERK20MIDI_message_matcherRK20MIDICNChannelAddress
FN:221,_ZNK3MCU8Bankable2VUILm2EE5matchERK20MIDICNChannelAddress
FNDA:5,_ZNK3MCU8Bankable2VUILm2EE5matchERK20MIDICNChannelAddress
FN:221,_ZNK3MCU8Bankable2VUILm3EE5matchERK20MIDICNChannelAddress
FNDA:2,_ZNK3MCU8Bankable2VUILm3EE5matchERK20MIDICNChannelAddress
FN:225,_ZN3MCU8Bankable2VUILm2EE5resetEv
FNDA:0,_ZN3MCU8Bankable2VUILm2EE5resetEv
FN:225,_ZN3MCU8Bankable2VUILm3EE5resetEv
FNDA:0,_ZN3MCU8Bankable2VUILm3EE5resetEv
FN:231,_ZN3MCU8Bankable2VUILm2EE8decayAllEv
FNDA:0,_ZN3MCU8Bankable2VUILm2EE8decayAllEv
FN:231,_ZN3MCU8Bankable2VUILm3EE8decayAllEv
FNDA:0,_ZN3MCU8Bankable2VUILm3EE8decayAllEv
FN:237,_ZNK3MCU8Bankable2VUILm2EE11getRawValueEv
FNDA:14,_ZNK3MCU8Bankable2VUILm2EE11getRawValueEv
FN:237,_ZNK3MCU8Bankable2VUILm3EE11getRawValueEv
FNDA:3,_ZNK3MCU8Bankable2VUILm3EE11getRawValueEv
FN:241,_ZN3MCU8Bankable2VUILm3EE8setValueEhh
FNDA:2,_ZN3MCU8Bankable2VUILm3EE8setValueEhh
FN:241,_ZN3MCU8Bankable2VUILm2EE8setValueEhh
FNDA:3,_ZN3MCU8Bankable2VUILm2EE8setValueEhh
FN:244,_ZN3MCU8Bankable2VUILm2EE11setOverloadEh
FNDA:1,_ZN3MCU8Bankable2VUILm2EE11setOverloadEh
FN:244,_ZN3MCU8Bankable2VUILm3EE11setOverloadEh
FNDA:0,_ZN3MCU8Bankable2VUILm3EE11setOverloadEh
FN:247,_ZN3MCU8Bankable2VUILm2EE13clearOverloadEh
FNDA:1,_ZN3MCU8Bankable2VUILm2EE13clearOverloadEh
FN:247,_ZN3MCU8Bankable2VUILm3EE13clearOverloadEh
FNDA:0,_ZN3MCU8Bankable2VUILm3EE13clearOverloadEh
DA:18,9
DA:40,9
DA:41,9
DA:42,18
DA:45,20
DA:47,9
DA:48,9
DA:57,1
DA:58,1
DA:59,1
DA:60,1
DA:61,1
DA:63,1
DA:66,15
DA:68,15
DA:69,15
DA:70,15
DA:71,15
DA:86,8
DA:87,8
DA:88,8
DA:89,8
DA:94,4
DA:95,4
DA:100,3
DA:101,3
DA:104,20
DA:105,20
DA:108,9
DA:109,9
DA:138,5
DA:139,5
DA:141,8
DA:143,8
DA:144,8
DA:145,2
DA:146,3
DA:147,0
DA:148,3
DA:150,8
DA:153,0
DA:156,1
DA:157,1
DA:158,1
DA:159,1
DA:161,12
DA:163,3
DA:164,3
DA:165,2
DA:203,1
DA:205,1
DA:203,2
DA:205,2
DA:203,1
DA:205,1
DA:207,2
DA:209,2
DA:210,2
DA:211,2
DA:212,2
DA:213,0
DA:214,0
DA:215,0
DA:216,2
DA:218,2
DA:207,5
DA:209,5
DA:210,5
DA:211,5
DA:212,5
DA:213,1
DA:214,1
DA:215,0
DA:216,3
DA:218,5
DA:221,2
DA:222,2
DA:221,5
DA:222,5
DA:225,0
DA:226,0
DA:227,0
DA:228,0
DA:225,0
DA:226,0
DA:227,0
DA:228,0
DA:231,0
DA:232,0
DA:233,0
DA:234,0
DA:235,0
DA:231,0
DA:232,0
DA:233,0
DA:234,0
DA:235,0
DA:237,3
DA:238,3
DA:237,14
DA:238,14
DA:241,2
DA:242,2
DA:243,2
DA:241,3
DA:242,3
DA:243,3
DA:244,0
DA:245,0
DA:246,0
DA:244,1
DA:245,1
DA:246,1
DA:247,0
DA:248,0
DA:249,0
DA:247,1
DA:248,1
DA:249,1
end_of_record
SF:/home/pieter/GitHub/Control-Surface/build/googletest/googletest-src/googlemock/include/gmock/internal/gmock-internal-utils.h
FN:298,_ZN7testing8internal6ExpectEbPKciRKNSt7__cxx1112basic_stringIcSt11char_traitsIcESaIcEEE
FNDA:0,_ZN7testing8internal6ExpectEbPKciRKNSt7__cxx1112basic_stringIcSt11char_traitsIcESaIcEEE
DA:298,0
DA:300,0
DA:301,0
DA:302,0
DA:304,0
end_of_record
SF:/home/pieter/GitHub/Control-Surface/src/MIDI_Inputs/MIDI_message_matcher.hpp
FN:9,_ZN20MIDI_message_matcherC2Eh7Channelhhh
FNDA:0,_ZN20MIDI_message_matcherC2Eh7Channelhhh
DA:9,0
DA:11,0
DA:12,0
end_of_record
SF:/usr/include/c++/9/new
FN:173,_ZnwmPv
FNDA:0,_ZnwmPv
DA:173,0
DA:174,0
end_of_record
SF:/usr/include/c++/9/bits/stl_vector.h
FN:273,_ZNSt12_Vector_baseIPKvSaIS1_EE19_M_get_Tp_allocatorEv
FNDA:0,_ZNSt12_Vector_baseIPKvSaIS1_EE19_M_get_Tp_allocatorEv
FN:273,_ZNSt12_Vector_baseISt10shared_ptrIN7testing8internal15ExpectationBaseEESaIS4_EE19_M_get_Tp_allocatorEv
FNDA:0,_ZNSt12_Vector_baseISt10shared_ptrIN7testing8internal15ExpectationBaseEESaIS4_EE19_M_get_Tp_allocatorEv
FN:277,_ZNKSt12_Vector_baseIPKvSaIS1_EE19_M_get_Tp_allocatorEv
FNDA:0,_ZNKSt12_Vector_baseIPKvSaIS1_EE19_M_get_Tp_allocatorEv
FN:277,_ZNKSt12_Vector_baseISt10shared_ptrIN7testing8internal15ExpectationBaseEESaIS4_EE19_M_get_Tp_allocatorEv
FNDA:0,_ZNKSt12_Vector_baseISt10shared_ptrIN7testing8internal15ExpectationBaseEESaIS4_EE19_M_get_Tp_allocatorEv
FN:340,_ZNSt12_Vector_baseIPKvSaIS1_EE11_M_allocateEm
FNDA:0,_ZNSt12_Vector_baseIPKvSaIS1_EE11_M_allocateEm
FN:340,_ZNSt12_Vector_baseISt10shared_ptrIN7testing8internal15ExpectationBaseEESaIS4_EE11_M_allocateEm
FNDA:0,_ZNSt12_Vector_baseISt10shared_ptrIN7testing8internal15ExpectationBaseEESaIS4_EE11_M_allocateEm
FN:347,_ZNSt12_Vector_baseIPKvSaIS1_EE13_M_deallocateEPS1_m
FNDA:0,_ZNSt12_Vector_baseIPKvSaIS1_EE13_M_deallocateEPS1_m
FN:347,_ZNSt12_Vector_baseISt10shared_ptrIN7testing8internal15ExpectationBaseEESaIS4_EE13_M_deallocateEPS4_m
FNDA:0,_ZNSt12_Vector_baseISt10shared_ptrIN7testing8internal15ExpectationBaseEESaIS4_EE13_M_deallocateEPS4_m
FN:428,_ZNSt6vectorISt10shared_ptrIN7testing8internal15ExpectationBaseEESaIS4_EE19_S_nothrow_relocateESt17integral_constantIbLb1EE
FNDA:0,_ZNSt6vectorISt10shared_ptrIN7testing8internal15ExpectationBaseEESaIS4_EE19_S_nothrow_relocateESt17integral_constantIbLb1EE
FN:428,_ZNSt6vectorIPKvSaIS1_EE19_S_nothrow_relocateESt17integral_constantIbLb1EE
FNDA:0,_ZNSt6vectorIPKvSaIS1_EE19_S_nothrow_relocateESt17integral_constantIbLb1EE
FN:441,_ZNSt6vectorISt10shared_ptrIN7testing8internal15ExpectationBaseEESaIS4_EE15_S_use_relocateEv
FNDA:0,_ZNSt6vectorISt10shared_ptrIN7testing8internal15ExpectationBaseEESaIS4_EE15_S_use_relocateEv
FN:441,_ZNSt6vectorIPKvSaIS1_EE15_S_use_relocateEv
FNDA:0,_ZNSt6vectorIPKvSaIS1_EE15_S_use_relocateEv
FN:450,_ZNSt6vectorIPKvSaIS1_EE14_S_do_relocateEPS1_S4_S4_RS2_St17integral_constantIbLb1EE
FNDA:0,_ZNSt6vectorIPKvSaIS1_EE14_S_do_relocateEPS1_S4_S4_RS2_St17integral_constantIbLb1EE
FN:450,_ZNSt6vectorISt10shared_ptrIN7testing8internal15ExpectationBaseEESaIS4_EE14_S_do_relocateEPS4_S7_S7_RS5_St17integral_constantIbLb1EE
FNDA:0,_ZNSt6vectorISt10shared_ptrIN7testing8internal15ExpectationBaseEESaIS4_EE14_S_do_relocateEPS4_S7_S7_RS5_St17integral_constantIbLb1EE
FN:462,_ZNSt6vectorISt10shared_ptrIN7testing8internal15ExpectationBaseEESaIS4_EE11_S_relocateEPS4_S7_S7_RS5_
FNDA:0,_ZNSt6vectorISt10shared_ptrIN7testing8internal15ExpectationBaseEESaIS4_EE11_S_relocateEPS4_S7_S7_RS5_
FN:462,_ZNSt6vectorIPKvSaIS1_EE11_S_relocateEPS1_S4_S4_RS2_
FNDA:0,_ZNSt6vectorIPKvSaIS1_EE11_S_relocateEPS1_S4_S4_RS2_
FN:808,_ZNSt6vectorISt10shared_ptrIN7testing8internal15ExpectationBaseEESaIS4_EE5beginEv
FNDA:0,_ZNSt6vectorISt10shared_ptrIN7testing8internal15ExpectationBaseEESaIS4_EE5beginEv
FN:808,_ZNSt6vectorIPKvSaIS1_EE5beginEv
FNDA:0,_ZNSt6vectorIPKvSaIS1_EE5beginEv
FN:826,_ZNSt6vectorIPKvSaIS1_EE3endEv
FNDA:0,_ZNSt6vectorIPKvSaIS1_EE3endEv
FN:826,_ZNSt6vectorISt10shared_ptrIN7testing8internal15ExpectationBaseEESaIS4_EE3endEv
FNDA:0,_ZNSt6vectorISt10shared_ptrIN7testing8internal15ExpectationBaseEESaIS4_EE3endEv
FN:915,_ZNKSt6vectorIPKvSaIS1_EE4sizeEv
FNDA:0,_ZNKSt6vectorIPKvSaIS1_EE4sizeEv
FN:915,_ZNKSt6vectorISt10shared_ptrIN7testing8internal15ExpectationBaseEESaIS4_EE4sizeEv
FNDA:0,_ZNKSt6vectorISt10shared_ptrIN7testing8internal15ExpectationBaseEESaIS4_EE4sizeEv
FN:920,_ZNKSt6vectorISt10shared_ptrIN7testing8internal15ExpectationBaseEESaIS4_EE8max_sizeEv
FNDA:0,_ZNKSt6vectorISt10shared_ptrIN7testing8internal15ExpectationBaseEESaIS4_EE8max_sizeEv
FN:920,_ZNKSt6vectorIPKvSaIS1_EE8max_sizeEv
FNDA:0,_ZNKSt6vectorIPKvSaIS1_EE8max_sizeEv
FN:1184,_ZNSt6vectorISt10shared_ptrIN7testing8internal15ExpectationBaseEESaIS4_EE9push_backERKS4_
FNDA:0,_ZNSt6vectorISt10shared_ptrIN7testing8internal15ExpectationBaseEESaIS4_EE9push_backERKS4_
FN:1200,_ZNSt6vectorIPKvSaIS1_EE9push_backEOS1_
FNDA:0,_ZNSt6vectorIPKvSaIS1_EE9push_backEOS1_
FN:1753,_ZNKSt6vectorISt10shared_ptrIN7testing8internal15ExpectationBaseEESaIS4_EE12_M_check_lenEmPKc
FNDA:0,_ZNKSt6vectorISt10shared_ptrIN7testing8internal15ExpectationBaseEESaIS4_EE12_M_check_lenEmPKc
FN:1753,_ZNKSt6vectorIPKvSaIS1_EE12_M_check_lenEmPKc
FNDA:0,_ZNKSt6vectorIPKvSaIS1_EE12_M_check_lenEmPKc
FN:1773,_ZNSt6vectorISt10shared_ptrIN7testing8internal15ExpectationBaseEESaIS4_EE11_S_max_sizeERKS5_
FNDA:0,_ZNSt6vectorISt10shared_ptrIN7testing8internal15ExpectationBaseEESaIS4_EE11_S_max_sizeERKS5_
FN:1773,_ZNSt6vectorIPKvSaIS1_EE11_S_max_sizeERKS2_
FNDA:0,_ZNSt6vectorIPKvSaIS1_EE11_S_max_sizeERKS2_
DA:273,0
DA:274,0
DA:273,0
DA:274,0
DA:277,0
DA:278,0
DA:277,0
DA:278,0
DA:340,0
DA:343,0
DA:340,0
DA:343,0
DA:347,0
DA:350,0
DA:351,0
DA:352,0
DA:347,0
DA:350,0
DA:351,0
DA:352,0
DA:428,0
DA:433,0
DA:428,0
DA:433,0
DA:441,0
DA:446,0
DA:441,0
DA:446,0
DA:450,0
DA:453,0
DA:450,0
DA:453,0
DA:462,0
DA:466,0
DA:462,0
DA:466,0
DA:808,0
DA:809,0
DA:808,0
DA:809,0
DA:826,0
DA:827,0
DA:826,0
DA:827,0
DA:915,0
DA:916,0
DA:915,0
DA:916,0
DA:920,0
DA:921,0
DA:920,0
DA:921,0
DA:1184,0
DA:1186,0
DA:1189,0
DA:1191,0
DA:1195,0
DA:1196,0
DA:1200,0
DA:1201,0
DA:1753,0
DA:1755,0
DA:1756,0
DA:1758,0
DA:1759,0
DA:1753,0
DA:1755,0
DA:1756,0
DA:1758,0
DA:1759,0
DA:1773,0
DA:1778,0
DA:1780,0
DA:1781,0
DA:1773,0
DA:1778,0
DA:1780,0
DA:1781,0
end_of_record
SF:/home/pieter/GitHub/Control-Surface/src/Helpers/Error.hpp
FN:44,_ZN14ErrorExceptionC2ENSt7__cxx1112basic_stringIcSt11char_traitsIcESaIcEEEi
FNDA:0,_ZN14ErrorExceptionC2ENSt7__cxx1112basic_stringIcSt11char_traitsIcESaIcEEEi
FN:46,_ZNK14ErrorException4whatEv
FNDA:0,_ZNK14ErrorException4whatEv
DA:44,0
DA:45,0
DA:46,0
end_of_record
SF:/home/pieter/GitHub/Control-Surface/src/Def/MIDICNChannelAddress.hpp
FN:45,_ZN28RelativeMIDICNChannelAddressC2Eiii
FNDA:0,_ZN28RelativeMIDICNChannelAddressC2Eiii
FN:73,_ZN20MIDICNChannelAddressC2Ei7Channeli
FNDA:0,_ZN20MIDICNChannelAddressC2Ei7Channeli
FN:106,_ZNK20MIDICNChannelAddress10getAddressEv
FNDA:0,_ZNK20MIDICNChannelAddress10getAddressEv
FN:109,_ZNK20MIDICNChannelAddress10getChannelEv
FNDA:0,_ZNK20MIDICNChannelAddress10getChannelEv
FN:112,_ZNK20MIDICNChannelAddress14getCableNumberEv
FNDA:0,_ZNK20MIDICNChannelAddress14getCableNumberEv
FN:115,_ZNK20MIDICNChannelAddress7isValidEv
FNDA:0,_ZNK20MIDICNChannelAddress7isValidEv
DA:45,0
DA:47,0
DA:48,0
DA:73,0
DA:75,0
DA:77,0
DA:78,0
DA:79,0
DA:80,0
DA:106,0
DA:109,0
DA:112,0
DA:115,0
end_of_record
SF:/home/pieter/GitHub/Control-Surface/build/googletest/googletest-src/googlemock/include/gmock/gmock-actions.h
FN:317,_ZN7testing15ActionInterfaceIFmvEEC2Ev
FNDA:0,_ZN7testing15ActionInterfaceIFmvEEC2Ev
FN:318,_ZN7testing15ActionInterfaceIFmvEED0Ev
FNDA:0,_ZN7testing15ActionInterfaceIFmvEED0Ev
FN:318,_ZN7testing15ActionInterfaceIFmvEED2Ev
FNDA:0,_ZN7testing15ActionInterfaceIFmvEED2Ev
FN:346,_ZN7testing6ActionIFmvEE13ActionAdapterclIJEEEmDpOT_
FNDA:0,_ZN7testing6ActionIFmvEE13ActionAdapterclIJEEEmDpOT_
FN:358,_ZN7testing6ActionIFvhhEEC2Ev
FNDA:0,_ZN7testing6ActionIFvhhEEC2Ev
FN:358,_ZN7testing6ActionIFmvEEC2Ev
FNDA:0,_ZN7testing6ActionIFmvEEC2Ev
FN:369,_ZN7testing6ActionIFmvEEC2EPNS_15ActionInterfaceIS1_EE
FNDA:0,_ZN7testing6ActionIFmvEEC2EPNS_15ActionInterfaceIS1_EE
FN:519,_ZN7testing8internal12ReturnActionIiEC2Ei
FNDA:0,_ZN7testing8internal12ReturnActionIiEC2Ei
FN:519,_ZN7testing8internal12ReturnActionIjEC2Ej
FNDA:1,_ZN7testing8internal12ReturnActionIjEC2Ej
FN:524,_ZNK7testing8internal12ReturnActionIiEcvNS_6ActionIT_EEIFmvEEEv
FNDA:0,_ZNK7testing8internal12ReturnActionIiEcvNS_6ActionIT_EEIFmvEEEv
FN:524,_ZNK7testing8internal12ReturnActionIjEcvNS_6ActionIT_EEIFmvEEEv
FNDA:1,_ZNK7testing8internal12ReturnActionIjEcvNS_6ActionIT_EEIFmvEEEv
FN:557,_ZN7testing8internal12ReturnActionIjE4ImplIjFmvEEC2ERKSt10shared_ptrIjE
FNDA:1,_ZN7testing8internal12ReturnActionIjE4ImplIjFmvEEC2ERKSt10shared_ptrIjE
FN:557,_ZN7testing8internal12ReturnActionIiE4ImplIiFmvEEC2ERKSt10shared_ptrIiE
FNDA:0,_ZN7testing8internal12ReturnActionIiE4ImplIiFmvEEC2ERKSt10shared_ptrIiE
FN:561,_ZN7testing8internal12ReturnActionIjE4ImplIjFmvEE7PerformERKSt5tupleIJEE
FNDA:1,_ZN7testing8internal12ReturnActionIjE4ImplIjFmvEE7PerformERKSt5tupleIJEE
FN:561,_ZN7testing8internal12ReturnActionIiE4ImplIiFmvEE7PerformERKSt5tupleIJEE
FNDA:0,_ZN7testing8internal12ReturnActionIiE4ImplIiFmvEE7PerformERKSt5tupleIJEE
FN:724,_ZNK7testing8internal15DoDefaultActioncvNS_6ActionIT_EEIFmvEEEv
FNDA:0,_ZNK7testing8internal15DoDefaultActioncvNS_6ActionIT_EEIFmvEEEv
FN:724,_ZNK7testing8internal15DoDefaultActioncvNS_6ActionIT_EEIFvhhEEEv
FNDA:0,_ZNK7testing8internal15DoDefaultActioncvNS_6ActionIT_EEIFvhhEEEv
FN:1036,_ZN7testing6ReturnIjEENS_8internal12ReturnActionIT_EES3_
FNDA:1,_ZN7testing6ReturnIjEENS_8internal12ReturnActionIT_EES3_
FN:1036,_ZN7testing6ReturnIiEENS_8internal12ReturnActionIT_EES3_
FNDA:0,_ZN7testing6ReturnIiEENS_8internal12ReturnActionIT_EES3_
FN:1074,_ZN7testing9DoDefaultEv
FNDA:0,_ZN7testing9DoDefaultEv
DA:317,0
DA:318,0
DA:318,0
DA:346,0
DA:347,0
DA:348,0
DA:358,0
DA:358,0
DA:369,0
DA:370,0
DA:519,1
DA:519,0
DA:524,1
DA:539,1
DA:524,0
DA:539,0
DA:557,1
DA:558,1
DA:559,1
DA:557,0
DA:558,0
DA:559,0
DA:561,0
DA:561,1
DA:724,0
DA:724,0
DA:1036,1
DA:1037,1
DA:1036,0
DA:1037,0
DA:1074,0
DA:1075,0
end_of_record
SF:/home/pieter/GitHub/Control-Surface/build/googletest/googletest-src/googletest/include/gtest/internal/gtest-internal.h
FN:442,_ZN7testing8internal15TestFactoryBaseD0Ev
FNDA:0,_ZN7testing8internal15TestFactoryBaseD0Ev
FN:442,_ZN7testing8internal15TestFactoryBaseD2Ev
FNDA:0,_ZN7testing8internal15TestFactoryBaseD2Ev
FN:449,_ZN7testing8internal15TestFactoryBaseC2Ev
FNDA:0,_ZN7testing8internal15TestFactoryBaseC2Ev
FN:460,_ZN7testing8internal15TestFactoryImplI19MCUVU_setValue_TestE10CreateTestEv
FNDA:1,_ZN7testing8internal15TestFactoryImplI19MCUVU_setValue_TestE10CreateTestEv
FN:460,_ZN7testing8internal15TestFactoryImplI22MCUVU_setOverload_TestE10CreateTestEv
FNDA:1,_ZN7testing8internal15TestFactoryImplI22MCUVU_setOverload_TestE10CreateTestEv
FN:460,_ZN7testing8internal15TestFactoryImplI24MCUVU_clearOverload_TestE10CreateTestEv
FNDA:1,_ZN7testing8internal15TestFactoryImplI24MCUVU_clearOverload_TestE10CreateTestEv
FN:460,_ZN7testing8internal15TestFactoryImplI35MCUVU_retainValueAfterOverload_TestE10CreateTestEv
FNDA:1,_ZN7testing8internal15TestFactoryImplI35MCUVU_retainValueAfterOverload_TestE10CreateTestEv
FN:460,_ZN7testing8internal15TestFactoryImplI16MCUVU_decay_TestE10CreateTestEv
FNDA:1,_ZN7testing8internal15TestFactoryImplI16MCUVU_decay_TestE10CreateTestEv
FN:460,_ZN7testing8internal15TestFactoryImplI44MCUVUBankable_setValueBankChangeAddress_TestE10CreateTestEv
FNDA:1,_ZN7testing8internal15TestFactoryImplI44MCUVUBankable_setValueBankChangeAddress_TestE10CreateTestEv
FN:460,_ZN7testing8internal15TestFactoryImplI44MCUVUBankable_setValueBankChangeChannel_TestE10CreateTestEv
FNDA:1,_ZN7testing8internal15TestFactoryImplI44MCUVUBankable_setValueBankChangeChannel_TestE10CreateTestEv
FN:460,_ZN7testing8internal15TestFactoryImplI44MCUVUBankable_overloadBankChangeAddress_TestE10CreateTestEv
FNDA:1,_ZN7testing8internal15TestFactoryImplI44MCUVUBankable_overloadBankChangeAddress_TestE10CreateTestEv
FN:460,_ZN7testing8internal15TestFactoryImplI42MCUVULEDsBankable_displayOnBankChange_TestE10CreateTestEv
FNDA:1,_ZN7testing8internal15TestFactoryImplI42MCUVULEDsBankable_displayOnBankChange_TestE10CreateTestEv
FN:481,_ZN7testing8internal12CodeLocationC2ERKNSt7__cxx1112basic_stringIcSt11char_traitsIcESaIcEEEi
FNDA:0,_ZN7testing8internal12CodeLocationC2ERKNSt7__cxx1112basic_stringIcSt11char_traitsIcESaIcEEEi
FN:494,_ZN7testing8internal19GetNotDefaultOrNullEPFvvES2_
FNDA:0,_ZN7testing8internal19GetNotDefaultOrNullEPFvvES2_
FN:509,_ZN7testing8internal16SuiteApiResolverINS_4TestEE19GetSetUpCaseOrSuiteEv
FNDA:0,_ZN7testing8internal16SuiteApiResolverINS_4TestEE19GetSetUpCaseOrSuiteEv
FN:522,_ZN7testing8internal16SuiteApiResolverINS_4TestEE22GetTearDownCaseOrSuiteEv
FNDA:0,_ZN7testing8internal16SuiteApiResolverINS_4TestEE22GetTearDownCaseOrSuiteEv
DA:442,0
DA:442,0
DA:449,0
DA:460,1
DA:460,1
DA:460,1
DA:460,1
DA:460,1
DA:460,1
DA:460,1
DA:460,1
DA:460,1
DA:481,0
DA:482,0
DA:494,0
DA:496,0
DA:509,0
DA:511,0
DA:513,0
DA:515,0
DA:516,0
DA:519,0
DA:522,0
DA:524,0
DA:526,0
DA:528,0
DA:529,0
DA:532,0
end_of_record
SF:/usr/include/c++/9/bits/char_traits.h
FN:329,_ZNSt11char_traitsIcE6lengthEPKc
FNDA:0,_ZNSt11char_traitsIcE6lengthEPKc
FN:361,_ZNSt11char_traitsIcE4copyEPcPKcm
FNDA:0,_ZNSt11char_traitsIcE4copyEPcPKcm
DA:329,0
DA:335,0
DA:361,0
DA:363,0
DA:364,0
DA:365,0
end_of_record
SF:/usr/include/c++/9/bits/unique_ptr.h
FN:75,_ZNKSt14default_deleteINSt7__cxx1112basic_stringIcSt11char_traitsIcESaIcEEEEclEPS5_
FNDA:0,_ZNKSt14default_deleteINSt7__cxx1112basic_stringIcSt11char_traitsIcESaIcEEEEclEPS5_
FN:75,_ZNKSt14default_deleteINSt7__cxx1118basic_stringstreamIcSt11char_traitsIcESaIcEEEEclEPS5_
FNDA:0,_ZNKSt14default_deleteINSt7__cxx1118basic_stringstreamIcSt11char_traitsIcESaIcEEEEclEPS5_
FN:146,_ZNSt15__uniq_ptr_implINSt7__cxx1112basic_stringIcSt11char_traitsIcESaIcEEESt14default_deleteIS5_EEC2Ev
FNDA:0,_ZNSt15__uniq_ptr_implINSt7__cxx1112basic_stringIcSt11char_traitsIcESaIcEEESt14default_deleteIS5_EEC2Ev
FN:153,_ZNSt15__uniq_ptr_implINSt7__cxx1118basic_stringstreamIcSt11char_traitsIcESaIcEEESt14default_deleteIS5_EE6_M_ptrEv
FNDA:0,_ZNSt15__uniq_ptr_implINSt7__cxx1118basic_stringstreamIcSt11char_traitsIcESaIcEEESt14default_deleteIS5_EE6_M_ptrEv
FN:153,_ZNSt15__uniq_ptr_implINSt7__cxx1112basic_stringIcSt11char_traitsIcESaIcEEESt14default_deleteIS5_EE6_M_ptrEv
FNDA:0,_ZNSt15__uniq_ptr_implINSt7__cxx1112basic_stringIcSt11char_traitsIcESaIcEEESt14default_deleteIS5_EE6_M_ptrEv
FN:154,_ZNKSt15__uniq_ptr_implIN7testing8internal11ThreadLocalIPNS0_8SequenceEE18ValueHolderFactoryESt14default_deleteIS6_EE6_M_ptrEv
FNDA:0,_ZNKSt15__uniq_ptr_implIN7testing8internal11ThreadLocalIPNS0_8SequenceEE18ValueHolderFactoryESt14default_deleteIS6_EE6_M_ptrEv
FN:154,_ZNKSt15__uniq_ptr_implINSt7__cxx1112basic_stringIcSt11char_traitsIcESaIcEEESt14default_deleteIS5_EE6_M_ptrEv
FNDA:0,_ZNKSt15__uniq_ptr_implINSt7__cxx1112basic_stringIcSt11char_traitsIcESaIcEEESt14default_deleteIS5_EE6_M_ptrEv
FN:155,_ZNSt15__uniq_ptr_implINSt7__cxx1112basic_stringIcSt11char_traitsIcESaIcEEESt14default_deleteIS5_EE10_M_deleterEv
FNDA:0,_ZNSt15__uniq_ptr_implINSt7__cxx1112basic_stringIcSt11char_traitsIcESaIcEEESt14default_deleteIS5_EE10_M_deleterEv
FN:155,_ZNSt15__uniq_ptr_implINSt7__cxx1118basic_stringstreamIcSt11char_traitsIcESaIcEEESt14default_deleteIS5_EE10_M_deleterEv
FNDA:0,_ZNSt15__uniq_ptr_implINSt7__cxx1118basic_stringstreamIcSt11char_traitsIcESaIcEEESt14default_deleteIS5_EE10_M_deleterEv
FN:196,_ZNSt10unique_ptrINSt7__cxx1112basic_stringIcSt11char_traitsIcESaIcEEESt14default_deleteIS5_EEC2IS7_vEEv
FNDA:0,_ZNSt10unique_ptrINSt7__cxx1112basic_stringIcSt11char_traitsIcESaIcEEESt14default_deleteIS5_EEC2IS7_vEEv
FN:283,_ZNSt10unique_ptrINSt7__cxx1118basic_stringstreamIcSt11char_traitsIcESaIcEEESt14default_deleteIS5_EED2Ev
FNDA:0,_ZNSt10unique_ptrINSt7__cxx1118basic_stringstreamIcSt11char_traitsIcESaIcEEESt14default_deleteIS5_EED2Ev
FN:283,_ZNSt10unique_ptrINSt7__cxx1112basic_stringIcSt11char_traitsIcESaIcEEESt14default_deleteIS5_EED2Ev
FNDA:0,_ZNSt10unique_ptrINSt7__cxx1112basic_stringIcSt11char_traitsIcESaIcEEESt14default_deleteIS5_EED2Ev
FN:349,_ZNKSt10unique_ptrIN7testing8internal11ThreadLocalIPNS0_8SequenceEE18ValueHolderFactoryESt14default_deleteIS6_EEptEv
FNDA:0,_ZNKSt10unique_ptrIN7testing8internal11ThreadLocalIPNS0_8SequenceEE18ValueHolderFactoryESt14default_deleteIS6_EEptEv
FN:349,_ZNKSt10unique_ptrINSt7__cxx1112basic_stringIcSt11char_traitsIcESaIcEEESt14default_deleteIS5_EEptEv
FNDA:0,_ZNKSt10unique_ptrINSt7__cxx1112basic_stringIcSt11char_traitsIcESaIcEEESt14default_deleteIS5_EEptEv
FN:357,_ZNKSt10unique_ptrINSt7__cxx1112basic_stringIcSt11char_traitsIcESaIcEEESt14default_deleteIS5_EE3getEv
FNDA:0,_ZNKSt10unique_ptrINSt7__cxx1112basic_stringIcSt11char_traitsIcESaIcEEESt14default_deleteIS5_EE3getEv
FN:357,_ZNKSt10unique_ptrIN7testing8internal11ThreadLocalIPNS0_8SequenceEE18ValueHolderFactoryESt14default_deleteIS6_EE3getEv
FNDA:0,_ZNKSt10unique_ptrIN7testing8internal11ThreadLocalIPNS0_8SequenceEE18ValueHolderFactoryESt14default_deleteIS6_EE3getEv
FN:362,_ZNSt10unique_ptrINSt7__cxx1118basic_stringstreamIcSt11char_traitsIcESaIcEEESt14default_deleteIS5_EE11get_deleterEv
FNDA:0,_ZNSt10unique_ptrINSt7__cxx1118basic_stringstreamIcSt11char_traitsIcESaIcEEESt14default_deleteIS5_EE11get_deleterEv
FN:362,_ZNSt10unique_ptrINSt7__cxx1112basic_stringIcSt11char_traitsIcESaIcEEESt14default_deleteIS5_EE11get_deleterEv
FNDA:0,_ZNSt10unique_ptrINSt7__cxx1112basic_stringIcSt11char_traitsIcESaIcEEESt14default_deleteIS5_EE11get_deleterEv
DA:75,0
DA:81,0
DA:82,0
DA:75,0
DA:81,0
DA:82,0
DA:146,0
DA:153,0
DA:153,0
DA:154,0
DA:154,0
DA:155,0
DA:155,0
DA:196,0
DA:197,0
DA:198,0
DA:283,0
DA:287,0
DA:288,0
DA:289,0
DA:290,0
DA:291,0
DA:283,0
DA:287,0
DA:288,0
DA:289,0
DA:290,0
DA:291,0
DA:349,0
DA:352,0
DA:349,0
DA:352,0
DA:357,0
DA:358,0
DA:357,0
DA:358,0
DA:362,0
DA:363,0
DA:362,0
DA:363,0
end_of_record
SF:/home/pieter/GitHub/Control-Surface/build/googletest/googletest-src/googlemock/include/gmock/gmock-cardinalities.h
end_of_record
SF:/home/pieter/GitHub/Control-Surface/src/MIDI_Inputs/MIDIInputElement.hpp
FN:22,_ZN16MIDIInputElementC2ERK20MIDICNChannelAddress
FNDA:0,_ZN16MIDIInputElementC2ERK20MIDICNChannelAddress
FN:25,_ZN16MIDIInputElementD0Ev
FNDA:0,_ZN16MIDIInputElementD0Ev
FN:25,_ZN16MIDIInputElementD2Ev
FNDA:0,_ZN16MIDIInputElementD2Ev
FN:28,_ZN16MIDIInputElement5beginEv
FNDA:0,_ZN16MIDIInputElement5beginEv
FN:31,_ZNK16MIDIInputElement7displayEv
FNDA:0,_ZNK16MIDIInputElement7displayEv
FN:37,_ZN16MIDIInputElement6updateEv
FNDA:0,_ZN16MIDIInputElement6updateEv
FN:40,_ZN16MIDIInputElement10updateWithERK20MIDI_message_matcher
FNDA:0,_ZN16MIDIInputElement10updateWithERK20MIDI_message_matcher
FN:66,_ZNK16MIDIInputElement9getTargetERK20MIDI_message_matcher
FNDA:0,_ZNK16MIDIInputElement9getTargetERK20MIDI_message_matcher
FN:76,_ZNK16MIDIInputElement5matchERK20MIDICNChannelAddress
FNDA:0,_ZNK16MIDIInputElement5matchERK20MIDICNChannelAddress
DA:22,0
DA:25,0
DA:25,0
DA:28,0
DA:31,0
DA:37,0
DA:40,0
DA:42,0
DA:43,0
DA:44,0
DA:46,0
DA:47,0
DA:49,0
DA:50,0
DA:51,0
DA:66,0
DA:67,0
DA:76,0
DA:77,0
end_of_record
SF:/home/pieter/GitHub/Control-Surface/ArduinoMock/ArduinoMock.hpp
FN:17,_ZN11ArduinoMock13gmock_pinModeERKN7testing7MatcherIhEES4_
FNDA:0,_ZN11ArduinoMock13gmock_pinModeERKN7testing7MatcherIhEES4_
FN:18,_ZN11ArduinoMock18gmock_digitalWriteERKN7testing7MatcherIhEES4_
FNDA:0,_ZN11ArduinoMock18gmock_digitalWriteERKN7testing7MatcherIhEES4_
FN:23,_ZN11ArduinoMock12gmock_millisEv
FNDA:0,_ZN11ArduinoMock12gmock_millisEv
DA:17,0
DA:18,0
DA:23,0
end_of_record
SF:/home/pieter/GitHub/Control-Surface/src/Hardware/LEDs/LEDs.hpp
FN:23,_ZN4LEDsILh2EEC2ERK5ArrayItLm2EE
FNDA:1,_ZN4LEDsILh2EEC2ERK5ArrayItLm2EE
FN:28,_ZNK4LEDsILh2EE5beginEv
FNDA:1,_ZNK4LEDsILh2EE5beginEv
FN:42,_ZNK4LEDsILh2EE12displayRangeEhh
FNDA:4,_ZNK4LEDsILh2EE12displayRangeEhh
FN:57,_ZNK4LEDsILh2EE10displayDotEh
FNDA:0,_ZNK4LEDsILh2EE10displayDotEh
FN:62,_ZNK4LEDsILh2EE5clearEv
FNDA:0,_ZNK4LEDsILh2EE5clearEv
DA:23,1
DA:28,1
DA:29,3
DA:30,2
DA:31,1
DA:42,4
DA:43,4
DA:44,0
DA:45,11
DA:46,7
DA:47,5
DA:48,1
DA:49,4
DA:57,0
DA:62,0
DA:63,0
DA:64,0
DA:65,0
end_of_record
SF:/home/pieter/GitHub/Control-Surface/build/googletest/googletest-src/googletest/include/gtest/gtest.h
FN:293,_ZN7testing15AssertionResultC2IbEERKT_PNS_8internal8EnableIfIXntsrSt14is_convertibleIS2_S0_E5valueEE4typeE
FNDA:0,_ZN7testing15AssertionResultC2IbEERKT_PNS_8internal8EnableIfIXntsrSt14is_convertibleIS2_S0_E5valueEE4typeE
FN:312,_ZNK7testing15AssertionResultcvbEv
FNDA:0,_ZNK7testing15AssertionResultcvbEv
FN:321,_ZNK7testing15AssertionResult7messageEv
FNDA:0,_ZNK7testing15AssertionResult7messageEv
FN:325,_ZNK7testing15AssertionResult15failure_messageEv
FNDA:0,_ZNK7testing15AssertionResult15failure_messageEv
FN:415,_ZN7testing4Test14SetUpTestSuiteEv
FNDA:0,_ZN7testing4Test14SetUpTestSuiteEv
FN:423,_ZN7testing4Test17TearDownTestSuiteEv
FNDA:0,_ZN7testing4Test17TearDownTestSuiteEv
FN:427,_ZN7testing4Test16TearDownTestCaseEv
FNDA:0,_ZN7testing4Test16TearDownTestCaseEv
FN:428,_ZN7testing4Test13SetUpTestCaseEv
FNDA:0,_ZN7testing4Test13SetUpTestCaseEv
FN:509,_ZN7testing4Test5SetupEv
FNDA:0,_ZN7testing4Test5SetupEv
FN:1484,_ZN7testing8internal18CmpHelperEQFailureIhiEENS_15AssertionResultEPKcS4_RKT_RKT0_
FNDA:0,_ZN7testing8internal18CmpHelperEQFailureIhiEENS_15AssertionResultEPKcS4_RKT_RKT0_
FN:1503,_ZN7testing8internal11CmpHelperEQIhiEENS_15AssertionResultEPKcS4_RKT_RKT0_
FNDA:0,_ZN7testing8internal11CmpHelperEQIhiEENS_15AssertionResultEPKcS4_RKT_RKT0_
FN:1531,_ZN7testing8internal8EqHelper7CompareIhiLPv0EEENS_15AssertionResultEPKcS6_RKT_RKT0_
FNDA:0,_ZN7testing8internal8EqHelper7CompareIhiLPv0EEENS_15AssertionResultEPKcS6_RKT_RKT0_
DA:293,0
DA:299,0
DA:312,0
DA:321,0
DA:322,0
DA:325,0
DA:415,0
DA:423,0
DA:427,0
DA:428,0
DA:509,0
DA:1484,0
DA:1491,0
DA:1503,0
DA:1507,0
DA:1508,0
DA:1511,0
DA:1531,0
DA:1534,0
end_of_record
SF:/home/pieter/GitHub/Control-Surface/build/googletest/googletest-src/googletest/include/gtest/internal/gtest-port.h
FN:980,_ZN7testing8internal8GTestLog9GetStreamEv
FNDA:0,_ZN7testing8internal8GTestLog9GetStreamEv
FN:1086,_ZN7testing8internal13ImplicitCast_ImEET_S2_
FNDA:0,_ZN7testing8internal13ImplicitCast_ImEET_S2_
FN:1135,_ZN7testing8internal27CheckedDowncastToActualTypeINS0_11ThreadLocalIPNS_8SequenceEE11ValueHolderENS0_26ThreadLocalValueHolderBaseEEEPT_PT0_
FNDA:0,_ZN7testing8internal27CheckedDowncastToActualTypeINS0_11ThreadLocalIPNS_8SequenceEE11ValueHolderENS0_26ThreadLocalValueHolderBaseEEEPT_PT0_
FN:1792,_ZNK7testing8internal11ThreadLocalIPNS_8SequenceEE7pointerEv
FNDA:0,_ZNK7testing8internal11ThreadLocalIPNS_8SequenceEE7pointerEv
FN:1793,_ZNK7testing8internal11ThreadLocalIPNS_8SequenceEE3getEv
FNDA:0,_ZNK7testing8internal11ThreadLocalIPNS_8SequenceEE3getEv
FN:1803,_ZN7testing8internal11ThreadLocalIPNS_8SequenceEE11ValueHolder7pointerEv
FNDA:0,_ZN7testing8internal11ThreadLocalIPNS_8SequenceEE11ValueHolder7pointerEv
FN:1819,_ZNK7testing8internal11ThreadLocalIPNS_8SequenceEE16GetOrCreateValueEv
FNDA:0,_ZNK7testing8internal11ThreadLocalIPNS_8SequenceEE16GetOrCreateValueEv
DA:980,0
DA:1086,0
DA:1135,0
DA:1137,0
DA:1143,0
DA:1792,0
DA:1793,0
DA:1803,0
DA:1819,0
DA:1821,0
DA:1822,0
DA:1823,0
DA:1826,0
DA:1827,0
DA:1828,0
DA:1829,0
end_of_record
SF:/home/pieter/GitHub/Control-Surface/src/Helpers/Array.hpp
FN:38,_ZNK5ArrayItLm2EEixEm
FNDA:44,_ZNK5ArrayItLm2EEixEm
FN:48,_ZNK5ArrayItLm2EE5beginEv
FNDA:3,_ZNK5ArrayItLm2EE5beginEv
FN:58,_ZNK5ArrayItLm2EE3endEv
FNDA:3,_ZNK5ArrayItLm2EE3endEv
DA:38,44
DA:48,3
DA:58,3
end_of_record
SF:/home/pieter/GitHub/Control-Surface/src/Hardware/LEDs/DotBarDisplayLEDs.hpp
FN:24,_ZN17DotBarDisplayLEDsILh2EEC2ERK5ArrayItLm2EE
FNDA:1,_ZN17DotBarDisplayLEDsILh2EEC2ERK5ArrayItLm2EE
FN:32,_ZNK17DotBarDisplayLEDsILh2EE7displayEh
FNDA:4,_ZNK17DotBarDisplayLEDsILh2EE7displayEh
DA:24,1
DA:32,4
DA:33,4
DA:34,0
DA:35,4
DA:36,4
DA:38,0
DA:39,4
end_of_record
SF:/home/pieter/GitHub/Control-Surface/src/Def/Channel.hpp
FN:18,_ZN7ChannelC2Ea
FNDA:0,_ZN7ChannelC2Ea
FN:26,_ZNK7Channel6getRawEv
FNDA:0,_ZNK7Channel6getRawEv
FN:44,_ZNK7ChanneleqERKS_
FNDA:0,_ZNK7ChanneleqERKS_
FN:54,_ZN7ChannelpLEa
FNDA:0,_ZN7ChannelpLEa
FN:65,_ZNK7ChannelplEa
FNDA:0,_ZNK7ChannelplEa
DA:18,0
DA:19,0
DA:26,0
DA:44,0
DA:45,0
DA:54,0
DA:55,0
DA:56,0
DA:65,0
DA:66,0
DA:67,0
DA:68,0
end_of_record
SF:/home/pieter/GitHub/Control-Surface/src/Helpers/LinkedList.hpp
FN:25,_ZN16DoublyLinkedListI17BankableMIDIInputILh3EEE18node_iterator_baseIS1_EC2EPS1_
FNDA:4,_ZN16DoublyLinkedListI17BankableMIDIInputILh3EEE18node_iterator_baseIS1_EC2EPS1_
FN:25,_ZN16DoublyLinkedListI17BankableMIDIInputILh2EEE18node_iterator_baseIS1_EC2EPS1_
FNDA:16,_ZN16DoublyLinkedListI17BankableMIDIInputILh2EEE18node_iterator_baseIS1_EC2EPS1_
FN:25,_ZN16DoublyLinkedListI31MIDIInputElementChannelPressureE18node_iterator_baseIS0_EC2EPS0_
FNDA:34,_ZN16DoublyLinkedListI31MIDIInputElementChannelPressureE18node_iterator_baseIS0_EC2EPS0_
FN:27,_ZNK16DoublyLinkedListI17BankableMIDIInputILh2EEE18node_iterator_baseIS1_EneERKS4_
FNDA:16,_ZNK16DoublyLinkedListI17BankableMIDIInputILh2EEE18node_iterator_baseIS1_EneERKS4_
FN:27,_ZNK16DoublyLinkedListI31MIDIInputElementChannelPressureE18node_iterator_baseIS0_EneERKS3_
FNDA:19,_ZNK16DoublyLinkedListI31MIDIInputElementChannelPressureE18node_iterator_baseIS0_EneERKS3_
FN:27,_ZNK16DoublyLinkedListI17BankableMIDIInputILh3EEE18node_iterator_baseIS1_EneERKS4_
FNDA:4,_ZNK16DoublyLinkedListI17BankableMIDIInputILh3EEE18node_iterator_baseIS1_EneERKS4_
FN:31,_ZNK16DoublyLinkedListI17BankableMIDIInputILh2EEE18node_iterator_baseIS1_EdeEv
FNDA:8,_ZNK16DoublyLinkedListI17BankableMIDIInputILh2EEE18node_iterator_baseIS1_EdeEv
FN:31,_ZNK16DoublyLinkedListI31MIDIInputElementChannelPressureE18node_iterator_baseIS0_EdeEv
FNDA:17,_ZNK16DoublyLinkedListI31MIDIInputElementChannelPressureE18node_iterator_baseIS0_EdeEv
FN:31,_ZNK16DoublyLinkedListI17BankableMIDIInputILh3EEE18node_iterator_baseIS1_EdeEv
FNDA:2,_ZNK16DoublyLinkedListI17BankableMIDIInputILh3EEE18node_iterator_baseIS1_EdeEv
FN:44,_ZN16DoublyLinkedListI17BankableMIDIInputILh2EEE13node_iteratorIS1_EC2EPS1_
FNDA:16,_ZN16DoublyLinkedListI17BankableMIDIInputILh2EEE13node_iteratorIS1_EC2EPS1_
FN:44,_ZN16DoublyLinkedListI17BankableMIDIInputILh3EEE13node_iteratorIS1_EC2EPS1_
FNDA:4,_ZN16DoublyLinkedListI17BankableMIDIInputILh3EEE13node_iteratorIS1_EC2EPS1_
FN:44,_ZN16DoublyLinkedListI31MIDIInputElementChannelPressureE13node_iteratorIS0_EC2EPS0_
FNDA:34,_ZN16DoublyLinkedListI31MIDIInputElementChannelPressureE13node_iteratorIS0_EC2EPS0_
FN:55,_ZN16DoublyLinkedListI17BankableMIDIInputILh3EEE13node_iteratorIS1_EppEv
FNDA:2,_ZN16DoublyLinkedListI17BankableMIDIInputILh3EEE13node_iteratorIS1_EppEv
FN:55,_ZN16DoublyLinkedListI31MIDIInputElementChannelPressureE13node_iteratorIS0_EppEv
FNDA:2,_ZN16DoublyLinkedListI31MIDIInputElementChannelPressureE13node_iteratorIS0_EppEv
FN:55,_ZN16DoublyLinkedListI17BankableMIDIInputILh2EEE13node_iteratorIS1_EppEv
FNDA:8,_ZN16DoublyLinkedListI17BankableMIDIInputILh2EEE13node_iteratorIS1_EppEv
FN:109,_ZN16DoublyLinkedListI31MIDIInputElementChannelPressureE6appendEPS0_
FNDA:9,_ZN16DoublyLinkedListI31MIDIInputElementChannelPressureE6appendEPS0_
FN:109,_ZN16DoublyLinkedListI17BankableMIDIInputILh2EEE6appendEPS1_
FNDA:3,_ZN16DoublyLinkedListI17BankableMIDIInputILh2EEE6appendEPS1_
FN:109,_ZN16DoublyLinkedListI17BankableMIDIInputILh3EEE6appendEPS1_
FNDA:1,_ZN16DoublyLinkedListI17BankableMIDIInputILh3EEE6appendEPS1_
FN:192,_ZN16DoublyLinkedListI17BankableMIDIInputILh2EEE6removeEPS1_
FNDA:3,_ZN16DoublyLinkedListI17BankableMIDIInputILh2EEE6removeEPS1_
FN:192,_ZN16DoublyLinkedListI17BankableMIDIInputILh3EEE6removeEPS1_
FNDA:1,_ZN16DoublyLinkedListI17BankableMIDIInputILh3EEE6removeEPS1_
FN:192,_ZN16DoublyLinkedListI31MIDIInputElementChannelPressureE6removeEPS0_
FNDA:9,_ZN16DoublyLinkedListI31MIDIInputElementChannelPressureE6removeEPS0_
FN:224,_ZN16DoublyLinkedListI31MIDIInputElementChannelPressureE8moveDownEPS0_
FNDA:15,_ZN16DoublyLinkedListI31MIDIInputElementChannelPressureE8moveDownEPS0_
FN:265,_ZN16DoublyLinkedListI17BankableMIDIInputILh2EEE5beginEv
FNDA:8,_ZN16DoublyLinkedListI17BankableMIDIInputILh2EEE5beginEv
FN:265,_ZN16DoublyLinkedListI17BankableMIDIInputILh3EEE5beginEv
FNDA:2,_ZN16DoublyLinkedListI17BankableMIDIInputILh3EEE5beginEv
FN:265,_ZN16DoublyLinkedListI31MIDIInputElementChannelPressureE5beginEv
FNDA:17,_ZN16DoublyLinkedListI31MIDIInputElementChannelPressureE5beginEv
FN:266,_ZN16DoublyLinkedListI17BankableMIDIInputILh2EEE3endEv
FNDA:8,_ZN16DoublyLinkedListI17BankableMIDIInputILh2EEE3endEv
FN:266,_ZN16DoublyLinkedListI17BankableMIDIInputILh3EEE3endEv
FNDA:2,_ZN16DoublyLinkedListI17BankableMIDIInputILh3EEE3endEv
FN:266,_ZN16DoublyLinkedListI31MIDIInputElementChannelPressureE3endEv
FNDA:17,_ZN16DoublyLinkedListI31MIDIInputElementChannelPressureE3endEv
FN:299,_ZN14DoublyLinkableI31MIDIInputElementChannelPressureED2Ev
FNDA:9,_ZN14DoublyLinkableI31MIDIInputElementChannelPressureED2Ev
FN:299,_ZN14DoublyLinkableI17BankableMIDIInputILh3EEED2Ev
FNDA:1,_ZN14DoublyLinkableI17BankableMIDIInputILh3EEED2Ev
FN:299,_ZN14DoublyLinkableI31MIDIInputElementChannelPressureED0Ev
FNDA:0,_ZN14DoublyLinkableI31MIDIInputElementChannelPressureED0Ev
FN:299,_ZN14DoublyLinkableI17BankableMIDIInputILh2EEED2Ev
FNDA:3,_ZN14DoublyLinkableI17BankableMIDIInputILh2EEED2Ev
FN:299,_ZN14DoublyLinkableI17BankableMIDIInputILh2EEED0Ev
FNDA:0,_ZN14DoublyLinkableI17BankableMIDIInputILh2EEED0Ev
FN:299,_ZN14DoublyLinkableI17BankableMIDIInputILh3EEED0Ev
FNDA:0,_ZN14DoublyLinkableI17BankableMIDIInputILh3EEED0Ev
DA:25,4
DA:25,16
DA:25,34
DA:27,4
DA:28,4
DA:27,16
DA:28,16
DA:27,19
DA:28,19
DA:31,2
DA:33,2
DA:31,8
DA:33,8
DA:31,17
DA:33,17
DA:44,4
DA:44,16
DA:44,34
DA:55,2
DA:57,2
DA:58,2
DA:55,8
DA:57,8
DA:58,8
DA:55,2
DA:57,2
DA:58,2
DA:109,1
DA:110,1
DA:111,1
DA:112,1
DA:113,1
DA:114,0
DA:115,1
DA:116,1
DA:117,1
DA:109,3
DA:110,3
DA:111,3
DA:112,3
DA:113,3
DA:114,0
DA:115,3
DA:116,3
DA:117,3
DA:109,9
DA:110,9
DA:111,9
DA:112,9
DA:113,9
DA:114,0
DA:115,9
DA:116,9
DA:117,9
DA:192,1
DA:193,1
DA:194,0
DA:195,1
DA:196,1
DA:197,1
DA:198,0
DA:199,1
DA:200,1
DA:201,1
DA:202,1
DA:203,1
DA:192,3
DA:193,3
DA:194,0
DA:195,3
DA:196,3
DA:197,3
DA:198,0
DA:199,3
DA:200,3
DA:201,3
DA:202,3
DA:203,3
DA:192,9
DA:193,9
DA:194,0
DA:195,9
DA:196,9
DA:197,9
DA:198,0
DA:199,9
DA:200,9
DA:201,9
DA:202,9
DA:203,9
DA:224,15
DA:225,15
DA:226,15
DA:227,15
DA:228,0
DA:229,0
DA:231,0
DA:232,0
DA:234,0
DA:235,0
DA:236,0
DA:237,0
DA:238,0
DA:239,0
DA:240,0
DA:242,0
DA:265,2
DA:265,8
DA:265,17
DA:266,2
DA:266,8
DA:266,17
DA:299,0
DA:299,1
DA:299,0
DA:299,3
DA:299,0
DA:299,9
end_of_record
SF:/usr/include/c++/9/bits/exception.h
FN:63,_ZNSt9exceptionC2Ev
FNDA:0,_ZNSt9exceptionC2Ev
DA:63,0
end_of_record
SF:/usr/include/c++/9/bits/basic_string.h
FN:243,_ZNSt7__cxx1112basic_stringIcSt11char_traitsIcESaIcEE16_M_construct_auxIPcEEvT_S7_St12__false_type
FNDA:0,_ZNSt7__cxx1112basic_stringIcSt11char_traitsIcESaIcEE16_M_construct_auxIPcEEvT_S7_St12__false_type
FN:243,_ZNSt7__cxx1112basic_stringIcSt11char_traitsIcESaIcEE16_M_construct_auxIPKcEEvT_S8_St12__false_type
FNDA:0,_ZNSt7__cxx1112basic_stringIcSt11char_traitsIcESaIcEE16_M_construct_auxIPKcEEvT_S8_St12__false_type
FN:263,_ZNSt7__cxx1112basic_stringIcSt11char_traitsIcESaIcEE12_M_constructIPcEEvT_S7_
FNDA:0,_ZNSt7__cxx1112basic_stringIcSt11char_traitsIcESaIcEE12_M_constructIPcEEvT_S7_
FN:263,_ZNSt7__cxx1112basic_stringIcSt11char_traitsIcESaIcEE12_M_constructIPKcEEvT_S8_
FNDA:0,_ZNSt7__cxx1112basic_stringIcSt11char_traitsIcESaIcEE12_M_constructIPKcEEvT_S8_
FN:6057,_ZStplIcSt11char_traitsIcESaIcEENSt7__cxx1112basic_stringIT_T0_T1_EERKS8_PKS5_
FNDA:0,_ZStplIcSt11char_traitsIcESaIcEENSt7__cxx1112basic_stringIT_T0_T1_EERKS8_PKS5_
FN:6121,_ZStplIcSt11char_traitsIcESaIcEENSt7__cxx1112basic_stringIT_T0_T1_EEOS8_PKS5_
FNDA:0,_ZStplIcSt11char_traitsIcESaIcEENSt7__cxx1112basic_stringIT_T0_T1_EEOS8_PKS5_
DA:243,0
DA:247,0
DA:248,0
DA:243,0
DA:247,0
DA:248,0
DA:263,0
DA:266,0
DA:267,0
DA:263,0
DA:266,0
DA:267,0
DA:6057,0
DA:6060,0
DA:6061,0
DA:6062,0
DA:6121,0
DA:6123,0
end_of_record
SF:/usr/include/c++/9/bits/std_function.h
FN:87,_ZNSt9_Any_data9_M_accessEv
FNDA:0,_ZNSt9_Any_data9_M_accessEv
FN:88,_ZNKSt9_Any_data9_M_accessEv
FNDA:0,_ZNKSt9_Any_data9_M_accessEv
FN:92,_ZNSt9_Any_data9_M_accessIPKSt9type_infoEERT_v
FNDA:0,_ZNSt9_Any_data9_M_accessIPKSt9type_infoEERT_v
FN:92,_ZNSt9_Any_data9_M_accessIPN7testing6ActionIFmvEE13ActionAdapterEEERT_v
FNDA:0,_ZNSt9_Any_data9_M_accessIPN7testing6ActionIFmvEE13ActionAdapterEEERT_v
FN:97,_ZNKSt9_Any_data9_M_accessIPKN7testing6ActionIFmvEE13ActionAdapterEEERKT_v
FNDA:0,_ZNKSt9_Any_data9_M_accessIPKN7testing6ActionIFmvEE13ActionAdapterEEERKT_v
FN:97,_ZNKSt9_Any_data9_M_accessIPN7testing6ActionIFmvEE13ActionAdapterEEERKT_v
FNDA:0,_ZNKSt9_Any_data9_M_accessIPN7testing6ActionIFmvEE13ActionAdapterEEERKT_v
FN:151,_ZNSt14_Function_base13_Base_managerIN7testing6ActionIFmvEE13ActionAdapterEE14_M_get_pointerERKSt9_Any_data
FNDA:0,_ZNSt14_Function_base13_Base_managerIN7testing6ActionIFmvEE13ActionAdapterEE14_M_get_pointerERKSt9_Any_data
FN:173,_ZNSt14_Function_base13_Base_managerIN7testing6ActionIFmvEE13ActionAdapterEE8_M_cloneERSt9_Any_dataRKS7_St17integral_constantIbLb0EE
FNDA:0,_ZNSt14_Function_base13_Base_managerIN7testing6ActionIFmvEE13ActionAdapterEE8_M_cloneERSt9_Any_dataRKS7_St17integral_constantIbLb0EE
FN:189,_ZNSt14_Function_base13_Base_managerIN7testing6ActionIFmvEE13ActionAdapterEE10_M_destroyERSt9_Any_dataSt17integral_constantIbLb0EE
FNDA:0,_ZNSt14_Function_base13_Base_managerIN7testing6ActionIFmvEE13ActionAdapterEE10_M_destroyERSt9_Any_dataSt17integral_constantIbLb0EE
FN:196,_ZNSt14_Function_base13_Base_managerIN7testing6ActionIFmvEE13ActionAdapterEE10_M_managerERSt9_Any_dataRKS7_St18_Manager_operation
FNDA:0,_ZNSt14_Function_base13_Base_managerIN7testing6ActionIFmvEE13ActionAdapterEE10_M_managerERSt9_Any_dataRKS7_St18_Manager_operation
FN:222,_ZNSt14_Function_base13_Base_managerIN7testing6ActionIFmvEE13ActionAdapterEE15_M_init_functorERSt9_Any_dataOS5_
FNDA:0,_ZNSt14_Function_base13_Base_managerIN7testing6ActionIFmvEE13ActionAdapterEE15_M_init_functorERSt9_Any_dataOS5_
FN:242,_ZNSt14_Function_base13_Base_managerIN7testing6ActionIFmvEE13ActionAdapterEE21_M_not_empty_functionIS5_EEbRKT_
FNDA:0,_ZNSt14_Function_base13_Base_managerIN7testing6ActionIFmvEE13ActionAdapterEE21_M_not_empty_functionIS5_EEbRKT_
FN:251,_ZNSt14_Function_base13_Base_managerIN7testing6ActionIFmvEE13ActionAdapterEE15_M_init_functorERSt9_Any_dataOS5_St17integral_constantIbLb0EE
FNDA:0,_ZNSt14_Function_base13_Base_managerIN7testing6ActionIFmvEE13ActionAdapterEE15_M_init_functorERSt9_Any_dataOS5_St17integral_constantIbLb0EE
FN:255,_ZNSt14_Function_baseC2Ev
FNDA:0,_ZNSt14_Function_baseC2Ev
FN:257,_ZNSt14_Function_baseD2Ev
FNDA:0,_ZNSt14_Function_baseD2Ev
FN:263,_ZNKSt14_Function_base8_M_emptyEv
FNDA:0,_ZNKSt14_Function_base8_M_emptyEv
FN:283,_ZNSt17_Function_handlerIFmvEN7testing6ActionIS0_E13ActionAdapterEE9_M_invokeERKSt9_Any_data
FNDA:0,_ZNSt17_Function_handlerIFmvEN7testing6ActionIS0_E13ActionAdapterEE9_M_invokeERKSt9_Any_data
FN:398,_ZNSt8functionIFmvEEC2Ev
FNDA:0,_ZNSt8functionIFmvEEC2Ev
FN:398,_ZNSt8functionIFvhhEEC2Ev
FNDA:0,_ZNSt8functionIFvhhEEC2Ev
FN:566,_ZNKSt8functionIFmvEEcvbEv
FNDA:0,_ZNKSt8functionIFmvEEcvbEv
FN:655,_ZNSt8functionIFmvEEC2ERKS1_
FNDA:0,_ZNSt8functionIFmvEEC2ERKS1_
FN:669,_ZNSt8functionIFmvEEC2IN7testing6ActionIS0_E13ActionAdapterEvvEET_
FNDA:0,_ZNSt8functionIFmvEEC2IN7testing6ActionIS0_E13ActionAdapterEvvEET_
DA:87,0
DA:88,0
DA:92,0
DA:93,0
DA:92,0
DA:93,0
DA:97,0
DA:98,0
DA:97,0
DA:98,0
DA:151,0
DA:159,0
DA:173,0
DA:175,0
DA:176,0
DA:177,0
DA:189,0
DA:191,0
DA:192,0
DA:196,0
DA:199,0
DA:202,0
DA:203,0
DA:204,0
DA:206,0
DA:207,0
DA:208,0
DA:210,0
DA:211,0
DA:212,0
DA:214,0
DA:215,0
DA:216,0
DA:218,0
DA:222,0
DA:223,0
DA:242,0
DA:243,0
DA:251,0
DA:252,0
DA:255,0
DA:257,0
DA:258,0
DA:259,0
DA:260,0
DA:261,0
DA:263,0
DA:283,0
DA:285,0
DA:286,0
DA:398,0
DA:399,0
DA:398,0
DA:399,0
DA:566,0
DA:567,0
DA:655,0
DA:657,0
DA:659,0
DA:661,0
DA:662,0
DA:663,0
DA:665,0
DA:669,0
DA:671,0
DA:675,0
DA:677,0
DA:678,0
DA:679,0
DA:681,0
end_of_record
SF:/usr/include/c++/9/bits/stl_iterator.h
FN:806,_ZN9__gnu_cxx17__normal_iteratorIPPKvSt6vectorIS2_SaIS2_EEEC2ERKS3_
FNDA:0,_ZN9__gnu_cxx17__normal_iteratorIPPKvSt6vectorIS2_SaIS2_EEEC2ERKS3_
FN:806,_ZN9__gnu_cxx17__normal_iteratorIPSt10shared_ptrIN7testing8internal15ExpectationBaseEESt6vectorIS5_SaIS5_EEEC2ERKS6_
FNDA:0,_ZN9__gnu_cxx17__normal_iteratorIPSt10shared_ptrIN7testing8internal15ExpectationBaseEESt6vectorIS5_SaIS5_EEEC2ERKS6_
FN:811,_ZN9__gnu_cxx17__normal_iteratorIPKPKvSt6vectorIS2_SaIS2_EEEC2IPS2_EERKNS0_IT_NS_11__enable_ifIXsrSt10__are_sameISB_SA_E7__valueES7_E6__typeEEE
FNDA:0,_ZN9__gnu_cxx17__normal_iteratorIPKPKvSt6vectorIS2_SaIS2_EEEC2IPS2_EERKNS0_IT_NS_11__enable_ifIXsrSt10__are_sameISB_SA_E7__valueES7_E6__typeEEE
FN:819,_ZNK9__gnu_cxx17__normal_iteratorIPKPKvSt6vectorIS2_SaIS2_EEEdeEv
FNDA:0,_ZNK9__gnu_cxx17__normal_iteratorIPKPKvSt6vectorIS2_SaIS2_EEEdeEv
FN:827,_ZN9__gnu_cxx17__normal_iteratorIPKPKvSt6vectorIS2_SaIS2_EEEppEv
FNDA:0,_ZN9__gnu_cxx17__normal_iteratorIPKPKvSt6vectorIS2_SaIS2_EEEppEv
FN:871,_ZNK9__gnu_cxx17__normal_iteratorIPPKvSt6vectorIS2_SaIS2_EEE4baseEv
FNDA:0,_ZNK9__gnu_cxx17__normal_iteratorIPPKvSt6vectorIS2_SaIS2_EEE4baseEv
FN:871,_ZNK9__gnu_cxx17__normal_iteratorIPKPKvSt6vectorIS2_SaIS2_EEE4baseEv
FNDA:0,_ZNK9__gnu_cxx17__normal_iteratorIPKPKvSt6vectorIS2_SaIS2_EEE4baseEv
FN:871,_ZNK9__gnu_cxx17__normal_iteratorIPSt10shared_ptrIN7testing8internal15ExpectationBaseEESt6vectorIS5_SaIS5_EEE4baseEv
FNDA:0,_ZNK9__gnu_cxx17__normal_iteratorIPSt10shared_ptrIN7testing8internal15ExpectationBaseEESt6vectorIS5_SaIS5_EEE4baseEv
FN:900,_ZN9__gnu_cxxneIPKPKvPS2_St6vectorIS2_SaIS2_EEEEbRKNS_17__normal_iteratorIT_T1_EERKNS9_IT0_SB_EE
FNDA:0,_ZN9__gnu_cxxneIPKPKvPS2_St6vectorIS2_SaIS2_EEEEbRKNS_17__normal_iteratorIT_T1_EERKNS9_IT0_SB_EE
FN:989,_ZN9__gnu_cxxmiIPPKvSt6vectorIS2_SaIS2_EEEENS_17__normal_iteratorIT_T0_E15difference_typeERKSA_SD_
FNDA:0,_ZN9__gnu_cxxmiIPPKvSt6vectorIS2_SaIS2_EEEENS_17__normal_iteratorIT_T0_E15difference_typeERKSA_SD_
FN:989,_ZN9__gnu_cxxmiIPSt10shared_ptrIN7testing8internal15ExpectationBaseEESt6vectorIS5_SaIS5_EEEENS_17__normal_iteratorIT_T0_E15difference_typeERKSD_SG_
FNDA:0,_ZN9__gnu_cxxmiIPSt10shared_ptrIN7testing8internal15ExpectationBaseEESt6vectorIS5_SaIS5_EEEENS_17__normal_iteratorIT_T0_E15difference_typeERKSD_SG_
FN:1057,_ZNSt13move_iteratorIPSt10shared_ptrIN7testing8internal15ExpectationBaseEEEC2ES5_
FNDA:0,_ZNSt13move_iteratorIPSt10shared_ptrIN7testing8internal15ExpectationBaseEEEC2ES5_
FN:1057,_ZNSt13move_iteratorIPPKvEC2ES2_
FNDA:0,_ZNSt13move_iteratorIPPKvEC2ES2_
FN:1066,_ZNKSt13move_iteratorIPPKvE4baseEv
FNDA:0,_ZNKSt13move_iteratorIPPKvE4baseEv
FN:1066,_ZNKSt13move_iteratorIPSt10shared_ptrIN7testing8internal15ExpectationBaseEEE4baseEv
FNDA:0,_ZNKSt13move_iteratorIPSt10shared_ptrIN7testing8internal15ExpectationBaseEEE4baseEv
FN:1070,_ZNKSt13move_iteratorIPSt10shared_ptrIN7testing8internal15ExpectationBaseEEEdeEv
FNDA:0,_ZNKSt13move_iteratorIPSt10shared_ptrIN7testing8internal15ExpectationBaseEEEdeEv
FN:1078,_ZNSt13move_iteratorIPSt10shared_ptrIN7testing8internal15ExpectationBaseEEEppEv
FNDA:0,_ZNSt13move_iteratorIPSt10shared_ptrIN7testing8internal15ExpectationBaseEEEppEv
FN:1145,_ZSteqIPSt10shared_ptrIN7testing8internal15ExpectationBaseEEEbRKSt13move_iteratorIT_ESA_
FNDA:0,_ZSteqIPSt10shared_ptrIN7testing8internal15ExpectationBaseEEEbRKSt13move_iteratorIT_ESA_
FN:1157,_ZStneIPSt10shared_ptrIN7testing8internal15ExpectationBaseEEEbRKSt13move_iteratorIT_ESA_
FNDA:0,_ZStneIPSt10shared_ptrIN7testing8internal15ExpectationBaseEEEbRKSt13move_iteratorIT_ESA_
FN:1242,_ZSt32__make_move_if_noexcept_iteratorISt10shared_ptrIN7testing8internal15ExpectationBaseEESt13move_iteratorIPS4_EET0_PT_
FNDA:0,_ZSt32__make_move_if_noexcept_iteratorISt10shared_ptrIN7testing8internal15ExpectationBaseEESt13move_iteratorIPS4_EET0_PT_
FN:1242,_ZSt32__make_move_if_noexcept_iteratorIPKvSt13move_iteratorIPS1_EET0_PT_
FNDA:0,_ZSt32__make_move_if_noexcept_iteratorIPKvSt13move_iteratorIPS1_EET0_PT_
FN:1262,_ZSt12__miter_baseIPPKvEDTcl12__miter_basecldtfp_4baseEEESt13move_iteratorIT_E
FNDA:0,_ZSt12__miter_baseIPPKvEDTcl12__miter_basecldtfp_4baseEEESt13move_iteratorIT_E
DA:806,0
DA:807,0
DA:806,0
DA:807,0
DA:811,0
DA:815,0
DA:819,0
DA:820,0
DA:827,0
DA:829,0
DA:830,0
DA:871,0
DA:872,0
DA:871,0
DA:872,0
DA:871,0
DA:872,0
DA:900,0
DA:903,0
DA:989,0
DA:992,0
DA:989,0
DA:992,0
DA:1057,0
DA:1058,0
DA:1057,0
DA:1058,0
DA:1066,0
DA:1067,0
DA:1066,0
DA:1067,0
DA:1070,0
DA:1071,0
DA:1078,0
DA:1080,0
DA:1081,0
DA:1145,0
DA:1147,0
DA:1157,0
DA:1159,0
DA:1242,0
DA:1243,0
DA:1242,0
DA:1243,0
DA:1262,0
DA:1264,0
end_of_record
SF:/usr/include/c++/9/bits/stl_iterator_base_funcs.h
FN:98,_ZSt10__distanceIPcENSt15iterator_traitsIT_E15difference_typeES2_S2_St26random_access_iterator_tag
FNDA:0,_ZSt10__distanceIPcENSt15iterator_traitsIT_E15difference_typeES2_S2_St26random_access_iterator_tag
FN:98,_ZSt10__distanceIPKcENSt15iterator_traitsIT_E15difference_typeES3_S3_St26random_access_iterator_tag
FNDA:0,_ZSt10__distanceIPKcENSt15iterator_traitsIT_E15difference_typeES3_S3_St26random_access_iterator_tag
FN:138,_ZSt8distanceIPcENSt15iterator_traitsIT_E15difference_typeES2_S2_
FNDA:0,_ZSt8distanceIPcENSt15iterator_traitsIT_E15difference_typeES2_S2_
FN:138,_ZSt8distanceIPKcENSt15iterator_traitsIT_E15difference_typeES3_S3_
FNDA:0,_ZSt8distanceIPKcENSt15iterator_traitsIT_E15difference_typeES3_S3_
DA:98,0
DA:104,0
DA:98,0
DA:104,0
DA:138,0
DA:141,0
DA:142,0
DA:138,0
DA:141,0
DA:142,0
end_of_record
SF:/home/pieter/GitHub/Control-Surface/build/googletest/googletest-src/googlemock/include/gmock/gmock-spec-builders.h
FN:752,_ZNK7testing8internal15ExpectationBase18ExpectSpecPropertyEbRKNSt7__cxx1112basic_stringIcSt11char_traitsIcESaIcEEE
FNDA:0,_ZNK7testing8internal15ExpectationBase18ExpectSpecPropertyEbRKNSt7__cxx1112basic_stringIcSt11char_traitsIcESaIcEEE
FN:763,_ZNK7testing8internal15ExpectationBase21cardinality_specifiedEv
FNDA:0,_ZNK7testing8internal15ExpectationBase21cardinality_specifiedEv
FN:766,_ZN7testing8internal15ExpectationBase15set_cardinalityERKNS_11CardinalityE
FNDA:0,_ZN7testing8internal15ExpectationBase15set_cardinalityERKNS_11CardinalityE
FN:890,_ZN7testing8internal16TypedExpectationIFvhhEEC2EPNS0_14FunctionMockerIS2_EEPKciRKNSt7__cxx1112basic_stringIcSt11char_traitsIcESaIcEEERKSt5tupleIJNS_7MatcherIhEESJ_EE
FNDA:0,_ZN7testing8internal16TypedExpectationIFvhhEEC2EPNS0_14FunctionMockerIS2_EEPKciRKNSt7__cxx1112basic_stringIcSt11char_traitsIcESaIcEEERKSt5tupleIJNS_7MatcherIhEESJ_EE
FN:890,_ZN7testing8internal16TypedExpectationIFmvEEC2EPNS0_14FunctionMockerIS2_EEPKciRKNSt7__cxx1112basic_stringIcSt11char_traitsIcESaIcEEERKSt5tupleIJEE
FNDA:0,_ZN7testing8internal16TypedExpectationIFmvEEC2EPNS0_14FunctionMockerIS2_EEPKciRKNSt7__cxx1112basic_stringIcSt11char_traitsIcESaIcEEERKSt5tupleIJEE
FN:902,_ZN7testing8internal16TypedExpectationIFvhhEED0Ev
FNDA:0,_ZN7testing8internal16TypedExpectationIFvhhEED0Ev
FN:902,_ZN7testing8internal16TypedExpectationIFvhhEED2Ev
FNDA:0,_ZN7testing8internal16TypedExpectationIFvhhEED2Ev
FN:902,_ZN7testing8internal16TypedExpectationIFmvEED0Ev
FNDA:0,_ZN7testing8internal16TypedExpectationIFmvEED0Ev
FN:902,_ZN7testing8internal16TypedExpectationIFmvEED2Ev
FNDA:0,_ZN7testing8internal16TypedExpectationIFmvEED2Ev
FN:1000,_ZN7testing8internal16TypedExpectationIFmvEE8WillOnceERKNS_6ActionIS2_EE
FNDA:0,_ZN7testing8internal16TypedExpectationIFmvEE8WillOnceERKNS_6ActionIS2_EE
FN:1068,_ZN7testing8internal16TypedExpectationIFmvEE27MaybeDescribeExtraMatcherToEPSo
FNDA:0,_ZN7testing8internal16TypedExpectationIFmvEE27MaybeDescribeExtraMatcherToEPSo
FN:1068,_ZN7testing8internal16TypedExpectationIFvhhEE27MaybeDescribeExtraMatcherToEPSo
FNDA:0,_ZN7testing8internal16TypedExpectationIFvhhEE27MaybeDescribeExtraMatcherToEPSo
FN:1082,_ZN7testing8internal16TypedExpectationIFvhhEE9GetHandleEv
FNDA:0,_ZN7testing8internal16TypedExpectationIFvhhEE9GetHandleEv
FN:1082,_ZN7testing8internal16TypedExpectationIFmvEE9GetHandleEv
FNDA:0,_ZN7testing8internal16TypedExpectationIFmvEE9GetHandleEv
FN:1254,_ZN7testing8internal8MockSpecIFmvEEC2EPNS0_14FunctionMockerIS2_EERKSt5tupleIJEE
FNDA:0,_ZN7testing8internal8MockSpecIFmvEEC2EPNS0_14FunctionMockerIS2_EERKSt5tupleIJEE
FN:1254,_ZN7testing8internal8MockSpecIFvhhEEC2EPNS0_14FunctionMockerIS2_EERKSt5tupleIJNS_7MatcherIhEES9_EE
FNDA:0,_ZN7testing8internal8MockSpecIFvhhEEC2EPNS0_14FunctionMockerIS2_EERKSt5tupleIJNS_7MatcherIhEES9_EE
FN:1269,_ZN7testing8internal8MockSpecIFvhhEE18InternalExpectedAtEPKciS5_S5_
FNDA:0,_ZN7testing8internal8MockSpecIFvhhEE18InternalExpectedAtEPKciS5_S5_
FN:1269,_ZN7testing8internal8MockSpecIFmvEE18InternalExpectedAtEPKciS5_S5_
FNDA:0,_ZN7testing8internal8MockSpecIFmvEE18InternalExpectedAtEPKciS5_S5_
FN:1281,_ZN7testing8internal8MockSpecIFvhhEEclERKNS0_15WithoutMatchersEPv
FNDA:0,_ZN7testing8internal8MockSpecIFvhhEEclERKNS0_15WithoutMatchersEPv
FN:1281,_ZN7testing8internal8MockSpecIFmvEEclERKNS0_15WithoutMatchersEPv
FNDA:0,_ZN7testing8internal8MockSpecIFmvEEclERKNS0_15WithoutMatchersEPv
FN:1599,_ZN7testing8internal14FunctionMockerIFmvEE4WithEv
FNDA:0,_ZN7testing8internal14FunctionMockerIFmvEE4WithEv
FN:1599,_ZN7testing8internal14FunctionMockerIFvhhEE4WithENS_7MatcherIhEES5_
FNDA:0,_ZN7testing8internal14FunctionMockerIFvhhEE4WithENS_7MatcherIhEES5_
FN:1621,_ZN7testing8internal14FunctionMockerIFmvEE17AddNewExpectationEPKciRKNSt7__cxx1112basic_stringIcSt11char_traitsIcESaIcEEERKSt5tupleIJEE
FNDA:0,_ZN7testing8internal14FunctionMockerIFmvEE17AddNewExpectationEPKciRKNSt7__cxx1112basic_stringIcSt11char_traitsIcESaIcEEERKSt5tupleIJEE
FN:1621,_ZN7testing8internal14FunctionMockerIFvhhEE17AddNewExpectationEPKciRKNSt7__cxx1112basic_stringIcSt11char_traitsIcESaIcEEERKSt5tupleIJNS_7MatcherIhEESG_EE
FNDA:0,_ZN7testing8internal14FunctionMockerIFvhhEE17AddNewExpectationEPKciRKNSt7__cxx1112basic_stringIcSt11char_traitsIcESaIcEEERKSt5tupleIJNS_7MatcherIhEESG_EE
DA:752,0
DA:754,0
DA:755,0
DA:763,0
DA:766,0
DA:767,0
DA:768,0
DA:890,0
DA:900,0
DA:890,0
DA:900,0
DA:902,0
DA:910,0
DA:902,0
DA:905,0
DA:906,0
DA:907,0
DA:908,0
DA:910,0
DA:902,0
DA:910,0
DA:902,0
DA:905,0
DA:906,0
DA:907,0
DA:908,0
DA:910,0
DA:1000,0
DA:1001,0
DA:1004,0
DA:1006,0
DA:1007,0
DA:1008,0
DA:1010,0
DA:1068,0
DA:1069,0
DA:1070,0
DA:1071,0
DA:1072,0
DA:1074,0
DA:1068,0
DA:1069,0
DA:1070,0
DA:1071,0
DA:1072,0
DA:1074,0
DA:1082,0
DA:1082,0
DA:1254,0
DA:1256,0
DA:1254,0
DA:1256,0
DA:1269,0
DA:1271,0
DA:1273,0
DA:1274,0
DA:1275,0
DA:1269,0
DA:1271,0
DA:1273,0
DA:1274,0
DA:1275,0
DA:1281,0
DA:1282,0
DA:1281,0
DA:1282,0
DA:1599,0
DA:1600,0
DA:1599,0
DA:1600,0
DA:1621,0
DA:1625,0
DA:1626,0
DA:1627,0
DA:1628,0
DA:1631,0
DA:1634,0
DA:1635,0
DA:1636,0
DA:1639,0
DA:1621,0
DA:1625,0
DA:1626,0
DA:1627,0
DA:1628,0
DA:1631,0
DA:1634,0
DA:1635,0
DA:1636,0
DA:1639,0
end_of_record
SF:/usr/include/c++/9/ext/type_traits.h
FN:152,_ZN9__gnu_cxx17__is_null_pointerIcEEbPT_
FNDA:0,_ZN9__gnu_cxx17__is_null_pointerIcEEbPT_
FN:152,_ZN9__gnu_cxx17__is_null_pointerIKcEEbPT_
FNDA:0,_ZN9__gnu_cxx17__is_null_pointerIKcEEbPT_
DA:152,0
DA:153,0
DA:152,0
DA:153,0
end_of_record
SF:/usr/include/c++/9/bits/stl_iterator_base_types.h
FN:205,_ZSt19__iterator_categoryIPcENSt15iterator_traitsIT_E17iterator_categoryERKS2_
FNDA:0,_ZSt19__iterator_categoryIPcENSt15iterator_traitsIT_E17iterator_categoryERKS2_
FN:205,_ZSt19__iterator_categoryIPKcENSt15iterator_traitsIT_E17iterator_categoryERKS3_
FNDA:0,_ZSt19__iterator_categoryIPKcENSt15iterator_traitsIT_E17iterator_categoryERKS3_
DA:205,0
DA:206,0
DA:205,0
DA:206,0
end_of_record
SF:/usr/include/c++/9/bits/shared_ptr_base.h
FN:117,_ZNSt16_Sp_counted_baseILN9__gnu_cxx12_Lock_policyE2EEC2Ev
FNDA:0,_ZNSt16_Sp_counted_baseILN9__gnu_cxx12_Lock_policyE2EEC2Ev
FN:121,_ZNSt16_Sp_counted_baseILN9__gnu_cxx12_Lock_policyE2EED2Ev
FNDA:0,_ZNSt16_Sp_counted_baseILN9__gnu_cxx12_Lock_policyE2EED2Ev
FN:121,_ZNSt16_Sp_counted_baseILN9__gnu_cxx12_Lock_policyE2EED0Ev
FNDA:0,_ZNSt16_Sp_counted_baseILN9__gnu_cxx12_Lock_policyE2EED0Ev
FN:131,_ZNSt16_Sp_counted_baseILN9__gnu_cxx12_Lock_policyE2EE10_M_destroyEv
FNDA:0,_ZNSt16_Sp_counted_baseILN9__gnu_cxx12_Lock_policyE2EE10_M_destroyEv
FN:138,_ZNSt16_Sp_counted_baseILN9__gnu_cxx12_Lock_policyE2EE15_M_add_ref_copyEv
FNDA:0,_ZNSt16_Sp_counted_baseILN9__gnu_cxx12_Lock_policyE2EE15_M_add_ref_copyEv
FN:148,_ZNSt16_Sp_counted_baseILN9__gnu_cxx12_Lock_policyE2EE10_M_releaseEv
FNDA:0,_ZNSt16_Sp_counted_baseILN9__gnu_cxx12_Lock_policyE2EE10_M_releaseEv
FN:372,_ZNSt15_Sp_counted_ptrIPN7testing8internal16TypedExpectationIFvhhEEELN9__gnu_cxx12_Lock_policyE2EEC2ES5_
FNDA:0,_ZNSt15_Sp_counted_ptrIPN7testing8internal16TypedExpectationIFvhhEEELN9__gnu_cxx12_Lock_policyE2EEC2ES5_
FN:372,_ZNSt15_Sp_counted_ptrIPKN7testing16MatcherInterfaceIRKSt5tupleIJhhEEEELN9__gnu_cxx12_Lock_policyE2EEC2ES8_
FNDA:0,_ZNSt15_Sp_counted_ptrIPKN7testing16MatcherInterfaceIRKSt5tupleIJhhEEEELN9__gnu_cxx12_Lock_policyE2EEC2ES8_
FN:372,_ZNSt15_Sp_counted_ptrIPKN7testing16MatcherInterfaceIRKSt5tupleIJEEEELN9__gnu_cxx12_Lock_policyE2EEC2ES8_
FNDA:0,_ZNSt15_Sp_counted_ptrIPKN7testing16MatcherInterfaceIRKSt5tupleIJEEEELN9__gnu_cxx12_Lock_policyE2EEC2ES8_
FN:372,_ZNSt15_Sp_counted_ptrIPKN7testing16MatcherInterfaceIRKhEELN9__gnu_cxx12_Lock_policyE2EEC2ES6_
FNDA:0,_ZNSt15_Sp_counted_ptrIPKN7testing16MatcherInterfaceIRKhEELN9__gnu_cxx12_Lock_policyE2EEC2ES6_
FN:372,_ZNSt15_Sp_counted_ptrIPjLN9__gnu_cxx12_Lock_policyE2EEC2ES0_
FNDA:1,_ZNSt15_Sp_counted_ptrIPjLN9__gnu_cxx12_Lock_policyE2EEC2ES0_
FN:372,_ZNSt15_Sp_counted_ptrIPN7testing15ActionInterfaceIFmvEEELN9__gnu_cxx12_Lock_policyE2EEC2ES4_
FNDA:0,_ZNSt15_Sp_counted_ptrIPN7testing15ActionInterfaceIFmvEEELN9__gnu_cxx12_Lock_policyE2EEC2ES4_
FN:372,_ZNSt15_Sp_counted_ptrIPiLN9__gnu_cxx12_Lock_policyE2EEC2ES0_
FNDA:0,_ZNSt15_Sp_counted_ptrIPiLN9__gnu_cxx12_Lock_policyE2EEC2ES0_
FN:372,_ZNSt15_Sp_counted_ptrIPN7testing8internal16TypedExpectationIFmvEEELN9__gnu_cxx12_Lock_policyE2EEC2ES5_
FNDA:0,_ZNSt15_Sp_counted_ptrIPN7testing8internal16TypedExpectationIFmvEEELN9__gnu_cxx12_Lock_policyE2EEC2ES5_
FN:376,_ZNSt15_Sp_counted_ptrIPKN7testing16MatcherInterfaceIRKSt5tupleIJhhEEEELN9__gnu_cxx12_Lock_policyE2EE10_M_disposeEv
FNDA:0,_ZNSt15_Sp_counted_ptrIPKN7testing16MatcherInterfaceIRKSt5tupleIJhhEEEELN9__gnu_cxx12_Lock_policyE2EE10_M_disposeEv
FN:376,_ZNSt15_Sp_counted_ptrIPKN7testing16MatcherInterfaceIRKSt5tupleIJEEEELN9__gnu_cxx12_Lock_policyE2EE10_M_disposeEv
FNDA:0,_ZNSt15_Sp_counted_ptrIPKN7testing16MatcherInterfaceIRKSt5tupleIJEEEELN9__gnu_cxx12_Lock_policyE2EE10_M_disposeEv
FN:376,_ZNSt15_Sp_counted_ptrIPKN7testing16MatcherInterfaceIRKhEELN9__gnu_cxx12_Lock_policyE2EE10_M_disposeEv
FNDA:0,_ZNSt15_Sp_counted_ptrIPKN7testing16MatcherInterfaceIRKhEELN9__gnu_cxx12_Lock_policyE2EE10_M_disposeEv
FN:376,_ZNSt15_Sp_counted_ptrIPN7testing8internal16TypedExpectationIFvhhEEELN9__gnu_cxx12_Lock_policyE2EE10_M_disposeEv
FNDA:0,_ZNSt15_Sp_counted_ptrIPN7testing8internal16TypedExpectationIFvhhEEELN9__gnu_cxx12_Lock_policyE2EE10_M_disposeEv
FN:376,_ZNSt15_Sp_counted_ptrIPjLN9__gnu_cxx12_Lock_policyE2EE10_M_disposeEv
FNDA:1,_ZNSt15_Sp_counted_ptrIPjLN9__gnu_cxx12_Lock_policyE2EE10_M_disposeEv
FN:376,_ZNSt15_Sp_counted_ptrIPiLN9__gnu_cxx12_Lock_policyE2EE10_M_disposeEv
FNDA:0,_ZNSt15_Sp_counted_ptrIPiLN9__gnu_cxx12_Lock_policyE2EE10_M_disposeEv
FN:376,_ZNSt15_Sp_counted_ptrIPN7testing8internal16TypedExpectationIFmvEEELN9__gnu_cxx12_Lock_policyE2EE10_M_disposeEv
FNDA:0,_ZNSt15_Sp_counted_ptrIPN7testing8internal16TypedExpectationIFmvEEELN9__gnu_cxx12_Lock_policyE2EE10_M_disposeEv
FN:376,_ZNSt15_Sp_counted_ptrIPN7testing15ActionInterfaceIFmvEEELN9__gnu_cxx12_Lock_policyE2EE10_M_disposeEv
FNDA:0,_ZNSt15_Sp_counted_ptrIPN7testing15ActionInterfaceIFmvEEELN9__gnu_cxx12_Lock_policyE2EE10_M_disposeEv
FN:380,_ZNSt15_Sp_counted_ptrIPN7testing8internal16TypedExpectationIFvhhEEELN9__gnu_cxx12_Lock_policyE2EE10_M_destroyEv
FNDA:0,_ZNSt15_Sp_counted_ptrIPN7testing8internal16TypedExpectationIFvhhEEELN9__gnu_cxx12_Lock_policyE2EE10_M_destroyEv
FN:380,_ZNSt15_Sp_counted_ptrIPiLN9__gnu_cxx12_Lock_policyE2EE10_M_destroyEv
FNDA:0,_ZNSt15_Sp_counted_ptrIPiLN9__gnu_cxx12_Lock_policyE2EE10_M_destroyEv
FN:380,_ZNSt15_Sp_counted_ptrIPN7testing8internal16TypedExpectationIFmvEEELN9__gnu_cxx12_Lock_policyE2EE10_M_destroyEv
FNDA:0,_ZNSt15_Sp_counted_ptrIPN7testing8internal16TypedExpectationIFmvEEELN9__gnu_cxx12_Lock_policyE2EE10_M_destroyEv
FN:380,_ZNSt15_Sp_counted_ptrIPN7testing15ActionInterfaceIFmvEEELN9__gnu_cxx12_Lock_policyE2EE10_M_destroyEv
FNDA:0,_ZNSt15_Sp_counted_ptrIPN7testing15ActionInterfaceIFmvEEELN9__gnu_cxx12_Lock_policyE2EE10_M_destroyEv
FN:380,_ZNSt15_Sp_counted_ptrIPKN7testing16MatcherInterfaceIRKSt5tupleIJhhEEEELN9__gnu_cxx12_Lock_policyE2EE10_M_destroyEv
FNDA:0,_ZNSt15_Sp_counted_ptrIPKN7testing16MatcherInterfaceIRKSt5tupleIJhhEEEELN9__gnu_cxx12_Lock_policyE2EE10_M_destroyEv
FN:380,_ZNSt15_Sp_counted_ptrIPKN7testing16MatcherInterfaceIRKSt5tupleIJEEEELN9__gnu_cxx12_Lock_policyE2EE10_M_destroyEv
FNDA:0,_ZNSt15_Sp_counted_ptrIPKN7testing16MatcherInterfaceIRKSt5tupleIJEEEELN9__gnu_cxx12_Lock_policyE2EE10_M_destroyEv
FN:380,_ZNSt15_Sp_counted_ptrIPjLN9__gnu_cxx12_Lock_policyE2EE10_M_destroyEv
FNDA:1,_ZNSt15_Sp_counted_ptrIPjLN9__gnu_cxx12_Lock_policyE2EE10_M_destroyEv
FN:380,_ZNSt15_Sp_counted_ptrIPKN7testing16MatcherInterfaceIRKhEELN9__gnu_cxx12_Lock_policyE2EE10_M_destroyEv
FNDA:0,_ZNSt15_Sp_counted_ptrIPKN7testing16MatcherInterfaceIRKhEELN9__gnu_cxx12_Lock_policyE2EE10_M_destroyEv
FN:384,_ZNSt15_Sp_counted_ptrIPKN7testing16MatcherInterfaceIRKSt5tupleIJhhEEEELN9__gnu_cxx12_Lock_policyE2EE14_M_get_deleterERKSt9type_info
FNDA:0,_ZNSt15_Sp_counted_ptrIPKN7testing16MatcherInterfaceIRKSt5tupleIJhhEEEELN9__gnu_cxx12_Lock_policyE2EE14_M_get_deleterERKSt9type_info
FN:384,_ZNSt15_Sp_counted_ptrIPjLN9__gnu_cxx12_Lock_policyE2EE14_M_get_deleterERKSt9type_info
FNDA:0,_ZNSt15_Sp_counted_ptrIPjLN9__gnu_cxx12_Lock_policyE2EE14_M_get_deleterERKSt9type_info
FN:384,_ZNSt15_Sp_counted_ptrIPN7testing8internal16TypedExpectationIFvhhEEELN9__gnu_cxx12_Lock_policyE2EE14_M_get_deleterERKSt9type_info
FNDA:0,_ZNSt15_Sp_counted_ptrIPN7testing8internal16TypedExpectationIFvhhEEELN9__gnu_cxx12_Lock_policyE2EE14_M_get_deleterERKSt9type_info
FN:384,_ZNSt15_Sp_counted_ptrIPKN7testing16MatcherInterfaceIRKSt5tupleIJEEEELN9__gnu_cxx12_Lock_policyE2EE14_M_get_deleterERKSt9type_info
FNDA:0,_ZNSt15_Sp_counted_ptrIPKN7testing16MatcherInterfaceIRKSt5tupleIJEEEELN9__gnu_cxx12_Lock_policyE2EE14_M_get_deleterERKSt9type_info
FN:384,_ZNSt15_Sp_counted_ptrIPN7testing8internal16TypedExpectationIFmvEEELN9__gnu_cxx12_Lock_policyE2EE14_M_get_deleterERKSt9type_info
FNDA:0,_ZNSt15_Sp_counted_ptrIPN7testing8internal16TypedExpectationIFmvEEELN9__gnu_cxx12_Lock_policyE2EE14_M_get_deleterERKSt9type_info
FN:384,_ZNSt15_Sp_counted_ptrIPN7testing15ActionInterfaceIFmvEEELN9__gnu_cxx12_Lock_policyE2EE14_M_get_deleterERKSt9type_info
FNDA:0,_ZNSt15_Sp_counted_ptrIPN7testing15ActionInterfaceIFmvEEELN9__gnu_cxx12_Lock_policyE2EE14_M_get_deleterERKSt9type_info
FN:384,_ZNSt15_Sp_counted_ptrIPiLN9__gnu_cxx12_Lock_policyE2EE14_M_get_deleterERKSt9type_info
FNDA:0,_ZNSt15_Sp_counted_ptrIPiLN9__gnu_cxx12_Lock_policyE2EE14_M_get_deleterERKSt9type_info
FN:384,_ZNSt15_Sp_counted_ptrIPKN7testing16MatcherInterfaceIRKhEELN9__gnu_cxx12_Lock_policyE2EE14_M_get_deleterERKSt9type_info
FNDA:0,_ZNSt15_Sp_counted_ptrIPKN7testing16MatcherInterfaceIRKhEELN9__gnu_cxx12_Lock_policyE2EE14_M_get_deleterERKSt9type_info
FN:616,_ZNSt14__shared_countILN9__gnu_cxx12_Lock_policyE2EEC2Ev
FNDA:0,_ZNSt14__shared_countILN9__gnu_cxx12_Lock_policyE2EEC2Ev
FN:621,_ZNSt14__shared_countILN9__gnu_cxx12_Lock_policyE2EEC2IPKN7testing16MatcherInterfaceIRKhEEEET_
FNDA:0,_ZNSt14__shared_countILN9__gnu_cxx12_Lock_policyE2EEC2IPKN7testing16MatcherInterfaceIRKhEEEET_
FN:621,_ZNSt14__shared_countILN9__gnu_cxx12_Lock_policyE2EEC2IPjEET_
FNDA:1,_ZNSt14__shared_countILN9__gnu_cxx12_Lock_policyE2EEC2IPjEET_
FN:621,_ZNSt14__shared_countILN9__gnu_cxx12_Lock_policyE2EEC2IPN7testing8internal16TypedExpectationIFvhhEEEEET_
FNDA:0,_ZNSt14__shared_countILN9__gnu_cxx12_Lock_policyE2EEC2IPN7testing8internal16TypedExpectationIFvhhEEEEET_
FN:621,_ZNSt14__shared_countILN9__gnu_cxx12_Lock_policyE2EEC2IPN7testing15ActionInterfaceIFmvEEEEET_
FNDA:0,_ZNSt14__shared_countILN9__gnu_cxx12_Lock_policyE2EEC2IPN7testing15ActionInterfaceIFmvEEEEET_
FN:621,_ZNSt14__shared_countILN9__gnu_cxx12_Lock_policyE2EEC2IPiEET_
FNDA:0,_ZNSt14__shared_countILN9__gnu_cxx12_Lock_policyE2EEC2IPiEET_
FN:621,_ZNSt14__shared_countILN9__gnu_cxx12_Lock_policyE2EEC2IPN7testing8internal16TypedExpectationIFmvEEEEET_
FNDA:0,_ZNSt14__shared_countILN9__gnu_cxx12_Lock_policyE2EEC2IPN7testing8internal16TypedExpectationIFmvEEEEET_
FN:621,_ZNSt14__shared_countILN9__gnu_cxx12_Lock_policyE2EEC2IPKN7testing16MatcherInterfaceIRKSt5tupleIJEEEEEET_
FNDA:0,_ZNSt14__shared_countILN9__gnu_cxx12_Lock_policyE2EEC2IPKN7testing16MatcherInterfaceIRKSt5tupleIJEEEEEET_
FN:621,_ZNSt14__shared_countILN9__gnu_cxx12_Lock_policyE2EEC2IPKN7testing16MatcherInterfaceIRKSt5tupleIJhhEEEEEET_
FNDA:0,_ZNSt14__shared_countILN9__gnu_cxx12_Lock_policyE2EEC2IPKN7testing16MatcherInterfaceIRKSt5tupleIJhhEEEEEET_
FN:635,_ZNSt14__shared_countILN9__gnu_cxx12_Lock_policyE2EEC2IPN7testing8internal16TypedExpectationIFvhhEEEEET_St17integral_constantIbLb0EE
FNDA:0,_ZNSt14__shared_countILN9__gnu_cxx12_Lock_policyE2EEC2IPN7testing8internal16TypedExpectationIFvhhEEEEET_St17integral_constantIbLb0EE
FN:635,_ZNSt14__shared_countILN9__gnu_cxx12_Lock_policyE2EEC2IPN7testing15ActionInterfaceIFmvEEEEET_St17integral_constantIbLb0EE
FNDA:0,_ZNSt14__shared_countILN9__gnu_cxx12_Lock_policyE2EEC2IPN7testing15ActionInterfaceIFmvEEEEET_St17integral_constantIbLb0EE
FN:635,_ZNSt14__shared_countILN9__gnu_cxx12_Lock_policyE2EEC2IPKN7testing16MatcherInterfaceIRKhEEEET_St17integral_constantIbLb0EE
FNDA:0,_ZNSt14__shared_countILN9__gnu_cxx12_Lock_policyE2EEC2IPKN7testing16MatcherInterfaceIRKhEEEET_St17integral_constantIbLb0EE
FN:635,_ZNSt14__shared_countILN9__gnu_cxx12_Lock_policyE2EEC2IPiEET_St17integral_constantIbLb0EE
FNDA:0,_ZNSt14__shared_countILN9__gnu_cxx12_Lock_policyE2EEC2IPiEET_St17integral_constantIbLb0EE
FN:635,_ZNSt14__shared_countILN9__gnu_cxx12_Lock_policyE2EEC2IPKN7testing16MatcherInterfaceIRKSt5tupleIJEEEEEET_St17integral_constantIbLb0EE
FNDA:0,_ZNSt14__shared_countILN9__gnu_cxx12_Lock_policyE2EEC2IPKN7testing16MatcherInterfaceIRKSt5tupleIJEEEEEET_St17integral_constantIbLb0EE
FN:635,_ZNSt14__shared_countILN9__gnu_cxx12_Lock_policyE2EEC2IPKN7testing16MatcherInterfaceIRKSt5tupleIJhhEEEEEET_St17integral_constantIbLb0EE
FNDA:0,_ZNSt14__shared_countILN9__gnu_cxx12_Lock_policyE2EEC2IPKN7testing16MatcherInterfaceIRKSt5tupleIJhhEEEEEET_St17integral_constantIbLb0EE
FN:635,_ZNSt14__shared_countILN9__gnu_cxx12_Lock_policyE2EEC2IPjEET_St17integral_constantIbLb0EE
FNDA:1,_ZNSt14__shared_countILN9__gnu_cxx12_Lock_policyE2EEC2IPjEET_St17integral_constantIbLb0EE
FN:635,_ZNSt14__shared_countILN9__gnu_cxx12_Lock_policyE2EEC2IPN7testing8internal16TypedExpectationIFmvEEEEET_St17integral_constantIbLb0EE
FNDA:0,_ZNSt14__shared_countILN9__gnu_cxx12_Lock_policyE2EEC2IPN7testing8internal16TypedExpectationIFmvEEEEET_St17integral_constantIbLb0EE
FN:727,_ZNSt14__shared_countILN9__gnu_cxx12_Lock_policyE2EED2Ev
FNDA:0,_ZNSt14__shared_countILN9__gnu_cxx12_Lock_policyE2EED2Ev
FN:733,_ZNSt14__shared_countILN9__gnu_cxx12_Lock_policyE2EEC2ERKS2_
FNDA:0,_ZNSt14__shared_countILN9__gnu_cxx12_Lock_policyE2EEC2ERKS2_
FN:741,_ZNSt14__shared_countILN9__gnu_cxx12_Lock_policyE2EEaSERKS2_
FNDA:0,_ZNSt14__shared_countILN9__gnu_cxx12_Lock_policyE2EEaSERKS2_
FN:756,_ZNSt14__shared_countILN9__gnu_cxx12_Lock_policyE2EE7_M_swapERS2_
FNDA:0,_ZNSt14__shared_countILN9__gnu_cxx12_Lock_policyE2EE7_M_swapERS2_
FN:1005,_ZNKSt19__shared_ptr_accessIjLN9__gnu_cxx12_Lock_policyE2ELb0ELb0EEdeEv
FNDA:1,_ZNKSt19__shared_ptr_accessIjLN9__gnu_cxx12_Lock_policyE2ELb0ELb0EEdeEv
FN:1005,_ZNKSt19__shared_ptr_accessIiLN9__gnu_cxx12_Lock_policyE2ELb0ELb0EEdeEv
FNDA:0,_ZNKSt19__shared_ptr_accessIiLN9__gnu_cxx12_Lock_policyE2ELb0ELb0EEdeEv
FN:1012,_ZNKSt19__shared_ptr_accessIN7testing15ActionInterfaceIFmvEEELN9__gnu_cxx12_Lock_policyE2ELb0ELb0EEptEv
FNDA:0,_ZNKSt19__shared_ptr_accessIN7testing15ActionInterfaceIFmvEEELN9__gnu_cxx12_Lock_policyE2ELb0ELb0EEptEv
FN:1012,_ZNKSt19__shared_ptr_accessIKN7testing16MatcherInterfaceIRKSt5tupleIJhhEEEELN9__gnu_cxx12_Lock_policyE2ELb0ELb0EEptEv
FNDA:0,_ZNKSt19__shared_ptr_accessIKN7testing16MatcherInterfaceIRKSt5tupleIJhhEEEELN9__gnu_cxx12_Lock_policyE2ELb0ELb0EEptEv
FN:1012,_ZNKSt19__shared_ptr_accessIKN7testing16MatcherInterfaceIRKSt5tupleIJEEEELN9__gnu_cxx12_Lock_policyE2ELb0ELb0EEptEv
FNDA:0,_ZNKSt19__shared_ptr_accessIKN7testing16MatcherInterfaceIRKSt5tupleIJEEEELN9__gnu_cxx12_Lock_policyE2ELb0ELb0EEptEv
FN:1020,_ZNKSt19__shared_ptr_accessIjLN9__gnu_cxx12_Lock_policyE2ELb0ELb0EE6_M_getEv
FNDA:1,_ZNKSt19__shared_ptr_accessIjLN9__gnu_cxx12_Lock_policyE2ELb0ELb0EE6_M_getEv
FN:1020,_ZNKSt19__shared_ptr_accessIN7testing15ActionInterfaceIFmvEEELN9__gnu_cxx12_Lock_policyE2ELb0ELb0EE6_M_getEv
FNDA:0,_ZNKSt19__shared_ptr_accessIN7testing15ActionInterfaceIFmvEEELN9__gnu_cxx12_Lock_policyE2ELb0ELb0EE6_M_getEv
FN:1020,_ZNKSt19__shared_ptr_accessIiLN9__gnu_cxx12_Lock_policyE2ELb0ELb0EE6_M_getEv
FNDA:0,_ZNKSt19__shared_ptr_accessIiLN9__gnu_cxx12_Lock_policyE2ELb0ELb0EE6_M_getEv
FN:1020,_ZNKSt19__shared_ptr_accessIKN7testing16MatcherInterfaceIRKSt5tupleIJhhEEEELN9__gnu_cxx12_Lock_policyE2ELb0ELb0EE6_M_getEv
FNDA:0,_ZNKSt19__shared_ptr_accessIKN7testing16MatcherInterfaceIRKSt5tupleIJhhEEEELN9__gnu_cxx12_Lock_policyE2ELb0ELb0EE6_M_getEv
FN:1020,_ZNKSt19__shared_ptr_accessIKN7testing16MatcherInterfaceIRKSt5tupleIJEEEELN9__gnu_cxx12_Lock_policyE2ELb0ELb0EE6_M_getEv
FNDA:0,_ZNKSt19__shared_ptr_accessIKN7testing16MatcherInterfaceIRKSt5tupleIJEEEELN9__gnu_cxx12_Lock_policyE2ELb0ELb0EE6_M_getEv
FN:1080,_ZNSt12__shared_ptrIKN7testing20CardinalityInterfaceELN9__gnu_cxx12_Lock_policyE2EEaSERKS5_
FNDA:0,_ZNSt12__shared_ptrIKN7testing20CardinalityInterfaceELN9__gnu_cxx12_Lock_policyE2EEaSERKS5_
FN:1118,_ZNSt12__shared_ptrIKN7testing16MatcherInterfaceIRKhEELN9__gnu_cxx12_Lock_policyE2EEC2Ev
FNDA:0,_ZNSt12__shared_ptrIKN7testing16MatcherInterfaceIRKhEELN9__gnu_cxx12_Lock_policyE2EEC2Ev
FN:1124,_ZNSt12__shared_ptrIKN7testing16MatcherInterfaceIRKhEELN9__gnu_cxx12_Lock_policyE2EEC2IS5_vEEPT_
FNDA:0,_ZNSt12__shared_ptrIKN7testing16MatcherInterfaceIRKhEELN9__gnu_cxx12_Lock_policyE2EEC2IS5_vEEPT_
FN:1124,_ZNSt12__shared_ptrIN7testing8internal15ExpectationBaseELN9__gnu_cxx12_Lock_policyE2EEC2INS1_16TypedExpectationIFvhhEEEvEEPT_
FNDA:0,_ZNSt12__shared_ptrIN7testing8internal15ExpectationBaseELN9__gnu_cxx12_Lock_policyE2EEC2INS1_16TypedExpectationIFvhhEEEvEEPT_
FN:1124,_ZNSt12__shared_ptrIKN7testing16MatcherInterfaceIRKSt5tupleIJhhEEEELN9__gnu_cxx12_Lock_policyE2EEC2IS7_vEEPT_
FNDA:0,_ZNSt12__shared_ptrIKN7testing16MatcherInterfaceIRKSt5tupleIJhhEEEELN9__gnu_cxx12_Lock_policyE2EEC2IS7_vEEPT_
FN:1124,_ZNSt12__shared_ptrIjLN9__gnu_cxx12_Lock_policyE2EEC2IjvEEPT_
FNDA:1,_ZNSt12__shared_ptrIjLN9__gnu_cxx12_Lock_policyE2EEC2IjvEEPT_
FN:1124,_ZNSt12__shared_ptrIKN7testing16MatcherInterfaceIRKSt5tupleIJEEEELN9__gnu_cxx12_Lock_policyE2EEC2IS7_vEEPT_
FNDA:0,_ZNSt12__shared_ptrIKN7testing16MatcherInterfaceIRKSt5tupleIJEEEELN9__gnu_cxx12_Lock_policyE2EEC2IS7_vEEPT_
FN:1124,_ZNSt12__shared_ptrIN7testing15ActionInterfaceIFmvEEELN9__gnu_cxx12_Lock_policyE2EEC2IS3_vEEPT_
FNDA:0,_ZNSt12__shared_ptrIN7testing15ActionInterfaceIFmvEEELN9__gnu_cxx12_Lock_policyE2EEC2IS3_vEEPT_
FN:1124,_ZNSt12__shared_ptrIN7testing8internal15ExpectationBaseELN9__gnu_cxx12_Lock_policyE2EEC2INS1_16TypedExpectationIFmvEEEvEEPT_
FNDA:0,_ZNSt12__shared_ptrIN7testing8internal15ExpectationBaseELN9__gnu_cxx12_Lock_policyE2EEC2INS1_16TypedExpectationIFmvEEEvEEPT_
FN:1124,_ZNSt12__shared_ptrIiLN9__gnu_cxx12_Lock_policyE2EEC2IivEEPT_
FNDA:0,_ZNSt12__shared_ptrIiLN9__gnu_cxx12_Lock_policyE2EEC2IivEEPT_
FN:1167,_ZNSt12__shared_ptrIN7testing15ActionInterfaceIFmvEEELN9__gnu_cxx12_Lock_policyE2EEC2ERKS6_
FNDA:0,_ZNSt12__shared_ptrIN7testing15ActionInterfaceIFmvEEELN9__gnu_cxx12_Lock_policyE2EEC2ERKS6_
FN:1167,_ZNSt12__shared_ptrIN7testing8internal15ExpectationBaseELN9__gnu_cxx12_Lock_policyE2EEC2ERKS5_
FNDA:0,_ZNSt12__shared_ptrIN7testing8internal15ExpectationBaseELN9__gnu_cxx12_Lock_policyE2EEC2ERKS5_
FN:1167,_ZNSt12__shared_ptrIKN7testing16MatcherInterfaceIRKhEELN9__gnu_cxx12_Lock_policyE2EEC2ERKS8_
FNDA:0,_ZNSt12__shared_ptrIKN7testing16MatcherInterfaceIRKhEELN9__gnu_cxx12_Lock_policyE2EEC2ERKS8_
FN:1169,_ZNSt12__shared_ptrIKN7testing16MatcherInterfaceIRKhEELN9__gnu_cxx12_Lock_policyE2EED2Ev
FNDA:0,_ZNSt12__shared_ptrIKN7testing16MatcherInterfaceIRKhEELN9__gnu_cxx12_Lock_policyE2EED2Ev
FN:1169,_ZNSt12__shared_ptrIiLN9__gnu_cxx12_Lock_policyE2EED2Ev
FNDA:0,_ZNSt12__shared_ptrIiLN9__gnu_cxx12_Lock_policyE2EED2Ev
FN:1169,_ZNSt12__shared_ptrIjLN9__gnu_cxx12_Lock_policyE2EED2Ev
FNDA:1,_ZNSt12__shared_ptrIjLN9__gnu_cxx12_Lock_policyE2EED2Ev
FN:1169,_ZNSt12__shared_ptrIN7testing8internal15ExpectationBaseELN9__gnu_cxx12_Lock_policyE2EED2Ev
FNDA:0,_ZNSt12__shared_ptrIN7testing8internal15ExpectationBaseELN9__gnu_cxx12_Lock_policyE2EED2Ev
FN:1169,_ZNSt12__shared_ptrIN7testing15ActionInterfaceIFmvEEELN9__gnu_cxx12_Lock_policyE2EED2Ev
FNDA:0,_ZNSt12__shared_ptrIN7testing15ActionInterfaceIFmvEEELN9__gnu_cxx12_Lock_policyE2EED2Ev
FN:1169,_ZNSt12__shared_ptrIKN7testing20CardinalityInterfaceELN9__gnu_cxx12_Lock_policyE2EED2Ev
FNDA:0,_ZNSt12__shared_ptrIKN7testing20CardinalityInterfaceELN9__gnu_cxx12_Lock_policyE2EED2Ev
FN:1169,_ZNSt12__shared_ptrIKN7testing16MatcherInterfaceIRKSt5tupleIJEEEELN9__gnu_cxx12_Lock_policyE2EED2Ev
FNDA:0,_ZNSt12__shared_ptrIKN7testing16MatcherInterfaceIRKSt5tupleIJEEEELN9__gnu_cxx12_Lock_policyE2EED2Ev
FN:1169,_ZNSt12__shared_ptrIKN7testing16MatcherInterfaceIRKSt5tupleIJhhEEEELN9__gnu_cxx12_Lock_policyE2EED2Ev
FNDA:0,_ZNSt12__shared_ptrIKN7testing16MatcherInterfaceIRKSt5tupleIJhhEEEELN9__gnu_cxx12_Lock_policyE2EED2Ev
FN:1176,_ZNSt12__shared_ptrIKN7testing16MatcherInterfaceIRKhEELN9__gnu_cxx12_Lock_policyE2EEC2EOS8_
FNDA:0,_ZNSt12__shared_ptrIKN7testing16MatcherInterfaceIRKhEELN9__gnu_cxx12_Lock_policyE2EEC2EOS8_
FN:1176,_ZNSt12__shared_ptrIN7testing15ActionInterfaceIFmvEEELN9__gnu_cxx12_Lock_policyE2EEC2EOS6_
FNDA:0,_ZNSt12__shared_ptrIN7testing15ActionInterfaceIFmvEEELN9__gnu_cxx12_Lock_policyE2EEC2EOS6_
FN:1176,_ZNSt12__shared_ptrIN7testing8internal15ExpectationBaseELN9__gnu_cxx12_Lock_policyE2EEC2EOS5_
FNDA:0,_ZNSt12__shared_ptrIN7testing8internal15ExpectationBaseELN9__gnu_cxx12_Lock_policyE2EEC2EOS5_
FN:1263,_ZNSt12__shared_ptrIKN7testing16MatcherInterfaceIRKhEELN9__gnu_cxx12_Lock_policyE2EEaSEOS8_
FNDA:0,_ZNSt12__shared_ptrIKN7testing16MatcherInterfaceIRKhEELN9__gnu_cxx12_Lock_policyE2EEaSEOS8_
FN:1309,_ZNKSt12__shared_ptrIKN7testing16MatcherInterfaceIRKSt5tupleIJEEEELN9__gnu_cxx12_Lock_policyE2EE3getEv
FNDA:0,_ZNKSt12__shared_ptrIKN7testing16MatcherInterfaceIRKSt5tupleIJEEEELN9__gnu_cxx12_Lock_policyE2EE3getEv
FN:1309,_ZNKSt12__shared_ptrIKN7testing16MatcherInterfaceIRKSt5tupleIJhhEEEELN9__gnu_cxx12_Lock_policyE2EE3getEv
FNDA:0,_ZNKSt12__shared_ptrIKN7testing16MatcherInterfaceIRKSt5tupleIJhhEEEELN9__gnu_cxx12_Lock_policyE2EE3getEv
FN:1309,_ZNKSt12__shared_ptrIN7testing15ActionInterfaceIFmvEEELN9__gnu_cxx12_Lock_policyE2EE3getEv
FNDA:0,_ZNKSt12__shared_ptrIN7testing15ActionInterfaceIFmvEEELN9__gnu_cxx12_Lock_policyE2EE3getEv
FN:1309,_ZNKSt12__shared_ptrIjLN9__gnu_cxx12_Lock_policyE2EE3getEv
FNDA:1,_ZNKSt12__shared_ptrIjLN9__gnu_cxx12_Lock_policyE2EE3getEv
FN:1309,_ZNKSt12__shared_ptrIiLN9__gnu_cxx12_Lock_policyE2EE3getEv
FNDA:0,_ZNKSt12__shared_ptrIiLN9__gnu_cxx12_Lock_policyE2EE3getEv
FN:1324,_ZNSt12__shared_ptrIKN7testing16MatcherInterfaceIRKhEELN9__gnu_cxx12_Lock_policyE2EE4swapERS8_
FNDA:0,_ZNSt12__shared_ptrIKN7testing16MatcherInterfaceIRKhEELN9__gnu_cxx12_Lock_policyE2EE4swapERS8_
FN:1388,_ZNSt12__shared_ptrIjLN9__gnu_cxx12_Lock_policyE2EE31_M_enable_shared_from_this_withIjjEENSt9enable_ifIXntsrNS2_15__has_esft_baseIT0_vEE5valueEvE4typeEPT_
FNDA:1,_ZNSt12__shared_ptrIjLN9__gnu_cxx12_Lock_policyE2EE31_M_enable_shared_from_this_withIjjEENSt9enable_ifIXntsrNS2_15__has_esft_baseIT0_vEE5valueEvE4typeEPT_
FN:1388,_ZNSt12__shared_ptrIN7testing15ActionInterfaceIFmvEEELN9__gnu_cxx12_Lock_policyE2EE31_M_enable_shared_from_this_withIS3_S3_EENSt9enable_ifIXntsrNS6_15__has_esft_baseIT0_vEE5valueEvE4typeEPT_
FNDA:0,_ZNSt12__shared_ptrIN7testing15ActionInterfaceIFmvEEELN9__gnu_cxx12_Lock_policyE2EE31_M_enable_shared_from_this_withIS3_S3_EENSt9enable_ifIXntsrNS6_15__has_esft_baseIT0_vEE5valueEvE4typeEPT_
FN:1388,_ZNSt12__shared_ptrIN7testing8internal15ExpectationBaseELN9__gnu_cxx12_Lock_policyE2EE31_M_enable_shared_from_this_withINS1_16TypedExpectationIFvhhEEES9_EENSt9enable_ifIXntsrNS5_15__has_esft_baseIT0_vEE5valueEvE4typeEPT_
FNDA:0,_ZNSt12__shared_ptrIN7testing8internal15ExpectationBaseELN9__gnu_cxx12_Lock_policyE2EE31_M_enable_shared_from_this_withINS1_16TypedExpectationIFvhhEEES9_EENSt9enable_ifIXntsrNS5_15__has_esft_baseIT0_vEE5valueEvE4typeEPT_
FN:1388,_ZNSt12__shared_ptrIKN7testing16MatcherInterfaceIRKhEELN9__gnu_cxx12_Lock_policyE2EE31_M_enable_shared_from_this_withIS5_S4_EENSt9enable_ifIXntsrNS8_15__has_esft_baseIT0_vEE5valueEvE4typeEPT_
FNDA:0,_ZNSt12__shared_ptrIKN7testing16MatcherInterfaceIRKhEELN9__gnu_cxx12_Lock_policyE2EE31_M_enable_shared_from_this_withIS5_S4_EENSt9enable_ifIXntsrNS8_15__has_esft_baseIT0_vEE5valueEvE4typeEPT_
FN:1388,_ZNSt12__shared_ptrIKN7testing16MatcherInterfaceIRKSt5tupleIJEEEELN9__gnu_cxx12_Lock_policyE2EE31_M_enable_shared_from_this_withIS7_S6_EENSt9enable_ifIXntsrNSA_15__has_esft_baseIT0_vEE5valueEvE4typeEPT_
FNDA:0,_ZNSt12__shared_ptrIKN7testing16MatcherInterfaceIRKSt5tupleIJEEEELN9__gnu_cxx12_Lock_policyE2EE31_M_enable_shared_from_this_withIS7_S6_EENSt9enable_ifIXntsrNSA_15__has_esft_baseIT0_vEE5valueEvE4typeEPT_
FN:1388,_ZNSt12__shared_ptrIKN7testing16MatcherInterfaceIRKSt5tupleIJhhEEEELN9__gnu_cxx12_Lock_policyE2EE31_M_enable_shared_from_this_withIS7_S6_EENSt9enable_ifIXntsrNSA_15__has_esft_baseIT0_vEE5valueEvE4typeEPT_
FNDA:0,_ZNSt12__shared_ptrIKN7testing16MatcherInterfaceIRKSt5tupleIJhhEEEELN9__gnu_cxx12_Lock_policyE2EE31_M_enable_shared_from_this_withIS7_S6_EENSt9enable_ifIXntsrNSA_15__has_esft_baseIT0_vEE5valueEvE4typeEPT_
FN:1388,_ZNSt12__shared_ptrIiLN9__gnu_cxx12_Lock_policyE2EE31_M_enable_shared_from_this_withIiiEENSt9enable_ifIXntsrNS2_15__has_esft_baseIT0_vEE5valueEvE4typeEPT_
FNDA:0,_ZNSt12__shared_ptrIiLN9__gnu_cxx12_Lock_policyE2EE31_M_enable_shared_from_this_withIiiEENSt9enable_ifIXntsrNS2_15__has_esft_baseIT0_vEE5valueEvE4typeEPT_
FN:1388,_ZNSt12__shared_ptrIN7testing8internal15ExpectationBaseELN9__gnu_cxx12_Lock_policyE2EE31_M_enable_shared_from_this_withINS1_16TypedExpectationIFmvEEES9_EENSt9enable_ifIXntsrNS5_15__has_esft_baseIT0_vEE5valueEvE4typeEPT_
FNDA:0,_ZNSt12__shared_ptrIN7testing8internal15ExpectationBaseELN9__gnu_cxx12_Lock_policyE2EE31_M_enable_shared_from_this_withINS1_16TypedExpectationIFmvEEES9_EENSt9enable_ifIXntsrNS5_15__has_esft_baseIT0_vEE5valueEvE4typeEPT_
DA:117,0
DA:118,0
DA:121,0
DA:122,0
DA:121,0
DA:122,0
DA:131,0
DA:132,0
DA:138,0
DA:139,0
DA:148,0
DA:152,0
DA:155,0
DA:167,0
DA:168,0
DA:171,0
DA:174,0
DA:372,0
DA:373,0
DA:372,0
DA:373,0
DA:372,0
DA:373,0
DA:372,0
DA:373,0
DA:372,1
DA:373,1
DA:372,0
DA:373,0
DA:372,0
DA:373,0
DA:372,0
DA:373,0
DA:376,0
DA:377,0
DA:376,0
DA:377,0
DA:376,0
DA:377,0
DA:376,1
DA:377,1
DA:376,0
DA:377,0
DA:376,0
DA:377,0
DA:376,0
DA:377,0
DA:376,0
DA:377,0
DA:380,0
DA:381,0
DA:380,0
DA:381,0
DA:380,0
DA:381,0
DA:380,1
DA:381,1
DA:380,0
DA:381,0
DA:380,0
DA:381,0
DA:380,0
DA:381,0
DA:380,0
DA:381,0
DA:384,0
DA:385,0
DA:384,0
DA:385,0
DA:384,0
DA:385,0
DA:384,0
DA:385,0
DA:384,0
DA:385,0
DA:384,0
DA:385,0
DA:384,0
DA:385,0
DA:384,0
DA:385,0
DA:616,0
DA:617,0
DA:621,0
DA:625,0
DA:627,0
DA:629,0
DA:630,0
DA:632,0
DA:621,0
DA:625,0
DA:627,0
DA:629,0
DA:630,0
DA:632,0
DA:621,0
DA:625,0
DA:627,0
DA:629,0
DA:630,0
DA:632,0
DA:621,0
DA:625,0
DA:627,0
DA:629,0
DA:630,0
DA:632,0
DA:621,1
DA:625,1
DA:627,0
DA:629,0
DA:630,0
DA:632,1
DA:621,0
DA:625,0
DA:627,0
DA:629,0
DA:630,0
DA:632,0
DA:621,0
DA:625,0
DA:627,0
DA:629,0
DA:630,0
DA:632,0
DA:621,0
DA:625,0
DA:627,0
DA:629,0
DA:630,0
DA:632,0
DA:635,0
DA:636,0
DA:637,0
DA:635,0
DA:636,0
DA:637,0
DA:635,0
DA:636,0
DA:637,0
DA:635,0
DA:636,0
DA:637,0
DA:635,1
DA:636,1
DA:637,1
DA:635,0
DA:636,0
DA:637,0
DA:635,0
DA:636,0
DA:637,0
DA:635,0
DA:636,0
DA:637,0
DA:727,0
DA:729,0
DA:730,0
DA:731,0
DA:733,0
DA:734,0
DA:736,0
DA:737,0
DA:738,0
DA:741,0
DA:743,0
DA:744,0
DA:746,0
DA:747,0
DA:748,0
DA:749,0
DA:750,0
DA:752,0
DA:756,0
DA:758,0
DA:759,0
DA:760,0
DA:761,0
DA:1005,1
DA:1008,1
DA:1005,0
DA:1008,0
DA:1012,0
DA:1015,0
DA:1012,0
DA:1015,0
DA:1012,0
DA:1015,0
DA:1020,0
DA:1021,0
DA:1020,0
DA:1021,0
DA:1020,0
DA:1021,0
DA:1020,1
DA:1021,1
DA:1020,0
DA:1021,0
DA:1080,0
DA:1118,0
DA:1119,0
DA:1120,0
DA:1124,0
DA:1125,0
DA:1129,0
DA:1130,0
DA:1124,0
DA:1125,0
DA:1129,0
DA:1130,0
DA:1124,0
DA:1125,0
DA:1129,0
DA:1130,0
DA:1124,0
DA:1125,0
DA:1129,0
DA:1130,0
DA:1124,1
DA:1125,1
DA:1129,1
DA:1130,1
DA:1124,0
DA:1125,0
DA:1129,0
DA:1130,0
DA:1124,0
DA:1125,0
DA:1129,0
DA:1130,0
DA:1124,0
DA:1125,0
DA:1129,0
DA:1130,0
DA:1167,0
DA:1167,0
DA:1167,0
DA:1169,0
DA:1169,0
DA:1169,0
DA:1169,1
DA:1169,0
DA:1169,0
DA:1169,0
DA:1169,0
DA:1176,0
DA:1177,0
DA:1179,0
DA:1180,0
DA:1181,0
DA:1176,0
DA:1177,0
DA:1179,0
DA:1180,0
DA:1181,0
DA:1176,0
DA:1177,0
DA:1179,0
DA:1180,0
DA:1181,0
DA:1263,0
DA:1265,0
DA:1266,0
DA:1309,0
DA:1310,0
DA:1309,0
DA:1310,0
DA:1309,0
DA:1310,0
DA:1309,1
DA:1310,1
DA:1309,0
DA:1310,0
DA:1324,0
DA:1326,0
DA:1327,0
DA:1328,0
DA:1388,0
DA:1389,0
DA:1388,0
DA:1389,0
DA:1388,0
DA:1389,0
DA:1388,0
DA:1389,0
DA:1388,1
DA:1389,1
DA:1388,0
DA:1389,0
DA:1388,0
DA:1389,0
DA:1388,0
DA:1389,0
end_of_record
SF:/home/pieter/GitHub/Control-Surface/test/MIDI_Inputs/tests-MCU_VU.cpp
FN:9,_ZN19MCUVU_setValue_TestC2Ev
FNDA:1,_ZN19MCUVU_setValue_TestC2Ev
FN:9,_ZN19MCUVU_setValue_Test8TestBodyEv
FNDA:1,_ZN19MCUVU_setValue_Test8TestBodyEv
FN:22,_ZN22MCUVU_setOverload_TestC2Ev
FNDA:1,_ZN22MCUVU_setOverload_TestC2Ev
FN:22,_ZN22MCUVU_setOverload_Test8TestBodyEv
FNDA:1,_ZN22MCUVU_setOverload_Test8TestBodyEv
FN:35,_ZN24MCUVU_clearOverload_TestC2Ev
FNDA:1,_ZN24MCUVU_clearOverload_TestC2Ev
FN:35,_ZN24MCUVU_clearOverload_Test8TestBodyEv
FNDA:1,_ZN24MCUVU_clearOverload_Test8TestBodyEv
FN:51,_ZN35MCUVU_retainValueAfterOverload_TestC2Ev
FNDA:1,_ZN35MCUVU_retainValueAfterOverload_TestC2Ev
FN:51,_ZN35MCUVU_retainValueAfterOverload_Test8TestBodyEv
FNDA:1,_ZN35MCUVU_retainValueAfterOverload_Test8TestBodyEv
FN:73,_ZN16MCUVU_decay_TestC2Ev
FNDA:1,_ZN16MCUVU_decay_TestC2Ev
FN:73,_ZN16MCUVU_decay_Test8TestBodyEv
FNDA:1,_ZN16MCUVU_decay_Test8TestBodyEv
FN:93,_ZN44MCUVUBankable_setValueBankChangeAddress_TestC2Ev
FNDA:1,_ZN44MCUVUBankable_setValueBankChangeAddress_TestC2Ev
FN:93,_ZN44MCUVUBankable_setValueBankChangeAddress_Test8TestBodyEv
FNDA:1,_ZN44MCUVUBankable_setValueBankChangeAddress_Test8TestBodyEv
FN:109,_ZN44MCUVUBankable_setValueBankChangeChannel_TestC2Ev
FNDA:1,_ZN44MCUVUBankable_setValueBankChangeChannel_TestC2Ev
FN:109,_ZN44MCUVUBankable_setValueBankChangeChannel_Test8TestBodyEv
FNDA:1,_ZN44MCUVUBankable_setValueBankChangeChannel_Test8TestBodyEv
FN:132,_ZN44MCUVUBankable_overloadBankChangeAddress_TestC2Ev
FNDA:1,_ZN44MCUVUBankable_overloadBankChangeAddress_TestC2Ev
FN:132,_ZN44MCUVUBankable_overloadBankChangeAddress_Test8TestBodyEv
FNDA:1,_ZN44MCUVUBankable_overloadBankChangeAddress_Test8TestBodyEv
FN:162,_ZN42MCUVULEDsBankable_displayOnBankChange_Test8TestBodyEv
FNDA:1,_ZN42MCUVULEDsBankable_displayOnBankChange_Test8TestBodyEv
FN:162,_ZN42MCUVULEDsBankable_displayOnBankChange_TestC2Ev
FNDA:1,_ZN42MCUVULEDsBankable_displayOnBankChange_TestC2Ev
DA:9,1
DA:10,1
DA:11,1
DA:12,2
DA:14,1
DA:15,1
DA:16,1
DA:17,1
DA:19,1
DA:20,1
DA:9,1
DA:22,1
DA:23,1
DA:24,1
DA:25,2
DA:27,1
DA:28,1
DA:29,1
DA:30,1
DA:32,1
DA:33,1
DA:22,1
DA:35,1
DA:36,1
DA:37,1
DA:38,2
DA:40,1
DA:41,1
DA:43,1
DA:44,1
DA:45,1
DA:46,1
DA:48,1
DA:49,1
DA:35,1
DA:51,1
DA:52,1
DA:53,1
DA:54,2
DA:56,1
DA:57,1
DA:58,1
DA:59,1
DA:61,1
DA:62,1
DA:63,1
DA:65,1
DA:66,1
DA:67,1
DA:68,1
DA:70,1
DA:71,1
DA:51,1
DA:73,1
DA:74,1
DA:75,1
DA:76,1
DA:77,2
DA:79,1
DA:80,1
DA:81,1
DA:82,1
DA:83,1
DA:84,1
DA:85,1
DA:86,1
DA:88,1
DA:89,1
DA:73,1
DA:93,1
DA:94,1
DA:95,1
DA:96,1
DA:97,2
DA:99,1
DA:100,1
DA:101,1
DA:102,1
DA:103,1
DA:104,1
DA:106,1
DA:107,1
DA:93,1
DA:109,1
DA:110,1
DA:111,1
DA:112,1
DA:113,2
DA:115,1
DA:117,1
DA:118,1
DA:119,2
DA:120,1
DA:121,1
DA:122,1
DA:123,1
DA:124,1
DA:125,1
DA:126,1
DA:127,1
DA:129,1
DA:130,1
DA:109,1
DA:132,1
DA:133,1
DA:134,1
DA:135,1
DA:136,2
DA:137,1
DA:138,1
DA:139,1
DA:141,1
DA:142,1
DA:143,1
DA:144,1
DA:145,1
DA:146,1
DA:148,1
DA:149,1
DA:150,1
DA:151,1
DA:152,1
DA:153,1
DA:155,1
DA:156,1
DA:132,1
DA:162,1
DA:163,1
DA:164,1
DA:165,1
DA:166,1
DA:168,2
DA:170,1
DA:171,1
DA:173,1
DA:176,1
DA:178,1
DA:179,1
DA:180,1
DA:181,1
DA:182,1
DA:183,1
DA:184,1
DA:185,1
DA:186,1
DA:188,1
DA:189,1
DA:190,1
DA:191,1
DA:192,1
DA:193,1
DA:194,1
DA:195,1
DA:197,1
DA:198,1
DA:162,1
end_of_record
SF:/usr/include/c++/9/ext/new_allocator.h
FN:80,_ZN9__gnu_cxx13new_allocatorIcEC2Ev
FNDA:0,_ZN9__gnu_cxx13new_allocatorIcEC2Ev
FN:83,_ZN9__gnu_cxx13new_allocatorIcEC2ERKS1_
FNDA:0,_ZN9__gnu_cxx13new_allocatorIcEC2ERKS1_
FN:89,_ZN9__gnu_cxx13new_allocatorIcED2Ev
FNDA:0,_ZN9__gnu_cxx13new_allocatorIcED2Ev
FN:102,_ZN9__gnu_cxx13new_allocatorIPKvE8allocateEmS2_
FNDA:0,_ZN9__gnu_cxx13new_allocatorIPKvE8allocateEmS2_
FN:102,_ZN9__gnu_cxx13new_allocatorISt10shared_ptrIN7testing8internal15ExpectationBaseEEE8allocateEmPKv
FNDA:0,_ZN9__gnu_cxx13new_allocatorISt10shared_ptrIN7testing8internal15ExpectationBaseEEE8allocateEmPKv
FN:119,_ZN9__gnu_cxx13new_allocatorISt10shared_ptrIN7testing8internal15ExpectationBaseEEE10deallocateEPS5_m
FNDA:0,_ZN9__gnu_cxx13new_allocatorISt10shared_ptrIN7testing8internal15ExpectationBaseEEE10deallocateEPS5_m
FN:119,_ZN9__gnu_cxx13new_allocatorIPKvE10deallocateEPS2_m
FNDA:0,_ZN9__gnu_cxx13new_allocatorIPKvE10deallocateEPS2_m
FN:132,_ZNK9__gnu_cxx13new_allocatorIPKvE8max_sizeEv
FNDA:0,_ZNK9__gnu_cxx13new_allocatorIPKvE8max_sizeEv
FN:132,_ZNK9__gnu_cxx13new_allocatorISt10shared_ptrIN7testing8internal15ExpectationBaseEEE8max_sizeEv
FNDA:0,_ZNK9__gnu_cxx13new_allocatorISt10shared_ptrIN7testing8internal15ExpectationBaseEEE8max_sizeEv
FN:144,_ZN9__gnu_cxx13new_allocatorISt10shared_ptrIN7testing8internal15ExpectationBaseEEE9constructIS5_JS5_EEEvPT_DpOT0_
FNDA:0,_ZN9__gnu_cxx13new_allocatorISt10shared_ptrIN7testing8internal15ExpectationBaseEEE9constructIS5_JS5_EEEvPT_DpOT0_
FN:144,_ZN9__gnu_cxx13new_allocatorIPKvE9constructIS2_JS2_EEEvPT_DpOT0_
FNDA:0,_ZN9__gnu_cxx13new_allocatorIPKvE9constructIS2_JS2_EEEvPT_DpOT0_
FN:144,_ZN9__gnu_cxx13new_allocatorISt10shared_ptrIN7testing8internal15ExpectationBaseEEE9constructIS5_JRKS5_EEEvPT_DpOT0_
FNDA:0,_ZN9__gnu_cxx13new_allocatorISt10shared_ptrIN7testing8internal15ExpectationBaseEEE9constructIS5_JRKS5_EEEvPT_DpOT0_
FN:151,_ZN9__gnu_cxx13new_allocatorIPKvE7destroyIS2_EEvPT_
FNDA:0,_ZN9__gnu_cxx13new_allocatorIPKvE7destroyIS2_EEvPT_
FN:151,_ZN9__gnu_cxx13new_allocatorISt10shared_ptrIN7testing8internal15ExpectationBaseEEE7destroyIS5_EEvPT_
FNDA:0,_ZN9__gnu_cxx13new_allocatorISt10shared_ptrIN7testing8internal15ExpectationBaseEEE7destroyIS5_EEvPT_
DA:80,0
DA:83,0
DA:89,0
DA:102,0
DA:104,0
DA:105,0
DA:114,0
DA:102,0
DA:104,0
DA:105,0
DA:114,0
DA:119,0
DA:128,0
DA:129,0
DA:119,0
DA:128,0
DA:129,0
DA:132,0
DA:135,0
DA:132,0
DA:135,0
DA:144,0
DA:147,0
DA:144,0
DA:147,0
DA:144,0
DA:147,0
DA:151,0
DA:153,0
DA:151,0
DA:153,0
end_of_record
SF:/home/pieter/GitHub/Control-Surface/build/googletest/googletest-src/googlemock/include/gmock/gmock-matchers.h
FN:494,_ZNK7testing8internal14AnyMatcherImplIRKSt5tupleIJEEE15MatchAndExplainES5_PNS_19MatchResultListenerE
FNDA:0,_ZNK7testing8internal14AnyMatcherImplIRKSt5tupleIJEEE15MatchAndExplainES5_PNS_19MatchResultListenerE
FN:494,_ZNK7testing8internal14AnyMatcherImplIRKSt5tupleIJhhEEE15MatchAndExplainES5_PNS_19MatchResultListenerE
FNDA:0,_ZNK7testing8internal14AnyMatcherImplIRKSt5tupleIJhhEEE15MatchAndExplainES5_PNS_19MatchResultListenerE
FN:498,_ZNK7testing8internal14AnyMatcherImplIRKSt5tupleIJEEE10DescribeToEPSo
FNDA:0,_ZNK7testing8internal14AnyMatcherImplIRKSt5tupleIJEEE10DescribeToEPSo
FN:498,_ZNK7testing8internal14AnyMatcherImplIRKSt5tupleIJhhEEE10DescribeToEPSo
FNDA:0,_ZNK7testing8internal14AnyMatcherImplIRKSt5tupleIJhhEEE10DescribeToEPSo
FN:499,_ZNK7testing8internal14AnyMatcherImplIRKSt5tupleIJEEE18DescribeNegationToEPSo
FNDA:0,_ZNK7testing8internal14AnyMatcherImplIRKSt5tupleIJEEE18DescribeNegationToEPSo
FN:499,_ZNK7testing8internal14AnyMatcherImplIRKSt5tupleIJhhEEE18DescribeNegationToEPSo
FNDA:0,_ZNK7testing8internal14AnyMatcherImplIRKSt5tupleIJhhEEE18DescribeNegationToEPSo
FN:3596,_ZN7testing1AIRKSt5tupleIJhhEEEENS_7MatcherIT_EEv
FNDA:0,_ZN7testing1AIRKSt5tupleIJhhEEEENS_7MatcherIT_EEv
FN:3596,_ZN7testing1AIRKSt5tupleIJEEEENS_7MatcherIT_EEv
FNDA:0,_ZN7testing1AIRKSt5tupleIJEEEENS_7MatcherIT_EEv
DA:494,0
DA:496,0
DA:494,0
DA:496,0
DA:498,0
DA:498,0
DA:499,0
DA:503,0
DA:504,0
DA:499,0
DA:503,0
DA:504,0
DA:3596,0
DA:3597,0
DA:3596,0
DA:3597,0
end_of_record
SF:/usr/include/c++/9/iostream
end_of_record
SF:/home/pieter/GitHub/Control-Surface/src/Banks/BankableMIDIInput.hpp
FN:31,_ZN17BankableMIDIInputILh2EEC2ER4BankILh2EE8BankType
FNDA:3,_ZN17BankableMIDIInputILh2EEC2ER4BankILh2EE8BankType
FN:31,_ZN17BankableMIDIInputILh3EEC2ER4BankILh3EE8BankType
FNDA:1,_ZN17BankableMIDIInputILh3EEC2ER4BankILh3EE8BankType
FN:43,_ZN17BankableMIDIInputILh2EEC2ERK10BankConfigILh2EE
FNDA:3,_ZN17BankableMIDIInputILh2EEC2ERK10BankConfigILh2EE
FN:43,_ZN17BankableMIDIInputILh3EEC2ERK10BankConfigILh3EE
FNDA:1,_ZN17BankableMIDIInputILh3EEC2ERK10BankConfigILh3EE
FN:50,_ZN17BankableMIDIInputILh3EED0Ev
FNDA:0,_ZN17BankableMIDIInputILh3EED0Ev
FN:50,_ZN17BankableMIDIInputILh3EED2Ev
FNDA:1,_ZN17BankableMIDIInputILh3EED2Ev
FN:50,_ZN17BankableMIDIInputILh2EED0Ev
FNDA:0,_ZN17BankableMIDIInputILh2EED0Ev
FN:50,_ZN17BankableMIDIInputILh2EED2Ev
FNDA:3,_ZN17BankableMIDIInputILh2EED2Ev
FN:57,_ZNK17BankableMIDIInputILh2EE12getSelectionEv
FNDA:14,_ZNK17BankableMIDIInputILh2EE12getSelectionEv
FN:57,_ZNK17BankableMIDIInputILh3EE12getSelectionEv
FNDA:3,_ZNK17BankableMIDIInputILh3EE12getSelectionEv
FN:69,_ZNK17BankableMIDIInputILh3EE8getIndexERK20MIDICNChannelAddressS3_
FNDA:2,_ZNK17BankableMIDIInputILh3EE8getIndexERK20MIDICNChannelAddressS3_
FN:69,_ZNK17BankableMIDIInputILh2EE8getIndexERK20MIDICNChannelAddressS3_
FNDA:5,_ZNK17BankableMIDIInputILh2EE8getIndexERK20MIDICNChannelAddressS3_
FN:110,_ZNK17BankableMIDIInputILh2EE13matchBankableEhh
FNDA:5,_ZNK17BankableMIDIInputILh2EE13matchBankableEhh
FN:110,_ZNK17BankableMIDIInputILh3EE13matchBankableEhh
FNDA:2,_ZNK17BankableMIDIInputILh3EE13matchBankableEhh
FN:160,_ZNK17BankableMIDIInputILh2EE13matchBankableERK20MIDICNChannelAddressS3_
FNDA:5,_ZNK17BankableMIDIInputILh2EE13matchBankableERK20MIDICNChannelAddressS3_
FN:160,_ZNK17BankableMIDIInputILh3EE13matchBankableERK20MIDICNChannelAddressS3_
FNDA:2,_ZNK17BankableMIDIInputILh3EE13matchBankableERK20MIDICNChannelAddressS3_
FN:240,_ZNK17BankableMIDIInputILh3EE19onBankSettingChangeEv
FNDA:2,_ZNK17BankableMIDIInputILh3EE19onBankSettingChangeEv
FN:240,_ZNK17BankableMIDIInputILh2EE19onBankSettingChangeEv
FNDA:6,_ZNK17BankableMIDIInputILh2EE19onBankSettingChangeEv
DA:31,1
DA:32,1
DA:33,1
DA:31,3
DA:32,3
DA:33,3
DA:43,1
DA:44,1
DA:43,3
DA:44,3
DA:50,0
DA:50,1
DA:50,0
DA:50,3
DA:57,3
DA:57,14
DA:69,2
DA:71,2
DA:72,0
DA:73,0
DA:74,0
DA:75,2
DA:76,2
DA:77,2
DA:78,2
DA:79,0
DA:80,0
DA:81,0
DA:82,0
DA:69,5
DA:71,5
DA:72,5
DA:73,5
DA:74,5
DA:75,0
DA:76,0
DA:77,0
DA:78,0
DA:79,0
DA:80,0
DA:81,0
DA:82,0
DA:110,2
DA:111,2
DA:112,4
DA:113,4
DA:110,5
DA:111,5
DA:112,10
DA:113,10
DA:160,2
DA:162,2
DA:163,0
DA:164,2
DA:165,0
DA:166,0
DA:167,0
DA:168,0
DA:170,2
DA:171,4
DA:172,4
DA:173,2
DA:174,4
DA:176,0
DA:177,0
DA:178,0
DA:179,0
DA:180,0
DA:182,0
DA:160,5
DA:162,5
DA:163,0
DA:164,5
DA:165,5
DA:166,10
DA:167,10
DA:168,10
DA:170,0
DA:171,0
DA:172,0
DA:173,0
DA:174,0
DA:176,0
DA:177,0
DA:178,0
DA:179,0
DA:180,0
DA:182,0
DA:240,2
DA:240,6
end_of_record
SF:/usr/include/c++/9/ext/atomicity.h
FN:48,_ZN9__gnu_cxxL18__exchange_and_addEPVii
FNDA:0,_ZN9__gnu_cxxL18__exchange_and_addEPVii
FN:52,_ZN9__gnu_cxxL12__atomic_addEPVii
FNDA:0,_ZN9__gnu_cxxL12__atomic_addEPVii
FN:65,_ZN9__gnu_cxxL25__exchange_and_add_singleEPii
FNDA:0,_ZN9__gnu_cxxL25__exchange_and_add_singleEPii
FN:73,_ZN9__gnu_cxxL19__atomic_add_singleEPii
FNDA:0,_ZN9__gnu_cxxL19__atomic_add_singleEPii
FN:78,_ZN9__gnu_cxxL27__exchange_and_add_dispatchEPii
FNDA:0,_ZN9__gnu_cxxL27__exchange_and_add_dispatchEPii
FN:92,_ZN9__gnu_cxxL21__atomic_add_dispatchEPii
FNDA:0,_ZN9__gnu_cxxL21__atomic_add_dispatchEPii
DA:48,0
DA:49,0
DA:52,0
DA:53,0
DA:65,0
DA:67,0
DA:68,0
DA:69,0
DA:73,0
DA:74,0
DA:78,0
DA:81,0
DA:82,0
DA:84,0
DA:92,0
DA:95,0
DA:96,0
DA:98,0
DA:102,0
end_of_record
SF:/usr/include/c++/9/ext/alloc_traits.h
FN:97,_ZN9__gnu_cxx14__alloc_traitsISaIcEcE17_S_select_on_copyERKS1_
FNDA:0,_ZN9__gnu_cxx14__alloc_traitsISaIcEcE17_S_select_on_copyERKS1_
DA:97,0
DA:98,0
end_of_record
SF:/usr/include/c++/9/typeinfo
FN:120,_ZNKSt9type_infoeqERKS_
FNDA:0,_ZNKSt9type_infoeqERKS_
DA:120,0
DA:122,0
DA:123,0
DA:124,0
end_of_record
SF:/home/pieter/GitHub/Control-Surface/src/Banks/Bank.hpp
FN:29,_ZN10OutputBankC2Ehh
FNDA:0,_ZN10OutputBankC2Ehh
FN:42,_ZN10OutputBank6selectEh
FNDA:0,_ZN10OutputBank6selectEh
FN:47,_ZNK10OutputBank12getSelectionEv
FNDA:0,_ZNK10OutputBank12getSelectionEv
FN:53,_ZNK10OutputBank16getTracksPerBankEv
FNDA:0,_ZNK10OutputBank16getTracksPerBankEv
FN:82,_ZN4BankILh3EEC2Ehh
FNDA:1,_ZN4BankILh3EEC2Ehh
FN:82,_ZN4BankILh2EEC2Ehh
FNDA:3,_ZN4BankILh2EEC2Ehh
FN:133,_ZN4BankILh3EE3addEP17BankableMIDIInputILh3EE
FNDA:1,_ZN4BankILh3EE3addEP17BankableMIDIInputILh3EE
FN:133,_ZN4BankILh2EE3addEP17BankableMIDIInputILh2EE
FNDA:3,_ZN4BankILh2EE3addEP17BankableMIDIInputILh2EE
FN:138,_ZN4BankILh3EE6removeEP17BankableMIDIInputILh3EE
FNDA:1,_ZN4BankILh3EE6removeEP17BankableMIDIInputILh3EE
FN:138,_ZN4BankILh2EE6removeEP17BankableMIDIInputILh2EE
FNDA:3,_ZN4BankILh2EE6removeEP17BankableMIDIInputILh2EE
FN:143,_ZN4BankILh3EE6selectEh
FNDA:2,_ZN4BankILh3EE6selectEh
FN:143,_ZN4BankILh2EE6selectEh
FNDA:8,_ZN4BankILh2EE6selectEh
DA:29,0
DA:30,0
DA:31,0
DA:32,0
DA:34,0
DA:42,0
DA:47,0
DA:53,0
DA:82,1
DA:84,1
DA:82,3
DA:84,3
DA:133,1
DA:134,1
DA:135,1
DA:133,3
DA:134,3
DA:135,3
DA:138,1
DA:139,1
DA:140,1
DA:138,3
DA:139,3
DA:140,3
DA:143,2
DA:144,2
DA:145,2
DA:146,4
DA:147,2
DA:148,2
DA:143,8
DA:144,8
DA:145,8
DA:146,16
DA:147,8
DA:148,8
end_of_record
SF:/usr/include/c++/9/bits/alloc_traits.h
FN:443,_ZNSt16allocator_traitsISaIPKvEE8allocateERS2_m
FNDA:0,_ZNSt16allocator_traitsISaIPKvEE8allocateERS2_m
FN:443,_ZNSt16allocator_traitsISaISt10shared_ptrIN7testing8internal15ExpectationBaseEEEE8allocateERS5_m
FNDA:0,_ZNSt16allocator_traitsISaISt10shared_ptrIN7testing8internal15ExpectationBaseEEEE8allocateERS5_m
FN:469,_ZNSt16allocator_traitsISaISt10shared_ptrIN7testing8internal15ExpectationBaseEEEE10deallocateERS5_PS4_m
FNDA:0,_ZNSt16allocator_traitsISaISt10shared_ptrIN7testing8internal15ExpectationBaseEEEE10deallocateERS5_PS4_m
FN:469,_ZNSt16allocator_traitsISaIPKvEE10deallocateERS2_PS1_m
FNDA:0,_ZNSt16allocator_traitsISaIPKvEE10deallocateERS2_PS1_m
FN:482,_ZNSt16allocator_traitsISaISt10shared_ptrIN7testing8internal15ExpectationBaseEEEE9constructIS4_JS4_EEEvRS5_PT_DpOT0_
FNDA:0,_ZNSt16allocator_traitsISaISt10shared_ptrIN7testing8internal15ExpectationBaseEEEE9constructIS4_JS4_EEEvRS5_PT_DpOT0_
FN:482,_ZNSt16allocator_traitsISaIPKvEE9constructIS1_JS1_EEEvRS2_PT_DpOT0_
FNDA:0,_ZNSt16allocator_traitsISaIPKvEE9constructIS1_JS1_EEEvRS2_PT_DpOT0_
FN:482,_ZNSt16allocator_traitsISaISt10shared_ptrIN7testing8internal15ExpectationBaseEEEE9constructIS4_JRKS4_EEEvRS5_PT_DpOT0_
FNDA:0,_ZNSt16allocator_traitsISaISt10shared_ptrIN7testing8internal15ExpectationBaseEEEE9constructIS4_JRKS4_EEEvRS5_PT_DpOT0_
FN:495,_ZNSt16allocator_traitsISaIPKvEE7destroyIS1_EEvRS2_PT_
FNDA:0,_ZNSt16allocator_traitsISaIPKvEE7destroyIS1_EEvRS2_PT_
FN:495,_ZNSt16allocator_traitsISaISt10shared_ptrIN7testing8internal15ExpectationBaseEEEE7destroyIS4_EEvRS5_PT_
FNDA:0,_ZNSt16allocator_traitsISaISt10shared_ptrIN7testing8internal15ExpectationBaseEEEE7destroyIS4_EEvRS5_PT_
FN:505,_ZNSt16allocator_traitsISaIPKvEE8max_sizeERKS2_
FNDA:0,_ZNSt16allocator_traitsISaIPKvEE8max_sizeERKS2_
FN:505,_ZNSt16allocator_traitsISaISt10shared_ptrIN7testing8internal15ExpectationBaseEEEE8max_sizeERKS5_
FNDA:0,_ZNSt16allocator_traitsISaISt10shared_ptrIN7testing8internal15ExpectationBaseEEEE8max_sizeERKS5_
FN:514,_ZNSt16allocator_traitsISaIcEE37select_on_container_copy_constructionERKS0_
FNDA:0,_ZNSt16allocator_traitsISaIcEE37select_on_container_copy_constructionERKS0_
DA:443,0
DA:444,0
DA:443,0
DA:444,0
DA:469,0
DA:470,0
DA:469,0
DA:470,0
DA:482,0
DA:484,0
DA:482,0
DA:484,0
DA:482,0
DA:484,0
DA:495,0
DA:497,0
DA:495,0
DA:497,0
DA:505,0
DA:506,0
DA:505,0
DA:506,0
DA:514,0
DA:515,0
end_of_record
SF:/usr/include/c++/9/bits/stl_algobase.h
FN:198,_ZSt3minImERKT_S2_S2_
FNDA:0,_ZSt3minImERKT_S2_S2_
FN:222,_ZSt3maxImERKT_S2_S2_
FNDA:0,_ZSt3maxImERKT_S2_S2_
FN:280,_ZSt12__niter_baseIPPKvET_S3_
FNDA:0,_ZSt12__niter_baseIPPKvET_S3_
FN:280,_ZSt12__niter_baseIPSt10shared_ptrIN7testing8internal15ExpectationBaseEEET_S6_
FNDA:0,_ZSt12__niter_baseIPSt10shared_ptrIN7testing8internal15ExpectationBaseEEET_S6_
FN:295,_ZSt12__niter_wrapIPPKvET_RKS3_S3_
FNDA:0,_ZSt12__niter_wrapIPPKvET_RKS3_S3_
FN:375,_ZNSt11__copy_moveILb1ELb1ESt26random_access_iterator_tagE8__copy_mIPKvEEPT_PKS5_S8_S6_
FNDA:0,_ZNSt11__copy_moveILb1ELb1ESt26random_access_iterator_tagE8__copy_mIPKvEEPT_PKS5_S8_S6_
FN:393,_ZSt13__copy_move_aILb1EPPKvS2_ET1_T0_S4_S3_
FNDA:0,_ZSt13__copy_move_aILb1EPPKvS2_ET1_T0_S4_S3_
FN:438,_ZSt14__copy_move_a2ILb1EPPKvS2_ET1_T0_S4_S3_
FNDA:0,_ZSt14__copy_move_a2ILb1EPPKvS2_ET1_T0_S4_S3_
FN:465,_ZSt4copyISt13move_iteratorIPPKvES3_ET0_T_S6_S5_
FNDA:0,_ZSt4copyISt13move_iteratorIPPKvES3_ET0_T_S6_S5_
DA:198,0
DA:203,0
DA:204,0
DA:205,0
DA:222,0
DA:227,0
DA:228,0
DA:229,0
DA:280,0
DA:282,0
DA:280,0
DA:282,0
DA:295,0
DA:296,0
DA:375,0
DA:384,0
DA:385,0
DA:386,0
DA:387,0
DA:393,0
DA:398,0
DA:404,0
DA:438,0
DA:440,0
DA:443,0
DA:465,0
DA:474,0
end_of_record
SF:/home/pieter/GitHub/Control-Surface/build/googletest/googletest-src/googletest/include/gtest/gtest-matchers.h
FN:117,_ZN7testing25MatcherDescriberInterfaceD2Ev
FNDA:0,_ZN7testing25MatcherDescriberInterfaceD2Ev
FN:117,_ZN7testing25MatcherDescriberInterfaceD0Ev
FNDA:0,_ZN7testing25MatcherDescriberInterfaceD0Ev
FN:132,_ZNK7testing25MatcherDescriberInterface18DescribeNegationToEPSo
FNDA:0,_ZNK7testing25MatcherDescriberInterface18DescribeNegationToEPSo
FN:210,_ZNK7testing8internal5AnyEqclIhhEEbRKT_RKT0_
FNDA:0,_ZNK7testing8internal5AnyEqclIhhEEbRKT_RKT0_
FN:258,_ZN7testing8internal11MatcherBaseIhEaSEOS2_
FNDA:0,_ZN7testing8internal11MatcherBaseIhEaSEOS2_
FN:273,_ZNK7testing8internal11MatcherBaseIRKSt5tupleIJhhEEE10DescribeToEPSo
FNDA:0,_ZNK7testing8internal11MatcherBaseIRKSt5tupleIJhhEEE10DescribeToEPSo
FN:273,_ZNK7testing8internal11MatcherBaseIRKSt5tupleIJEEE10DescribeToEPSo
FNDA:0,_ZNK7testing8internal11MatcherBaseIRKSt5tupleIJEEE10DescribeToEPSo
FN:294,_ZN7testing8internal11MatcherBaseIhEC2Ev
FNDA:0,_ZN7testing8internal11MatcherBaseIhEC2Ev
FN:297,_ZN7testing8internal11MatcherBaseIhEC2EPKNS_16MatcherInterfaceIRKhEE
FNDA:0,_ZN7testing8internal11MatcherBaseIhEC2EPKNS_16MatcherInterfaceIRKhEE
FN:297,_ZN7testing8internal11MatcherBaseIRKSt5tupleIJEEEC2EPKNS_16MatcherInterfaceIS5_EE
FNDA:0,_ZN7testing8internal11MatcherBaseIRKSt5tupleIJEEEC2EPKNS_16MatcherInterfaceIS5_EE
FN:297,_ZN7testing8internal11MatcherBaseIRKSt5tupleIJhhEEEC2EPKNS_16MatcherInterfaceIS5_EE
FNDA:0,_ZN7testing8internal11MatcherBaseIRKSt5tupleIJhhEEEC2EPKNS_16MatcherInterfaceIS5_EE
FN:306,_ZN7testing8internal11MatcherBaseIhEC2ERKS2_
FNDA:0,_ZN7testing8internal11MatcherBaseIhEC2ERKS2_
FN:308,_ZN7testing8internal11MatcherBaseIhEC2EOS2_
FNDA:0,_ZN7testing8internal11MatcherBaseIhEC2EOS2_
FN:311,_ZN7testing8internal11MatcherBaseIRKSt5tupleIJEEED2Ev
FNDA:0,_ZN7testing8internal11MatcherBaseIRKSt5tupleIJEEED2Ev
FN:311,_ZN7testing8internal11MatcherBaseIhED0Ev
FNDA:0,_ZN7testing8internal11MatcherBaseIhED0Ev
FN:311,_ZN7testing8internal11MatcherBaseIhED2Ev
FNDA:0,_ZN7testing8internal11MatcherBaseIhED2Ev
FN:311,_ZN7testing8internal11MatcherBaseIRKSt5tupleIJEEED0Ev
FNDA:0,_ZN7testing8internal11MatcherBaseIRKSt5tupleIJEEED0Ev
FN:311,_ZN7testing8internal11MatcherBaseIRKSt5tupleIJhhEEED2Ev
FNDA:0,_ZN7testing8internal11MatcherBaseIRKSt5tupleIJhhEEED2Ev
FN:311,_ZN7testing8internal11MatcherBaseIRKSt5tupleIJhhEEED0Ev
FNDA:0,_ZN7testing8internal11MatcherBaseIRKSt5tupleIJhhEEED0Ev
FN:332,_ZN7testing7MatcherIhEC2EPKNS_16MatcherInterfaceIRKhEE
FNDA:0,_ZN7testing7MatcherIhEC2EPKNS_16MatcherInterfaceIRKhEE
FN:332,_ZN7testing7MatcherIRKSt5tupleIJEEEC2EPKNS_16MatcherInterfaceIS4_EE
FNDA:0,_ZN7testing7MatcherIRKSt5tupleIJEEEC2EPKNS_16MatcherInterfaceIS4_EE
FN:332,_ZN7testing7MatcherIRKSt5tupleIJhhEEEC2EPKNS_16MatcherInterfaceIS4_EE
FNDA:0,_ZN7testing7MatcherIRKSt5tupleIJhhEEEC2EPKNS_16MatcherInterfaceIS4_EE
FN:529,_ZN7testing8internal14ComparisonBaseINS0_9EqMatcherIhEEhNS0_5AnyEqEEC2ERKh
FNDA:0,_ZN7testing8internal14ComparisonBaseINS0_9EqMatcherIhEEhNS0_5AnyEqEEC2ERKh
FN:531,_ZNK7testing8internal14ComparisonBaseINS0_9EqMatcherIhEEhNS0_5AnyEqEEcvNS_7MatcherIT_EEIhEEv
FNDA:0,_ZNK7testing8internal14ComparisonBaseINS0_9EqMatcherIhEEhNS0_5AnyEqEEcvNS_7MatcherIT_EEIhEEv
FN:537,_ZN7testing8internal14ComparisonBaseINS0_9EqMatcherIhEEhNS0_5AnyEqEE6UnwrapIhEERKT_S9_
FNDA:0,_ZN7testing8internal14ComparisonBaseINS0_9EqMatcherIhEEhNS0_5AnyEqEE6UnwrapIhEERKT_S9_
FN:544,_ZN7testing8internal14ComparisonBaseINS0_9EqMatcherIhEEhNS0_5AnyEqEE4ImplIRKhhEC2ES8_
FNDA:0,_ZN7testing8internal14ComparisonBaseINS0_9EqMatcherIhEEhNS0_5AnyEqEE4ImplIRKhhEC2ES8_
FN:545,_ZNK7testing8internal14ComparisonBaseINS0_9EqMatcherIhEEhNS0_5AnyEqEE4ImplIRKhhE15MatchAndExplainES8_PNS_19MatchResultListenerE
FNDA:0,_ZNK7testing8internal14ComparisonBaseINS0_9EqMatcherIhEEhNS0_5AnyEqEE4ImplIRKhhE15MatchAndExplainES8_PNS_19MatchResultListenerE
FN:549,_ZNK7testing8internal14ComparisonBaseINS0_9EqMatcherIhEEhNS0_5AnyEqEE4ImplIRKhhE10DescribeToEPSo
FNDA:0,_ZNK7testing8internal14ComparisonBaseINS0_9EqMatcherIhEEhNS0_5AnyEqEE4ImplIRKhhE10DescribeToEPSo
FN:553,_ZNK7testing8internal14ComparisonBaseINS0_9EqMatcherIhEEhNS0_5AnyEqEE4ImplIRKhhE18DescribeNegationToEPSo
FNDA:0,_ZNK7testing8internal14ComparisonBaseINS0_9EqMatcherIhEEhNS0_5AnyEqEE4ImplIRKhhE18DescribeNegationToEPSo
FN:567,_ZN7testing8internal9EqMatcherIhEC2ERKh
FNDA:0,_ZN7testing8internal9EqMatcherIhEC2ERKh
FN:569,_ZN7testing8internal9EqMatcherIhE4DescEv
FNDA:0,_ZN7testing8internal9EqMatcherIhE4DescEv
FN:570,_ZN7testing8internal9EqMatcherIhE11NegatedDescEv
FNDA:0,_ZN7testing8internal9EqMatcherIhE11NegatedDescEv
FN:693,_ZN7testing2EqIhEENS_8internal9EqMatcherIT_EES3_
FNDA:0,_ZN7testing2EqIhEENS_8internal9EqMatcherIT_EES3_
FN:698,_ZN7testing7MatcherIhEC2Eh
FNDA:0,_ZN7testing7MatcherIhEC2Eh
DA:117,0
DA:117,0
DA:132,0
DA:133,0
DA:134,0
DA:135,0
DA:136,0
DA:210,0
DA:258,0
DA:273,0
DA:273,0
DA:294,0
DA:297,0
DA:297,0
DA:297,0
DA:306,0
DA:308,0
DA:311,0
DA:311,0
DA:311,0
DA:311,0
DA:311,0
DA:311,0
DA:332,0
DA:333,0
DA:332,0
DA:333,0
DA:332,0
DA:333,0
DA:529,0
DA:531,0
DA:532,0
DA:537,0
DA:544,0
DA:545,0
DA:547,0
DA:549,0
DA:550,0
DA:551,0
DA:552,0
DA:553,0
DA:554,0
DA:555,0
DA:556,0
DA:567,0
DA:568,0
DA:569,0
DA:570,0
DA:693,0
DA:698,0
end_of_record
SF:/usr/include/c++/9/tuple
FN:76,_ZNSt10_Head_baseILm1ESt14default_deleteINSt7__cxx1112basic_stringIcSt11char_traitsIcESaIcEEEELb1EEC2Ev
FNDA:0,_ZNSt10_Head_baseILm1ESt14default_deleteINSt7__cxx1112basic_stringIcSt11char_traitsIcESaIcEEEELb1EEC2Ev
FN:113,_ZNSt10_Head_baseILm1ESt14default_deleteINSt7__cxx1112basic_stringIcSt11char_traitsIcESaIcEEEELb1EE7_M_headERS8_
FNDA:0,_ZNSt10_Head_baseILm1ESt14default_deleteINSt7__cxx1112basic_stringIcSt11char_traitsIcESaIcEEEELb1EE7_M_headERS8_
FN:113,_ZNSt10_Head_baseILm1ESt14default_deleteINSt7__cxx1118basic_stringstreamIcSt11char_traitsIcESaIcEEEELb1EE7_M_headERS8_
FNDA:0,_ZNSt10_Head_baseILm1ESt14default_deleteINSt7__cxx1118basic_stringstreamIcSt11char_traitsIcESaIcEEEELb1EE7_M_headERS8_
FN:122,_ZNSt10_Head_baseILm0EPNSt7__cxx1112basic_stringIcSt11char_traitsIcESaIcEEELb0EEC2Ev
FNDA:0,_ZNSt10_Head_baseILm0EPNSt7__cxx1112basic_stringIcSt11char_traitsIcESaIcEEELb0EEC2Ev
FN:128,_ZNSt10_Head_baseILm0EN7testing7MatcherIhEELb0EEC2ERKS3_
FNDA:0,_ZNSt10_Head_baseILm0EN7testing7MatcherIhEELb0EEC2ERKS3_
FN:128,_ZNSt10_Head_baseILm1EN7testing7MatcherIhEELb0EEC2ERKS3_
FNDA:0,_ZNSt10_Head_baseILm1EN7testing7MatcherIhEELb0EEC2ERKS3_
FN:132,_ZNSt10_Head_baseILm0EN7testing7MatcherIhEELb0EEC2IS2_EEOT_
FNDA:0,_ZNSt10_Head_baseILm0EN7testing7MatcherIhEELb0EEC2IS2_EEOT_
FN:132,_ZNSt10_Head_baseILm1EN7testing7MatcherIhEELb0EEC2IS2_EEOT_
FNDA:0,_ZNSt10_Head_baseILm1EN7testing7MatcherIhEELb0EEC2IS2_EEOT_
FN:160,_ZNSt10_Head_baseILm0EPNSt7__cxx1112basic_stringIcSt11char_traitsIcESaIcEEELb0EE7_M_headERS7_
FNDA:0,_ZNSt10_Head_baseILm0EPNSt7__cxx1112basic_stringIcSt11char_traitsIcESaIcEEELb0EE7_M_headERS7_
FN:160,_ZNSt10_Head_baseILm0EPNSt7__cxx1118basic_stringstreamIcSt11char_traitsIcESaIcEEELb0EE7_M_headERS7_
FNDA:0,_ZNSt10_Head_baseILm0EPNSt7__cxx1118basic_stringstreamIcSt11char_traitsIcESaIcEEELb0EE7_M_headERS7_
FN:163,_ZNSt10_Head_baseILm0EPN7testing8internal11ThreadLocalIPNS0_8SequenceEE18ValueHolderFactoryELb0EE7_M_headERKS8_
FNDA:0,_ZNSt10_Head_baseILm0EPN7testing8internal11ThreadLocalIPNS0_8SequenceEE18ValueHolderFactoryELb0EE7_M_headERKS8_
FN:163,_ZNSt10_Head_baseILm0EPNSt7__cxx1112basic_stringIcSt11char_traitsIcESaIcEEELb0EE7_M_headERKS7_
FNDA:0,_ZNSt10_Head_baseILm0EPNSt7__cxx1112basic_stringIcSt11char_traitsIcESaIcEEELb0EE7_M_headERKS7_
FN:195,_ZNSt11_Tuple_implILm0EJPNSt7__cxx1118basic_stringstreamIcSt11char_traitsIcESaIcEEESt14default_deleteIS5_EEE7_M_headERS9_
FNDA:0,_ZNSt11_Tuple_implILm0EJPNSt7__cxx1118basic_stringstreamIcSt11char_traitsIcESaIcEEESt14default_deleteIS5_EEE7_M_headERS9_
FN:195,_ZNSt11_Tuple_implILm0EJPNSt7__cxx1112basic_stringIcSt11char_traitsIcESaIcEEESt14default_deleteIS5_EEE7_M_headERS9_
FNDA:0,_ZNSt11_Tuple_implILm0EJPNSt7__cxx1112basic_stringIcSt11char_traitsIcESaIcEEESt14default_deleteIS5_EEE7_M_headERS9_
FN:198,_ZNSt11_Tuple_implILm0EJPN7testing8internal11ThreadLocalIPNS0_8SequenceEE18ValueHolderFactoryESt14default_deleteIS6_EEE7_M_headERKSA_
FNDA:0,_ZNSt11_Tuple_implILm0EJPN7testing8internal11ThreadLocalIPNS0_8SequenceEE18ValueHolderFactoryESt14default_deleteIS6_EEE7_M_headERKSA_
FN:198,_ZNSt11_Tuple_implILm0EJPNSt7__cxx1112basic_stringIcSt11char_traitsIcESaIcEEESt14default_deleteIS5_EEE7_M_headERKS9_
FNDA:0,_ZNSt11_Tuple_implILm0EJPNSt7__cxx1112basic_stringIcSt11char_traitsIcESaIcEEESt14default_deleteIS5_EEE7_M_headERKS9_
FN:206,_ZNSt11_Tuple_implILm0EJPNSt7__cxx1112basic_stringIcSt11char_traitsIcESaIcEEESt14default_deleteIS5_EEEC2Ev
FNDA:0,_ZNSt11_Tuple_implILm0EJPNSt7__cxx1112basic_stringIcSt11char_traitsIcESaIcEEESt14default_deleteIS5_EEEC2Ev
FN:216,_ZNSt11_Tuple_implILm0EJN7testing7MatcherIhEES2_EEC2IS2_JS2_EvEEOT_DpOT0_
FNDA:0,_ZNSt11_Tuple_implILm0EJN7testing7MatcherIhEES2_EEC2IS2_JS2_EvEEOT_DpOT0_
FN:220,_ZNSt11_Tuple_implILm0EJN7testing7MatcherIhEES2_EEC2ERKS3_
FNDA:0,_ZNSt11_Tuple_implILm0EJN7testing7MatcherIhEES2_EEC2ERKS3_
FN:334,_ZNSt11_Tuple_implILm1EJSt14default_deleteINSt7__cxx1118basic_stringstreamIcSt11char_traitsIcESaIcEEEEEE7_M_headERS8_
FNDA:0,_ZNSt11_Tuple_implILm1EJSt14default_deleteINSt7__cxx1118basic_stringstreamIcSt11char_traitsIcESaIcEEEEEE7_M_headERS8_
FN:334,_ZNSt11_Tuple_implILm1EJSt14default_deleteINSt7__cxx1112basic_stringIcSt11char_traitsIcESaIcEEEEEE7_M_headERS8_
FNDA:0,_ZNSt11_Tuple_implILm1EJSt14default_deleteINSt7__cxx1112basic_stringIcSt11char_traitsIcESaIcEEEEEE7_M_headERS8_
FN:339,_ZNSt11_Tuple_implILm1EJSt14default_deleteINSt7__cxx1112basic_stringIcSt11char_traitsIcESaIcEEEEEEC2Ev
FNDA:0,_ZNSt11_Tuple_implILm1EJSt14default_deleteINSt7__cxx1112basic_stringIcSt11char_traitsIcESaIcEEEEEEC2Ev
FN:348,_ZNSt11_Tuple_implILm1EJN7testing7MatcherIhEEEEC2IS2_EEOT_
FNDA:0,_ZNSt11_Tuple_implILm1EJN7testing7MatcherIhEEEEC2IS2_EEOT_
FN:351,_ZNSt11_Tuple_implILm1EJN7testing7MatcherIhEEEEC2ERKS3_
FNDA:0,_ZNSt11_Tuple_implILm1EJN7testing7MatcherIhEEEEC2ERKS3_
FN:918,_ZNSt5tupleIJPNSt7__cxx1112basic_stringIcSt11char_traitsIcESaIcEEESt14default_deleteIS5_EEEC2IS6_S8_Lb1EEEv
FNDA:0,_ZNSt5tupleIJPNSt7__cxx1112basic_stringIcSt11char_traitsIcESaIcEEESt14default_deleteIS5_EEEC2IS6_S8_Lb1EEEv
FN:968,_ZNSt5tupleIJN7testing7MatcherIhEES2_EEC2IS2_S2_Lb1EEEOT_OT0_
FNDA:0,_ZNSt5tupleIJN7testing7MatcherIhEES2_EEC2IS2_S2_Lb1EEEOT_OT0_
FN:981,_ZNSt5tupleIJN7testing7MatcherIhEES2_EEC2ERKS3_
FNDA:0,_ZNSt5tupleIJN7testing7MatcherIhEES2_EEC2ERKS3_
FN:1309,_ZSt12__get_helperILm0EPNSt7__cxx1112basic_stringIcSt11char_traitsIcESaIcEEEJSt14default_deleteIS5_EEERT0_RSt11_Tuple_implIXT_EJS9_DpT1_EE
FNDA:0,_ZSt12__get_helperILm0EPNSt7__cxx1112basic_stringIcSt11char_traitsIcESaIcEEEJSt14default_deleteIS5_EEERT0_RSt11_Tuple_implIXT_EJS9_DpT1_EE
FN:1309,_ZSt12__get_helperILm0EPNSt7__cxx1118basic_stringstreamIcSt11char_traitsIcESaIcEEEJSt14default_deleteIS5_EEERT0_RSt11_Tuple_implIXT_EJS9_DpT1_EE
FNDA:0,_ZSt12__get_helperILm0EPNSt7__cxx1118basic_stringstreamIcSt11char_traitsIcESaIcEEEJSt14default_deleteIS5_EEERT0_RSt11_Tuple_implIXT_EJS9_DpT1_EE
FN:1309,_ZSt12__get_helperILm1ESt14default_deleteINSt7__cxx1118basic_stringstreamIcSt11char_traitsIcESaIcEEEEJEERT0_RSt11_Tuple_implIXT_EJS8_DpT1_EE
FNDA:0,_ZSt12__get_helperILm1ESt14default_deleteINSt7__cxx1118basic_stringstreamIcSt11char_traitsIcESaIcEEEEJEERT0_RSt11_Tuple_implIXT_EJS8_DpT1_EE
FN:1309,_ZSt12__get_helperILm1ESt14default_deleteINSt7__cxx1112basic_stringIcSt11char_traitsIcESaIcEEEEJEERT0_RSt11_Tuple_implIXT_EJS8_DpT1_EE
FNDA:0,_ZSt12__get_helperILm1ESt14default_deleteINSt7__cxx1112basic_stringIcSt11char_traitsIcESaIcEEEEJEERT0_RSt11_Tuple_implIXT_EJS8_DpT1_EE
FN:1314,_ZSt12__get_helperILm0EPN7testing8internal11ThreadLocalIPNS0_8SequenceEE18ValueHolderFactoryEJSt14default_deleteIS6_EEERKT0_RKSt11_Tuple_implIXT_EJSA_DpT1_EE
FNDA:0,_ZSt12__get_helperILm0EPN7testing8internal11ThreadLocalIPNS0_8SequenceEE18ValueHolderFactoryEJSt14default_deleteIS6_EEERKT0_RKSt11_Tuple_implIXT_EJSA_DpT1_EE
FN:1314,_ZSt12__get_helperILm0EPNSt7__cxx1112basic_stringIcSt11char_traitsIcESaIcEEEJSt14default_deleteIS5_EEERKT0_RKSt11_Tuple_implIXT_EJS9_DpT1_EE
FNDA:0,_ZSt12__get_helperILm0EPNSt7__cxx1112basic_stringIcSt11char_traitsIcESaIcEEEJSt14default_deleteIS5_EEERKT0_RKSt11_Tuple_implIXT_EJS9_DpT1_EE
FN:1320,_ZSt3getILm1EJPNSt7__cxx1112basic_stringIcSt11char_traitsIcESaIcEEESt14default_deleteIS5_EEERNSt13tuple_elementIXT_ESt5tupleIJDpT0_EEE4typeERSD_
FNDA:0,_ZSt3getILm1EJPNSt7__cxx1112basic_stringIcSt11char_traitsIcESaIcEEESt14default_deleteIS5_EEERNSt13tuple_elementIXT_ESt5tupleIJDpT0_EEE4typeERSD_
FN:1320,_ZSt3getILm0EJPNSt7__cxx1118basic_stringstreamIcSt11char_traitsIcESaIcEEESt14default_deleteIS5_EEERNSt13tuple_elementIXT_ESt5tupleIJDpT0_EEE4typeERSD_
FNDA:0,_ZSt3getILm0EJPNSt7__cxx1118basic_stringstreamIcSt11char_traitsIcESaIcEEESt14default_deleteIS5_EEERNSt13tuple_elementIXT_ESt5tupleIJDpT0_EEE4typeERSD_
FN:1320,_ZSt3getILm0EJPNSt7__cxx1112basic_stringIcSt11char_traitsIcESaIcEEESt14default_deleteIS5_EEERNSt13tuple_elementIXT_ESt5tupleIJDpT0_EEE4typeERSD_
FNDA:0,_ZSt3getILm0EJPNSt7__cxx1112basic_stringIcSt11char_traitsIcESaIcEEESt14default_deleteIS5_EEERNSt13tuple_elementIXT_ESt5tupleIJDpT0_EEE4typeERSD_
FN:1320,_ZSt3getILm1EJPNSt7__cxx1118basic_stringstreamIcSt11char_traitsIcESaIcEEESt14default_deleteIS5_EEERNSt13tuple_elementIXT_ESt5tupleIJDpT0_EEE4typeERSD_
FNDA:0,_ZSt3getILm1EJPNSt7__cxx1118basic_stringstreamIcSt11char_traitsIcESaIcEEESt14default_deleteIS5_EEERNSt13tuple_elementIXT_ESt5tupleIJDpT0_EEE4typeERSD_
FN:1326,_ZSt3getILm0EJPNSt7__cxx1112basic_stringIcSt11char_traitsIcESaIcEEESt14default_deleteIS5_EEERKNSt13tuple_elementIXT_ESt5tupleIJDpT0_EEE4typeERKSD_
FNDA:0,_ZSt3getILm0EJPNSt7__cxx1112basic_stringIcSt11char_traitsIcESaIcEEESt14default_deleteIS5_EEERKNSt13tuple_elementIXT_ESt5tupleIJDpT0_EEE4typeERKSD_
FN:1326,_ZSt3getILm0EJPN7testing8internal11ThreadLocalIPNS0_8SequenceEE18ValueHolderFactoryESt14default_deleteIS6_EEERKNSt13tuple_elementIXT_ESt5tupleIJDpT0_EEE4typeERKSE_
FNDA:0,_ZSt3getILm0EJPN7testing8internal11ThreadLocalIPNS0_8SequenceEE18ValueHolderFactoryESt14default_deleteIS6_EEERKNSt13tuple_elementIXT_ESt5tupleIJDpT0_EEE4typeERKSE_
FN:1470,_ZSt10make_tupleIJN7testing7MatcherIhEES2_EESt5tupleIJDpNSt17__decay_and_stripIT_E6__typeEEEDpOS5_
FNDA:0,_ZSt10make_tupleIJN7testing7MatcherIhEES2_EESt5tupleIJDpNSt17__decay_and_stripIT_E6__typeEEEDpOS5_
FN:1470,_ZSt10make_tupleIJEESt5tupleIJDpNSt17__decay_and_stripIT_E6__typeEEEDpOS2_
FNDA:0,_ZSt10make_tupleIJEESt5tupleIJDpNSt17__decay_and_stripIT_E6__typeEEEDpOS2_
FN:1482,_ZSt16forward_as_tupleIJEESt5tupleIJDpOT_EES3_
FNDA:0,_ZSt16forward_as_tupleIJEESt5tupleIJDpOT_EES3_
DA:76,0
DA:77,0
DA:113,0
DA:113,0
DA:122,0
DA:123,0
DA:128,0
DA:128,0
DA:132,0
DA:133,0
DA:132,0
DA:133,0
DA:160,0
DA:160,0
DA:163,0
DA:163,0
DA:195,0
DA:195,0
DA:198,0
DA:198,0
DA:206,0
DA:207,0
DA:216,0
DA:218,0
DA:220,0
DA:334,0
DA:334,0
DA:339,0
DA:340,0
DA:348,0
DA:349,0
DA:351,0
DA:918,0
DA:919,0
DA:968,0
DA:969,0
DA:981,0
DA:1309,0
DA:1310,0
DA:1309,0
DA:1310,0
DA:1309,0
DA:1310,0
DA:1309,0
DA:1310,0
DA:1314,0
DA:1315,0
DA:1314,0
DA:1315,0
DA:1320,0
DA:1321,0
DA:1320,0
DA:1321,0
DA:1320,0
DA:1321,0
DA:1320,0
DA:1321,0
DA:1326,0
DA:1327,0
DA:1326,0
DA:1327,0
DA:1470,0
DA:1474,0
DA:1470,0
DA:1474,0
DA:1482,0
DA:1483,0
end_of_record
SF:/usr/include/c++/9/bits/move.h
FN:47,_ZSt11__addressofISt10shared_ptrIN7testing8internal15ExpectationBaseEEEPT_RS5_
FNDA:0,_ZSt11__addressofISt10shared_ptrIN7testing8internal15ExpectationBaseEEEPT_RS5_
FN:74,_ZSt7forwardIRKSt10shared_ptrIN7testing8internal15ExpectationBaseEEEOT_RNSt16remove_referenceIS7_E4typeE
FNDA:0,_ZSt7forwardIRKSt10shared_ptrIN7testing8internal15ExpectationBaseEEEOT_RNSt16remove_referenceIS7_E4typeE
FN:74,_ZSt7forwardIPKvEOT_RNSt16remove_referenceIS2_E4typeE
FNDA:0,_ZSt7forwardIPKvEOT_RNSt16remove_referenceIS2_E4typeE
FN:74,_ZSt7forwardISt10shared_ptrIN7testing8internal15ExpectationBaseEEEOT_RNSt16remove_referenceIS5_E4typeE
FNDA:0,_ZSt7forwardISt10shared_ptrIN7testing8internal15ExpectationBaseEEEOT_RNSt16remove_referenceIS5_E4typeE
FN:74,_ZSt7forwardIN7testing7MatcherIhEEEOT_RNSt16remove_referenceIS3_E4typeE
FNDA:0,_ZSt7forwardIN7testing7MatcherIhEEEOT_RNSt16remove_referenceIS3_E4typeE
FN:99,_ZSt4moveIRPKvEONSt16remove_referenceIT_E4typeEOS4_
FNDA:0,_ZSt4moveIRPKvEONSt16remove_referenceIT_E4typeEOS4_
FN:99,_ZSt4moveIRKNSt7__cxx1112basic_stringIcSt11char_traitsIcESaIcEEEEONSt16remove_referenceIT_E4typeEOS9_
FNDA:0,_ZSt4moveIRKNSt7__cxx1112basic_stringIcSt11char_traitsIcESaIcEEEEONSt16remove_referenceIT_E4typeEOS9_
FN:99,_ZSt4moveIRSaIcEEONSt16remove_referenceIT_E4typeEOS3_
FNDA:0,_ZSt4moveIRSaIcEEONSt16remove_referenceIT_E4typeEOS3_
FN:99,_ZSt4moveIRNSt7__cxx1112basic_stringIcSt11char_traitsIcESaIcEEEEONSt16remove_referenceIT_E4typeEOS8_
FNDA:0,_ZSt4moveIRNSt7__cxx1112basic_stringIcSt11char_traitsIcESaIcEEEEONSt16remove_referenceIT_E4typeEOS8_
FN:99,_ZSt4moveIRPNSt7__cxx1118basic_stringstreamIcSt11char_traitsIcESaIcEEEEONSt16remove_referenceIT_E4typeEOS9_
FNDA:0,_ZSt4moveIRPNSt7__cxx1118basic_stringstreamIcSt11char_traitsIcESaIcEEEEONSt16remove_referenceIT_E4typeEOS9_
FN:99,_ZSt4moveIRPNSt7__cxx1112basic_stringIcSt11char_traitsIcESaIcEEEEONSt16remove_referenceIT_E4typeEOS9_
FNDA:0,_ZSt4moveIRPNSt7__cxx1112basic_stringIcSt11char_traitsIcESaIcEEEEONSt16remove_referenceIT_E4typeEOS9_
FN:99,_ZSt4moveIRN7testing7MatcherIhEEEONSt16remove_referenceIT_E4typeEOS5_
FNDA:0,_ZSt4moveIRN7testing7MatcherIhEEEONSt16remove_referenceIT_E4typeEOS5_
FN:99,_ZSt4moveIRiEONSt16remove_referenceIT_E4typeEOS2_
FNDA:0,_ZSt4moveIRiEONSt16remove_referenceIT_E4typeEOS2_
FN:99,_ZSt4moveIRjEONSt16remove_referenceIT_E4typeEOS2_
FNDA:2,_ZSt4moveIRjEONSt16remove_referenceIT_E4typeEOS2_
FN:99,_ZSt4moveIRSt10shared_ptrIKN7testing16MatcherInterfaceIRKhEEEEONSt16remove_referenceIT_E4typeEOSA_
FNDA:0,_ZSt4moveIRSt10shared_ptrIKN7testing16MatcherInterfaceIRKhEEEEONSt16remove_referenceIT_E4typeEOSA_
FN:99,_ZSt4moveIRSt10shared_ptrIN7testing15ActionInterfaceIFmvEEEEEONSt16remove_referenceIT_E4typeEOS8_
FNDA:0,_ZSt4moveIRSt10shared_ptrIN7testing15ActionInterfaceIFmvEEEEEONSt16remove_referenceIT_E4typeEOS8_
FN:99,_ZSt4moveIRN7testing6ActionIFmvEE13ActionAdapterEEONSt16remove_referenceIT_E4typeEOS7_
FNDA:0,_ZSt4moveIRN7testing6ActionIFmvEE13ActionAdapterEEONSt16remove_referenceIT_E4typeEOS7_
FN:99,_ZSt4moveIRSt12__shared_ptrIKN7testing16MatcherInterfaceIRKhEELN9__gnu_cxx12_Lock_policyE2EEEONSt16remove_referenceIT_E4typeEOSC_
FNDA:0,_ZSt4moveIRSt12__shared_ptrIKN7testing16MatcherInterfaceIRKhEELN9__gnu_cxx12_Lock_policyE2EEEONSt16remove_referenceIT_E4typeEOSC_
FN:99,_ZSt4moveIRPKN7testing16MatcherInterfaceIRKhEEEONSt16remove_referenceIT_E4typeEOS9_
FNDA:0,_ZSt4moveIRPKN7testing16MatcherInterfaceIRKhEEEONSt16remove_referenceIT_E4typeEOS9_
FN:99,_ZSt4moveIRSt10shared_ptrIN7testing8internal15ExpectationBaseEEEONSt16remove_referenceIT_E4typeEOS7_
FNDA:0,_ZSt4moveIRSt10shared_ptrIN7testing8internal15ExpectationBaseEEEONSt16remove_referenceIT_E4typeEOS7_
FN:182,_ZSt4swapIPKN7testing16MatcherInterfaceIRKhEEENSt9enable_ifIXsrSt6__and_IJSt6__not_ISt15__is_tuple_likeIT_EESt21is_move_constructibleISB_ESt18is_move_assignableISB_EEE5valueEvE4typeERSB_SL_
FNDA:0,_ZSt4swapIPKN7testing16MatcherInterfaceIRKhEEENSt9enable_ifIXsrSt6__and_IJSt6__not_ISt15__is_tuple_likeIT_EESt21is_move_constructibleISB_ESt18is_move_assignableISB_EEE5valueEvE4typeERSB_SL_
DA:47,0
DA:48,0
DA:74,0
DA:75,0
DA:74,0
DA:75,0
DA:74,0
DA:75,0
DA:74,0
DA:75,0
DA:99,0
DA:100,0
DA:99,0
DA:100,0
DA:99,0
DA:100,0
DA:99,0
DA:100,0
DA:99,0
DA:100,0
DA:99,0
DA:100,0
DA:99,0
DA:100,0
DA:99,2
DA:100,2
DA:99,0
DA:100,0
DA:99,0
DA:100,0
DA:99,0
DA:100,0
DA:99,0
DA:100,0
DA:99,0
DA:100,0
DA:99,0
DA:100,0
DA:99,0
DA:100,0
DA:182,0
DA:193,0
DA:194,0
DA:195,0
DA:196,0
end_of_record
SF:/usr/include/c++/9/bits/stl_construct.h
FN:74,_ZSt10_ConstructISt10shared_ptrIN7testing8internal15ExpectationBaseEEJS4_EEvPT_DpOT0_
FNDA:0,_ZSt10_ConstructISt10shared_ptrIN7testing8internal15ExpectationBaseEEJS4_EEvPT_DpOT0_
FN:97,_ZSt8_DestroyISt10shared_ptrIN7testing8internal15ExpectationBaseEEEvPT_
FNDA:0,_ZSt8_DestroyISt10shared_ptrIN7testing8internal15ExpectationBaseEEEvPT_
FN:105,_ZNSt12_Destroy_auxILb0EE9__destroyIPSt10shared_ptrIN7testing8internal15ExpectationBaseEEEEvT_S8_
FNDA:0,_ZNSt12_Destroy_auxILb0EE9__destroyIPSt10shared_ptrIN7testing8internal15ExpectationBaseEEEEvT_S8_
FN:117,_ZNSt12_Destroy_auxILb1EE9__destroyIPPKvEEvT_S5_
FNDA:0,_ZNSt12_Destroy_auxILb1EE9__destroyIPPKvEEvT_S5_
FN:127,_ZSt8_DestroyIPSt10shared_ptrIN7testing8internal15ExpectationBaseEEEvT_S6_
FNDA:0,_ZSt8_DestroyIPSt10shared_ptrIN7testing8internal15ExpectationBaseEEEvT_S6_
FN:127,_ZSt8_DestroyIPPKvEvT_S3_
FNDA:0,_ZSt8_DestroyIPPKvEvT_S3_
FN:203,_ZSt8_DestroyIPSt10shared_ptrIN7testing8internal15ExpectationBaseEES4_EvT_S6_RSaIT0_E
FNDA:0,_ZSt8_DestroyIPSt10shared_ptrIN7testing8internal15ExpectationBaseEES4_EvT_S6_RSaIT0_E
FN:203,_ZSt8_DestroyIPPKvS1_EvT_S3_RSaIT0_E
FNDA:0,_ZSt8_DestroyIPPKvS1_EvT_S3_RSaIT0_E
DA:74,0
DA:75,0
DA:97,0
DA:98,0
DA:105,0
DA:107,0
DA:108,0
DA:109,0
DA:117,0
DA:127,0
DA:137,0
DA:138,0
DA:127,0
DA:137,0
DA:138,0
DA:203,0
DA:206,0
DA:207,0
DA:203,0
DA:206,0
DA:207,0
end_of_record
SF:/home/pieter/GitHub/Control-Surface/src/MIDI_Inputs/MIDIInputElementChannelPressure.hpp
FN:21,_ZN31MIDIInputElementChannelPressureC2ERK20MIDICNChannelAddress
FNDA:9,_ZN31MIDIInputElementChannelPressureC2ERK20MIDICNChannelAddress
FN:31,_ZN31MIDIInputElementChannelPressureD0Ev
FNDA:0,_ZN31MIDIInputElementChannelPressureD0Ev
FN:31,_ZN31MIDIInputElementChannelPressureD2Ev
FNDA:9,_ZN31MIDIInputElementChannelPressureD2Ev
FN:36,_ZN31MIDIInputElementChannelPressure8beginAllEv
FNDA:1,_ZN31MIDIInputElementChannelPressure8beginAllEv
FN:57,_ZN31MIDIInputElementChannelPressure9updateAllEv
FNDA:1,_ZN31MIDIInputElementChannelPressure9updateAllEv
FN:69,_ZN31MIDIInputElementChannelPressure13updateAllWithERK20MIDI_message_matcher
FNDA:15,_ZN31MIDIInputElementChannelPressure13updateAllWithERK20MIDI_message_matcher
FN:80,_ZNK31MIDIInputElementChannelPressure9getTargetERK20MIDI_message_matcher
FNDA:0,_ZNK31MIDIInputElementChannelPressure9getTargetERK20MIDI_message_matcher
FN:85,_ZN31MIDIInputElementChannelPressure8moveDownEv
FNDA:15,_ZN31MIDIInputElementChannelPressure8moveDownEv
DA:21,9
DA:22,9
DA:24,9
DA:25,9
DA:31,0
DA:34,0
DA:31,9
DA:33,9
DA:34,9
DA:36,1
DA:38,2
DA:39,1
DA:40,1
DA:57,1
DA:59,2
DA:60,1
DA:61,1
DA:69,15
DA:70,15
DA:71,15
DA:72,15
DA:80,0
DA:81,0
DA:85,15
DA:87,15
DA:88,15
end_of_record
SF:/home/pieter/GitHub/Control-Surface/src/Banks/BankConfig.hpp
FN:38,_ZN10BankConfigILh3EEC2ER4BankILh3EE8BankType
FNDA:1,_ZN10BankConfigILh3EEC2ER4BankILh3EE8BankType
FN:38,_ZN10BankConfigILh2EEC2ER4BankILh2EE8BankType
FNDA:3,_ZN10BankConfigILh2EEC2ER4BankILh2EE8BankType
DA:38,1
DA:39,1
DA:38,3
DA:39,3
end_of_record
SF:/usr/include/c++/9/bits/basic_string.tcc
FN:206,_ZNSt7__cxx1112basic_stringIcSt11char_traitsIcESaIcEE12_M_constructIPcEEvT_S7_St20forward_iterator_tag
FNDA:0,_ZNSt7__cxx1112basic_stringIcSt11char_traitsIcESaIcEE12_M_constructIPcEEvT_S7_St20forward_iterator_tag
FN:206,_ZNSt7__cxx1112basic_stringIcSt11char_traitsIcESaIcEE12_M_constructIPKcEEvT_S8_St20forward_iterator_tag
FNDA:0,_ZNSt7__cxx1112basic_stringIcSt11char_traitsIcESaIcEE12_M_constructIPKcEEvT_S8_St20forward_iterator_tag
DA:206,0
DA:211,0
DA:212,0
DA:215,0
DA:217,0
DA:219,0
DA:220,0
DA:225,0
DA:226,0
DA:228,0
DA:229,0
DA:232,0
DA:233,0
DA:206,0
DA:211,0
DA:212,0
DA:215,0
DA:217,0
DA:219,0
DA:220,0
DA:225,0
DA:226,0
DA:228,0
DA:229,0
DA:232,0
DA:233,0
end_of_record
SF:/home/pieter/GitHub/Control-Surface/build/googletest/googletest-src/googletest/include/gtest/gtest-message.h
end_of_record
SF:/usr/include/c++/9/bits/cpp_type_traits.h
FN:428,_ZSt12__miter_baseIPPKvET_S3_
FNDA:0,_ZSt12__miter_baseIPPKvET_S3_
DA:428,0
DA:429,0
end_of_record
SF:/usr/include/c++/9/bits/shared_ptr.h
FN:103,_ZNSt10shared_ptrIKN7testing20CardinalityInterfaceEEaSERKS3_
FNDA:0,_ZNSt10shared_ptrIKN7testing20CardinalityInterfaceEEaSERKS3_
FN:127,_ZNSt10shared_ptrIKN7testing16MatcherInterfaceIRKhEEEC2Ev
FNDA:0,_ZNSt10shared_ptrIKN7testing16MatcherInterfaceIRKhEEEC2Ev
FN:129,_ZNSt10shared_ptrIN7testing8internal15ExpectationBaseEEC2ERKS3_
FNDA:0,_ZNSt10shared_ptrIN7testing8internal15ExpectationBaseEEC2ERKS3_
FN:129,_ZNSt10shared_ptrIN7testing15ActionInterfaceIFmvEEEEC2ERKS4_
FNDA:0,_ZNSt10shared_ptrIN7testing15ActionInterfaceIFmvEEEEC2ERKS4_
FN:129,_ZNSt10shared_ptrIKN7testing16MatcherInterfaceIRKhEEEC2ERKS6_
FNDA:0,_ZNSt10shared_ptrIKN7testing16MatcherInterfaceIRKhEEEC2ERKS6_
FN:139,_ZNSt10shared_ptrIKN7testing16MatcherInterfaceIRKSt5tupleIJhhEEEEEC2IS7_vEEPT_
FNDA:0,_ZNSt10shared_ptrIKN7testing16MatcherInterfaceIRKSt5tupleIJhhEEEEEC2IS7_vEEPT_
FN:139,_ZNSt10shared_ptrIN7testing8internal15ExpectationBaseEEC2INS1_16TypedExpectationIFmvEEEvEEPT_
FNDA:0,_ZNSt10shared_ptrIN7testing8internal15ExpectationBaseEEC2INS1_16TypedExpectationIFmvEEEvEEPT_
FN:139,_ZNSt10shared_ptrIiEC2IivEEPT_
FNDA:0,_ZNSt10shared_ptrIiEC2IivEEPT_
FN:139,_ZNSt10shared_ptrIN7testing15ActionInterfaceIFmvEEEEC2IS3_vEEPT_
FNDA:0,_ZNSt10shared_ptrIN7testing15ActionInterfaceIFmvEEEEC2IS3_vEEPT_
FN:139,_ZNSt10shared_ptrIjEC2IjvEEPT_
FNDA:1,_ZNSt10shared_ptrIjEC2IjvEEPT_
FN:139,_ZNSt10shared_ptrIN7testing8internal15ExpectationBaseEEC2INS1_16TypedExpectationIFvhhEEEvEEPT_
FNDA:0,_ZNSt10shared_ptrIN7testing8internal15ExpectationBaseEEC2INS1_16TypedExpectationIFvhhEEEvEEPT_
FN:139,_ZNSt10shared_ptrIKN7testing16MatcherInterfaceIRKhEEEC2IS5_vEEPT_
FNDA:0,_ZNSt10shared_ptrIKN7testing16MatcherInterfaceIRKhEEEC2IS5_vEEPT_
FN:139,_ZNSt10shared_ptrIKN7testing16MatcherInterfaceIRKSt5tupleIJEEEEEC2IS7_vEEPT_
FNDA:0,_ZNSt10shared_ptrIKN7testing16MatcherInterfaceIRKSt5tupleIJEEEEEC2IS7_vEEPT_
FN:254,_ZNSt10shared_ptrIN7testing15ActionInterfaceIFmvEEEEC2EOS4_
FNDA:0,_ZNSt10shared_ptrIN7testing15ActionInterfaceIFmvEEEEC2EOS4_
FN:254,_ZNSt10shared_ptrIKN7testing16MatcherInterfaceIRKhEEEC2EOS6_
FNDA:0,_ZNSt10shared_ptrIKN7testing16MatcherInterfaceIRKhEEEC2EOS6_
FN:254,_ZNSt10shared_ptrIN7testing8internal15ExpectationBaseEEC2EOS3_
FNDA:0,_ZNSt10shared_ptrIN7testing8internal15ExpectationBaseEEC2EOS3_
FN:333,_ZNSt10shared_ptrIKN7testing16MatcherInterfaceIRKhEEEaSEOS6_
FNDA:0,_ZNSt10shared_ptrIKN7testing16MatcherInterfaceIRKhEEEaSEOS6_
DA:103,0
DA:127,0
DA:129,0
DA:129,0
DA:129,0
DA:139,0
DA:139,0
DA:139,0
DA:139,0
DA:139,1
DA:139,0
DA:139,0
DA:139,0
DA:254,0
DA:255,0
DA:254,0
DA:255,0
DA:254,0
DA:255,0
DA:333,0
DA:335,0
DA:336,0
end_of_record
SF:/home/pieter/GitHub/Control-Surface/src/MIDI_Inputs/LEDs/MCU/VULEDs.hpp
FN:11,_ZN3MCU11VULEDs_BaseILh2EEC2ERK17DotBarDisplayLEDsILh2EE
FNDA:1,_ZN3MCU11VULEDs_BaseILh2EEC2ERK17DotBarDisplayLEDsILh2EE
FN:14,_ZN3MCU11VULEDs_BaseILh2EE5beginEv
FNDA:1,_ZN3MCU11VULEDs_BaseILh2EE5beginEv
FN:16,_ZNK3MCU11VULEDs_BaseILh2EE7displayEv
FNDA:4,_ZNK3MCU11VULEDs_BaseILh2EE7displayEv
FN:57,_ZN3MCU8Bankable6VULEDsILh2ELh2EEC1ERK10BankConfigILh2EERK17DotBarDisplayLEDsILh2EERK20MIDICNChannelAddressj
FNDA:1,_ZN3MCU8Bankable6VULEDsILh2ELh2EEC1ERK10BankConfigILh2EERK17DotBarDisplayLEDsILh2EERK20MIDICNChannelAddressj
FN:63,_ZNK3MCU8Bankable6VULEDsILh2ELh2EE19onBankSettingChangeEv
FNDA:2,_ZNK3MCU8Bankable6VULEDsILh2ELh2EE19onBankSettingChangeEv
DA:11,1
DA:14,1
DA:16,4
DA:17,4
DA:18,4
DA:19,4
DA:20,4
DA:57,1
DA:60,1
DA:63,2
end_of_record
SF:/usr/include/c++/9/bits/vector.tcc
FN:109,_ZNSt6vectorIPKvSaIS1_EE12emplace_backIJS1_EEEvDpOT_
FNDA:0,_ZNSt6vectorIPKvSaIS1_EE12emplace_backIJS1_EEEvDpOT_
FN:426,_ZNSt6vectorIPKvSaIS1_EE17_M_realloc_insertIJS1_EEEvN9__gnu_cxx17__normal_iteratorIPS1_S3_EEDpOT_
FNDA:0,_ZNSt6vectorIPKvSaIS1_EE17_M_realloc_insertIJS1_EEEvN9__gnu_cxx17__normal_iteratorIPS1_S3_EEDpOT_
FN:426,_ZNSt6vectorISt10shared_ptrIN7testing8internal15ExpectationBaseEESaIS4_EE17_M_realloc_insertIJRKS4_EEEvN9__gnu_cxx17__normal_iteratorIPS4_S6_EEDpOT_
FNDA:0,_ZNSt6vectorISt10shared_ptrIN7testing8internal15ExpectationBaseEESaIS4_EE17_M_realloc_insertIJRKS4_EEEvN9__gnu_cxx17__normal_iteratorIPS4_S6_EEDpOT_
DA:109,0
DA:112,0
DA:115,0
DA:117,0
DA:121,0
DA:125,0
DA:426,0
DA:435,0
DA:437,0
DA:438,0
DA:439,0
DA:440,0
DA:441,0
DA:449,0
DA:450,0
DA:456,0
DA:459,0
DA:461,0
DA:462,0
DA:464,0
DA:466,0
DA:467,0
DA:474,0
DA:475,0
DA:477,0
DA:481,0
DA:482,0
DA:485,0
DA:487,0
DA:488,0
DA:489,0
DA:491,0
DA:492,0
DA:493,0
DA:496,0
DA:498,0
DA:500,0
DA:501,0
DA:502,0
DA:503,0
DA:504,0
DA:505,0
DA:426,0
DA:435,0
DA:437,0
DA:438,0
DA:439,0
DA:440,0
DA:441,0
DA:449,0
DA:450,0
DA:456,0
DA:459,0
DA:461,0
DA:462,0
DA:464,0
DA:466,0
DA:467,0
DA:474,0
DA:475,0
DA:477,0
DA:481,0
DA:482,0
DA:485,0
DA:487,0
DA:488,0
DA:489,0
DA:491,0
DA:492,0
DA:493,0
DA:496,0
DA:498,0
DA:500,0
DA:501,0
DA:502,0
DA:503,0
DA:504,0
DA:505,0
end_of_record
SF:/usr/include/x86_64-linux-gnu/c++/9/bits/gthr-default.h
FN:248,_ZL18__gthread_active_pv
FNDA:0,_ZL18__gthread_active_pv
DA:248,0
DA:252,0
end_of_record
SF:/home/pieter/GitHub/Control-Surface/src/Selectors/Selectable.hpp
FN:11,_ZN10SelectableILh3EEC2Eh
FNDA:7,_ZN10SelectableILh3EEC2Eh
FN:11,_ZN10SelectableILh2EEC2Eh
FNDA:3,_ZN10SelectableILh2EEC2Eh
FN:14,_ZN10SelectableILh3EE15validateSettingEh
FNDA:23,_ZN10SelectableILh3EE15validateSettingEh
FN:14,_ZN10SelectableILh2EE15validateSettingEh
FNDA:8,_ZN10SelectableILh2EE15validateSettingEh
DA:11,7
DA:12,7
DA:11,3
DA:12,3
DA:14,23
DA:17,23
DA:18,0
DA:25,23
DA:14,8
DA:17,8
DA:18,0
DA:25,8
end_of_record
SF:/usr/include/c++/9/bits/stl_uninitialized.h
FN:76,_ZNSt20__uninitialized_copyILb0EE13__uninit_copyISt13move_iteratorIPSt10shared_ptrIN7testing8internal15ExpectationBaseEEES8_EET0_T_SB_SA_
FNDA:0,_ZNSt20__uninitialized_copyILb0EE13__uninit_copyISt13move_iteratorIPSt10shared_ptrIN7testing8internal15ExpectationBaseEEES8_EET0_T_SB_SA_
FN:99,_ZNSt20__uninitialized_copyILb1EE13__uninit_copyISt13move_iteratorIPPKvES5_EET0_T_S8_S7_
FNDA:0,_ZNSt20__uninitialized_copyILb1EE13__uninit_copyISt13move_iteratorIPPKvES5_EET0_T_S8_S7_
FN:115,_ZSt18uninitialized_copyISt13move_iteratorIPPKvES3_ET0_T_S6_S5_
FNDA:0,_ZSt18uninitialized_copyISt13move_iteratorIPPKvES3_ET0_T_S6_S5_
FN:115,_ZSt18uninitialized_copyISt13move_iteratorIPSt10shared_ptrIN7testing8internal15ExpectationBaseEEES6_ET0_T_S9_S8_
FNDA:0,_ZSt18uninitialized_copyISt13move_iteratorIPSt10shared_ptrIN7testing8internal15ExpectationBaseEEES6_ET0_T_S9_S8_
FN:287,_ZSt22__uninitialized_copy_aISt13move_iteratorIPPKvES3_S2_ET0_T_S6_S5_RSaIT1_E
FNDA:0,_ZSt22__uninitialized_copy_aISt13move_iteratorIPPKvES3_S2_ET0_T_S6_S5_RSaIT1_E
FN:287,_ZSt22__uninitialized_copy_aISt13move_iteratorIPSt10shared_ptrIN7testing8internal15ExpectationBaseEEES6_S5_ET0_T_S9_S8_RSaIT1_E
FNDA:0,_ZSt22__uninitialized_copy_aISt13move_iteratorIPSt10shared_ptrIN7testing8internal15ExpectationBaseEEES6_S5_ET0_T_S9_S8_RSaIT1_E
FN:305,_ZSt34__uninitialized_move_if_noexcept_aIPPKvS2_SaIS1_EET0_T_S5_S4_RT1_
FNDA:0,_ZSt34__uninitialized_move_if_noexcept_aIPPKvS2_SaIS1_EET0_T_S5_S4_RT1_
FN:305,_ZSt34__uninitialized_move_if_noexcept_aIPSt10shared_ptrIN7testing8internal15ExpectationBaseEES5_SaIS4_EET0_T_S8_S7_RT1_
FNDA:0,_ZSt34__uninitialized_move_if_noexcept_aIPSt10shared_ptrIN7testing8internal15ExpectationBaseEES5_SaIS4_EET0_T_S8_S7_RT1_
FN:887,_ZSt19__relocate_object_aISt10shared_ptrIN7testing8internal15ExpectationBaseEES4_SaIS4_EEvPT_PT0_RT1_
FNDA:0,_ZSt19__relocate_object_aISt10shared_ptrIN7testing8internal15ExpectationBaseEES4_SaIS4_EEvPT_PT0_RT1_
FN:906,_ZSt14__relocate_a_1IPKvS1_ENSt9enable_ifIXsrSt24__is_bitwise_relocatableIT_vE5valueEPS4_E4typeES6_S6_S6_RSaIT0_E
FNDA:0,_ZSt14__relocate_a_1IPKvS1_ENSt9enable_ifIXsrSt24__is_bitwise_relocatableIT_vE5valueEPS4_E4typeES6_S6_S6_RSaIT0_E
FN:918,_ZSt14__relocate_a_1IPSt10shared_ptrIN7testing8internal15ExpectationBaseEES5_SaIS4_EET0_T_S8_S7_RT1_
FNDA:0,_ZSt14__relocate_a_1IPSt10shared_ptrIN7testing8internal15ExpectationBaseEES5_SaIS4_EET0_T_S8_S7_RT1_
FN:940,_ZSt12__relocate_aIPPKvS2_SaIS1_EET0_T_S5_S4_RT1_
FNDA:0,_ZSt12__relocate_aIPPKvS2_SaIS1_EET0_T_S5_S4_RT1_
FN:940,_ZSt12__relocate_aIPSt10shared_ptrIN7testing8internal15ExpectationBaseEES5_SaIS4_EET0_T_S8_S7_RT1_
FNDA:0,_ZSt12__relocate_aIPSt10shared_ptrIN7testing8internal15ExpectationBaseEES5_SaIS4_EET0_T_S8_S7_RT1_
DA:76,0
DA:79,0
DA:82,0
DA:83,0
DA:84,0
DA:86,0
DA:88,0
DA:89,0
DA:99,0
DA:101,0
DA:115,0
DA:128,0
DA:134,0
DA:115,0
DA:128,0
DA:134,0
DA:287,0
DA:289,0
DA:287,0
DA:289,0
DA:305,0
DA:311,0
DA:312,0
DA:305,0
DA:311,0
DA:312,0
DA:887,0
DA:894,0
DA:895,0
DA:896,0
DA:906,0
DA:909,0
DA:910,0
DA:911,0
DA:912,0
DA:918,0
DA:930,0
DA:931,0
DA:932,0
DA:934,0
DA:940,0
DA:946,0
DA:948,0
DA:940,0
DA:946,0
DA:948,0
end_of_record
TN:
SF:/usr/include/c++/9/ext/atomicity.h
FN:48,_ZN9__gnu_cxxL18__exchange_and_addEPVii
FNDA:0,_ZN9__gnu_cxxL18__exchange_and_addEPVii
FN:52,_ZN9__gnu_cxxL12__atomic_addEPVii
FNDA:0,_ZN9__gnu_cxxL12__atomic_addEPVii
FN:65,_ZN9__gnu_cxxL25__exchange_and_add_singleEPii
FNDA:0,_ZN9__gnu_cxxL25__exchange_and_add_singleEPii
FN:73,_ZN9__gnu_cxxL19__atomic_add_singleEPii
FNDA:0,_ZN9__gnu_cxxL19__atomic_add_singleEPii
FN:78,_ZN9__gnu_cxxL27__exchange_and_add_dispatchEPii
FNDA:0,_ZN9__gnu_cxxL27__exchange_and_add_dispatchEPii
FN:92,_ZN9__gnu_cxxL21__atomic_add_dispatchEPii
FNDA:0,_ZN9__gnu_cxxL21__atomic_add_dispatchEPii
DA:48,0
DA:49,0
DA:52,0
DA:53,0
DA:65,0
DA:67,0
DA:68,0
DA:69,0
DA:73,0
DA:74,0
DA:78,0
DA:81,0
DA:82,0
DA:84,0
DA:92,0
DA:95,0
DA:96,0
DA:98,0
DA:102,0
end_of_record
SF:/usr/include/c++/9/ext/alloc_traits.h
FN:97,_ZN9__gnu_cxx14__alloc_traitsISaIcEcE17_S_select_on_copyERKS1_
FNDA:0,_ZN9__gnu_cxx14__alloc_traitsISaIcEcE17_S_select_on_copyERKS1_
DA:97,0
DA:98,0
end_of_record
SF:/usr/include/c++/9/typeinfo
FN:120,_ZNKSt9type_infoeqERKS_
FNDA:0,_ZNKSt9type_infoeqERKS_
DA:120,0
DA:122,0
DA:123,0
DA:124,0
end_of_record
SF:/home/pieter/GitHub/Control-Surface/test/MIDI_Inputs/test-MIDINote.cpp
FN:5,_ZN27MIDINote_NoteOnNoteOff_Test8TestBodyEv
FNDA:1,_ZN27MIDINote_NoteOnNoteOff_Test8TestBodyEv
FN:5,_ZN27MIDINote_NoteOnNoteOff_TestC2Ev
FNDA:1,_ZN27MIDINote_NoteOnNoteOff_TestC2Ev
FN:24,_ZN38MIDINote_NoteOnNoteOnZeroVelocity_Test8TestBodyEv
FNDA:1,_ZN38MIDINote_NoteOnNoteOnZeroVelocity_Test8TestBodyEv
FN:24,_ZN38MIDINote_NoteOnNoteOnZeroVelocity_TestC2Ev
FNDA:1,_ZN38MIDINote_NoteOnNoteOnZeroVelocity_TestC2Ev
FN:37,_ZN19MIDINote_reset_Test8TestBodyEv
FNDA:1,_ZN19MIDINote_reset_Test8TestBodyEv
FN:37,_ZN19MIDINote_reset_TestC2Ev
FNDA:1,_ZN19MIDINote_reset_TestC2Ev
FN:49,_ZN22MIDINote_resetAll_Test8TestBodyEv
FNDA:1,_ZN22MIDINote_resetAll_Test8TestBodyEv
FN:49,_ZN22MIDINote_resetAll_TestC2Ev
FNDA:1,_ZN22MIDINote_resetAll_TestC2Ev
FN:63,_ZN30MIDINoteLED_NoteOnNoteOff_Test8TestBodyEv
FNDA:1,_ZN30MIDINoteLED_NoteOnNoteOff_Test8TestBodyEv
FN:63,_ZN30MIDINoteLED_NoteOnNoteOff_TestC2Ev
FNDA:1,_ZN30MIDINoteLED_NoteOnNoteOff_TestC2Ev
DA:5,1
DA:6,2
DA:8,1
DA:9,1
DA:11,1
DA:12,1
DA:14,1
DA:15,1
DA:17,1
DA:18,1
DA:20,1
DA:21,1
DA:22,1
DA:5,1
DA:24,1
DA:25,2
DA:27,1
DA:28,1
DA:30,1
DA:31,1
DA:33,1
DA:34,1
DA:35,1
DA:24,1
DA:37,1
DA:38,2
DA:40,1
DA:41,1
DA:43,1
DA:45,1
DA:46,1
DA:47,1
DA:37,1
DA:49,1
DA:50,2
DA:52,1
DA:53,1
DA:55,1
DA:57,1
DA:58,1
DA:59,1
DA:49,1
DA:63,1
DA:64,2
DA:66,2
DA:68,1
DA:69,1
DA:71,2
DA:72,1
DA:73,1
DA:74,1
DA:76,2
DA:77,1
DA:78,1
DA:79,1
DA:81,1
DA:82,1
DA:63,1
end_of_record
SF:/usr/include/c++/9/ext/new_allocator.h
FN:80,_ZN9__gnu_cxx13new_allocatorIcEC2Ev
FNDA:0,_ZN9__gnu_cxx13new_allocatorIcEC2Ev
FN:83,_ZN9__gnu_cxx13new_allocatorIcEC2ERKS1_
FNDA:0,_ZN9__gnu_cxx13new_allocatorIcEC2ERKS1_
FN:89,_ZN9__gnu_cxx13new_allocatorIcED2Ev
FNDA:0,_ZN9__gnu_cxx13new_allocatorIcED2Ev
FN:102,_ZN9__gnu_cxx13new_allocatorISt10shared_ptrIN7testing8internal15ExpectationBaseEEE8allocateEmPKv
FNDA:0,_ZN9__gnu_cxx13new_allocatorISt10shared_ptrIN7testing8internal15ExpectationBaseEEE8allocateEmPKv
FN:119,_ZN9__gnu_cxx13new_allocatorISt10shared_ptrIN7testing8internal15ExpectationBaseEEE10deallocateEPS5_m
FNDA:0,_ZN9__gnu_cxx13new_allocatorISt10shared_ptrIN7testing8internal15ExpectationBaseEEE10deallocateEPS5_m
FN:132,_ZNK9__gnu_cxx13new_allocatorISt10shared_ptrIN7testing8internal15ExpectationBaseEEE8max_sizeEv
FNDA:0,_ZNK9__gnu_cxx13new_allocatorISt10shared_ptrIN7testing8internal15ExpectationBaseEEE8max_sizeEv
FN:144,_ZN9__gnu_cxx13new_allocatorISt10shared_ptrIN7testing8internal15ExpectationBaseEEE9constructIS5_JS5_EEEvPT_DpOT0_
FNDA:0,_ZN9__gnu_cxx13new_allocatorISt10shared_ptrIN7testing8internal15ExpectationBaseEEE9constructIS5_JS5_EEEvPT_DpOT0_
FN:144,_ZN9__gnu_cxx13new_allocatorISt10shared_ptrIN7testing8internal15ExpectationBaseEEE9constructIS5_JRKS5_EEEvPT_DpOT0_
FNDA:0,_ZN9__gnu_cxx13new_allocatorISt10shared_ptrIN7testing8internal15ExpectationBaseEEE9constructIS5_JRKS5_EEEvPT_DpOT0_
FN:151,_ZN9__gnu_cxx13new_allocatorISt10shared_ptrIN7testing8internal15ExpectationBaseEEE7destroyIS5_EEvPT_
FNDA:0,_ZN9__gnu_cxx13new_allocatorISt10shared_ptrIN7testing8internal15ExpectationBaseEEE7destroyIS5_EEvPT_
DA:80,0
DA:83,0
DA:89,0
DA:102,0
DA:104,0
DA:105,0
DA:114,0
DA:119,0
DA:128,0
DA:129,0
DA:132,0
DA:135,0
DA:144,0
DA:147,0
DA:144,0
DA:147,0
DA:151,0
DA:153,0
end_of_record
SF:/home/pieter/GitHub/Control-Surface/build/googletest/googletest-src/googlemock/include/gmock/gmock-matchers.h
FN:494,_ZNK7testing8internal14AnyMatcherImplIRKSt5tupleIJhhEEE15MatchAndExplainES5_PNS_19MatchResultListenerE
FNDA:0,_ZNK7testing8internal14AnyMatcherImplIRKSt5tupleIJhhEEE15MatchAndExplainES5_PNS_19MatchResultListenerE
FN:498,_ZNK7testing8internal14AnyMatcherImplIRKSt5tupleIJhhEEE10DescribeToEPSo
FNDA:0,_ZNK7testing8internal14AnyMatcherImplIRKSt5tupleIJhhEEE10DescribeToEPSo
FN:499,_ZNK7testing8internal14AnyMatcherImplIRKSt5tupleIJhhEEE18DescribeNegationToEPSo
FNDA:0,_ZNK7testing8internal14AnyMatcherImplIRKSt5tupleIJhhEEE18DescribeNegationToEPSo
FN:3596,_ZN7testing1AIRKSt5tupleIJhhEEEENS_7MatcherIT_EEv
FNDA:0,_ZN7testing1AIRKSt5tupleIJhhEEEENS_7MatcherIT_EEv
DA:494,0
DA:496,0
DA:498,0
DA:499,0
DA:503,0
DA:504,0
DA:3596,0
DA:3597,0
end_of_record
SF:/home/pieter/GitHub/Control-Surface/src/MIDI_Inputs/MIDINote.hpp
FN:9,_ZN13MIDINote_BaseC2ERK20MIDICNChannelAddress
FNDA:5,_ZN13MIDINote_BaseC2ERK20MIDICNChannelAddress
FN:14,_ZNK13MIDINote_Base8getStateEv
FNDA:8,_ZNK13MIDINote_Base8getStateEv
FN:17,_ZN13MIDINote_Base23getValueFromMIDIMessageERK20MIDI_message_matcher
FNDA:8,_ZN13MIDINote_Base23getValueFromMIDIMessageERK20MIDI_message_matcher
FN:27,_ZN8MIDINoteC1ERK20MIDICNChannelAddress
FNDA:4,_ZN8MIDINoteC1ERK20MIDICNChannelAddress
FN:27,_ZN8MIDINoteC2ERK20MIDICNChannelAddress
FNDA:1,_ZN8MIDINoteC2ERK20MIDICNChannelAddress
FN:29,_ZNK8MIDINote8getValueEv
FNDA:14,_ZNK8MIDINote8getValueEv
FN:31,_ZN8MIDINote5resetEv
FNDA:2,_ZN8MIDINote5resetEv
FN:34,_ZN8MIDINote10updateImplERK20MIDI_message_matcherRK20MIDICNChannelAddress
FNDA:8,_ZN8MIDINote10updateImplERK20MIDI_message_matcherRK20MIDICNChannelAddress
DA:9,5
DA:10,5
DA:14,8
DA:17,8
DA:18,8
DA:27,4
DA:27,1
DA:29,14
DA:31,2
DA:34,8
DA:36,8
DA:37,8
end_of_record
SF:/usr/include/c++/9/iostream
end_of_record
SF:/home/pieter/GitHub/Control-Surface/build/googletest/googletest-src/googletest/include/gtest/gtest-matchers.h
FN:117,_ZN7testing25MatcherDescriberInterfaceD2Ev
FNDA:0,_ZN7testing25MatcherDescriberInterfaceD2Ev
FN:117,_ZN7testing25MatcherDescriberInterfaceD0Ev
FNDA:0,_ZN7testing25MatcherDescriberInterfaceD0Ev
FN:132,_ZNK7testing25MatcherDescriberInterface18DescribeNegationToEPSo
FNDA:0,_ZNK7testing25MatcherDescriberInterface18DescribeNegationToEPSo
FN:210,_ZNK7testing8internal5AnyEqclIhhEEbRKT_RKT0_
FNDA:0,_ZNK7testing8internal5AnyEqclIhhEEbRKT_RKT0_
FN:258,_ZN7testing8internal11MatcherBaseIhEaSEOS2_
FNDA:0,_ZN7testing8internal11MatcherBaseIhEaSEOS2_
FN:273,_ZNK7testing8internal11MatcherBaseIRKSt5tupleIJhhEEE10DescribeToEPSo
FNDA:0,_ZNK7testing8internal11MatcherBaseIRKSt5tupleIJhhEEE10DescribeToEPSo
FN:294,_ZN7testing8internal11MatcherBaseIhEC2Ev
FNDA:0,_ZN7testing8internal11MatcherBaseIhEC2Ev
FN:297,_ZN7testing8internal11MatcherBaseIRKSt5tupleIJhhEEEC2EPKNS_16MatcherInterfaceIS5_EE
FNDA:0,_ZN7testing8internal11MatcherBaseIRKSt5tupleIJhhEEEC2EPKNS_16MatcherInterfaceIS5_EE
FN:297,_ZN7testing8internal11MatcherBaseIhEC2EPKNS_16MatcherInterfaceIRKhEE
FNDA:0,_ZN7testing8internal11MatcherBaseIhEC2EPKNS_16MatcherInterfaceIRKhEE
FN:306,_ZN7testing8internal11MatcherBaseIhEC2ERKS2_
FNDA:0,_ZN7testing8internal11MatcherBaseIhEC2ERKS2_
FN:308,_ZN7testing8internal11MatcherBaseIhEC2EOS2_
FNDA:0,_ZN7testing8internal11MatcherBaseIhEC2EOS2_
FN:311,_ZN7testing8internal11MatcherBaseIhED2Ev
FNDA:0,_ZN7testing8internal11MatcherBaseIhED2Ev
FN:311,_ZN7testing8internal11MatcherBaseIhED0Ev
FNDA:0,_ZN7testing8internal11MatcherBaseIhED0Ev
FN:311,_ZN7testing8internal11MatcherBaseIRKSt5tupleIJhhEEED0Ev
FNDA:0,_ZN7testing8internal11MatcherBaseIRKSt5tupleIJhhEEED0Ev
FN:311,_ZN7testing8internal11MatcherBaseIRKSt5tupleIJhhEEED2Ev
FNDA:0,_ZN7testing8internal11MatcherBaseIRKSt5tupleIJhhEEED2Ev
FN:332,_ZN7testing7MatcherIRKSt5tupleIJhhEEEC2EPKNS_16MatcherInterfaceIS4_EE
FNDA:0,_ZN7testing7MatcherIRKSt5tupleIJhhEEEC2EPKNS_16MatcherInterfaceIS4_EE
FN:332,_ZN7testing7MatcherIhEC2EPKNS_16MatcherInterfaceIRKhEE
FNDA:0,_ZN7testing7MatcherIhEC2EPKNS_16MatcherInterfaceIRKhEE
FN:529,_ZN7testing8internal14ComparisonBaseINS0_9EqMatcherIhEEhNS0_5AnyEqEEC2ERKh
FNDA:0,_ZN7testing8internal14ComparisonBaseINS0_9EqMatcherIhEEhNS0_5AnyEqEEC2ERKh
FN:531,_ZNK7testing8internal14ComparisonBaseINS0_9EqMatcherIhEEhNS0_5AnyEqEEcvNS_7MatcherIT_EEIhEEv
FNDA:0,_ZNK7testing8internal14ComparisonBaseINS0_9EqMatcherIhEEhNS0_5AnyEqEEcvNS_7MatcherIT_EEIhEEv
FN:537,_ZN7testing8internal14ComparisonBaseINS0_9EqMatcherIhEEhNS0_5AnyEqEE6UnwrapIhEERKT_S9_
FNDA:0,_ZN7testing8internal14ComparisonBaseINS0_9EqMatcherIhEEhNS0_5AnyEqEE6UnwrapIhEERKT_S9_
FN:544,_ZN7testing8internal14ComparisonBaseINS0_9EqMatcherIhEEhNS0_5AnyEqEE4ImplIRKhhEC2ES8_
FNDA:0,_ZN7testing8internal14ComparisonBaseINS0_9EqMatcherIhEEhNS0_5AnyEqEE4ImplIRKhhEC2ES8_
FN:545,_ZNK7testing8internal14ComparisonBaseINS0_9EqMatcherIhEEhNS0_5AnyEqEE4ImplIRKhhE15MatchAndExplainES8_PNS_19MatchResultListenerE
FNDA:0,_ZNK7testing8internal14ComparisonBaseINS0_9EqMatcherIhEEhNS0_5AnyEqEE4ImplIRKhhE15MatchAndExplainES8_PNS_19MatchResultListenerE
FN:549,_ZNK7testing8internal14ComparisonBaseINS0_9EqMatcherIhEEhNS0_5AnyEqEE4ImplIRKhhE10DescribeToEPSo
FNDA:0,_ZNK7testing8internal14ComparisonBaseINS0_9EqMatcherIhEEhNS0_5AnyEqEE4ImplIRKhhE10DescribeToEPSo
FN:553,_ZNK7testing8internal14ComparisonBaseINS0_9EqMatcherIhEEhNS0_5AnyEqEE4ImplIRKhhE18DescribeNegationToEPSo
FNDA:0,_ZNK7testing8internal14ComparisonBaseINS0_9EqMatcherIhEEhNS0_5AnyEqEE4ImplIRKhhE18DescribeNegationToEPSo
FN:567,_ZN7testing8internal9EqMatcherIhEC2ERKh
FNDA:0,_ZN7testing8internal9EqMatcherIhEC2ERKh
FN:569,_ZN7testing8internal9EqMatcherIhE4DescEv
FNDA:0,_ZN7testing8internal9EqMatcherIhE4DescEv
FN:570,_ZN7testing8internal9EqMatcherIhE11NegatedDescEv
FNDA:0,_ZN7testing8internal9EqMatcherIhE11NegatedDescEv
FN:693,_ZN7testing2EqIhEENS_8internal9EqMatcherIT_EES3_
FNDA:0,_ZN7testing2EqIhEENS_8internal9EqMatcherIT_EES3_
FN:698,_ZN7testing7MatcherIhEC2Eh
FNDA:0,_ZN7testing7MatcherIhEC2Eh
DA:117,0
DA:117,0
DA:132,0
DA:133,0
DA:134,0
DA:135,0
DA:136,0
DA:210,0
DA:258,0
DA:273,0
DA:294,0
DA:297,0
DA:297,0
DA:306,0
DA:308,0
DA:311,0
DA:311,0
DA:311,0
DA:311,0
DA:332,0
DA:333,0
DA:332,0
DA:333,0
DA:529,0
DA:531,0
DA:532,0
DA:537,0
DA:544,0
DA:545,0
DA:547,0
DA:549,0
DA:550,0
DA:551,0
DA:552,0
DA:553,0
DA:554,0
DA:555,0
DA:556,0
DA:567,0
DA:568,0
DA:569,0
DA:570,0
DA:693,0
DA:698,0
end_of_record
SF:/usr/include/c++/9/bits/alloc_traits.h
FN:443,_ZNSt16allocator_traitsISaISt10shared_ptrIN7testing8internal15ExpectationBaseEEEE8allocateERS5_m
FNDA:0,_ZNSt16allocator_traitsISaISt10shared_ptrIN7testing8internal15ExpectationBaseEEEE8allocateERS5_m
FN:469,_ZNSt16allocator_traitsISaISt10shared_ptrIN7testing8internal15ExpectationBaseEEEE10deallocateERS5_PS4_m
FNDA:0,_ZNSt16allocator_traitsISaISt10shared_ptrIN7testing8internal15ExpectationBaseEEEE10deallocateERS5_PS4_m
FN:482,_ZNSt16allocator_traitsISaISt10shared_ptrIN7testing8internal15ExpectationBaseEEEE9constructIS4_JS4_EEEvRS5_PT_DpOT0_
FNDA:0,_ZNSt16allocator_traitsISaISt10shared_ptrIN7testing8internal15ExpectationBaseEEEE9constructIS4_JS4_EEEvRS5_PT_DpOT0_
FN:482,_ZNSt16allocator_traitsISaISt10shared_ptrIN7testing8internal15ExpectationBaseEEEE9constructIS4_JRKS4_EEEvRS5_PT_DpOT0_
FNDA:0,_ZNSt16allocator_traitsISaISt10shared_ptrIN7testing8internal15ExpectationBaseEEEE9constructIS4_JRKS4_EEEvRS5_PT_DpOT0_
FN:495,_ZNSt16allocator_traitsISaISt10shared_ptrIN7testing8internal15ExpectationBaseEEEE7destroyIS4_EEvRS5_PT_
FNDA:0,_ZNSt16allocator_traitsISaISt10shared_ptrIN7testing8internal15ExpectationBaseEEEE7destroyIS4_EEvRS5_PT_
FN:505,_ZNSt16allocator_traitsISaISt10shared_ptrIN7testing8internal15ExpectationBaseEEEE8max_sizeERKS5_
FNDA:0,_ZNSt16allocator_traitsISaISt10shared_ptrIN7testing8internal15ExpectationBaseEEEE8max_sizeERKS5_
FN:514,_ZNSt16allocator_traitsISaIcEE37select_on_container_copy_constructionERKS0_
FNDA:0,_ZNSt16allocator_traitsISaIcEE37select_on_container_copy_constructionERKS0_
DA:443,0
DA:444,0
DA:469,0
DA:470,0
DA:482,0
DA:484,0
DA:482,0
DA:484,0
DA:495,0
DA:497,0
DA:505,0
DA:506,0
DA:514,0
DA:515,0
end_of_record
SF:/usr/include/c++/9/bits/stl_algobase.h
FN:198,_ZSt3minImERKT_S2_S2_
FNDA:0,_ZSt3minImERKT_S2_S2_
FN:222,_ZSt3maxImERKT_S2_S2_
FNDA:0,_ZSt3maxImERKT_S2_S2_
FN:280,_ZSt12__niter_baseIPSt10shared_ptrIN7testing8internal15ExpectationBaseEEET_S6_
FNDA:0,_ZSt12__niter_baseIPSt10shared_ptrIN7testing8internal15ExpectationBaseEEET_S6_
DA:198,0
DA:203,0
DA:204,0
DA:205,0
DA:222,0
DA:227,0
DA:228,0
DA:229,0
DA:280,0
DA:282,0
end_of_record
SF:/usr/include/c++/9/bits/stl_construct.h
FN:74,_ZSt10_ConstructISt10shared_ptrIN7testing8internal15ExpectationBaseEEJS4_EEvPT_DpOT0_
FNDA:0,_ZSt10_ConstructISt10shared_ptrIN7testing8internal15ExpectationBaseEEJS4_EEvPT_DpOT0_
FN:97,_ZSt8_DestroyISt10shared_ptrIN7testing8internal15ExpectationBaseEEEvPT_
FNDA:0,_ZSt8_DestroyISt10shared_ptrIN7testing8internal15ExpectationBaseEEEvPT_
FN:105,_ZNSt12_Destroy_auxILb0EE9__destroyIPSt10shared_ptrIN7testing8internal15ExpectationBaseEEEEvT_S8_
FNDA:0,_ZNSt12_Destroy_auxILb0EE9__destroyIPSt10shared_ptrIN7testing8internal15ExpectationBaseEEEEvT_S8_
FN:127,_ZSt8_DestroyIPSt10shared_ptrIN7testing8internal15ExpectationBaseEEEvT_S6_
FNDA:0,_ZSt8_DestroyIPSt10shared_ptrIN7testing8internal15ExpectationBaseEEEvT_S6_
FN:203,_ZSt8_DestroyIPSt10shared_ptrIN7testing8internal15ExpectationBaseEES4_EvT_S6_RSaIT0_E
FNDA:0,_ZSt8_DestroyIPSt10shared_ptrIN7testing8internal15ExpectationBaseEES4_EvT_S6_RSaIT0_E
DA:74,0
DA:75,0
DA:97,0
DA:98,0
DA:105,0
DA:107,0
DA:108,0
DA:109,0
DA:127,0
DA:137,0
DA:138,0
DA:203,0
DA:206,0
DA:207,0
end_of_record
SF:/usr/include/c++/9/tuple
FN:76,_ZNSt10_Head_baseILm1ESt14default_deleteINSt7__cxx1112basic_stringIcSt11char_traitsIcESaIcEEEELb1EEC2Ev
FNDA:0,_ZNSt10_Head_baseILm1ESt14default_deleteINSt7__cxx1112basic_stringIcSt11char_traitsIcESaIcEEEELb1EEC2Ev
FN:113,_ZNSt10_Head_baseILm1ESt14default_deleteINSt7__cxx1112basic_stringIcSt11char_traitsIcESaIcEEEELb1EE7_M_headERS8_
FNDA:0,_ZNSt10_Head_baseILm1ESt14default_deleteINSt7__cxx1112basic_stringIcSt11char_traitsIcESaIcEEEELb1EE7_M_headERS8_
FN:113,_ZNSt10_Head_baseILm1ESt14default_deleteINSt7__cxx1118basic_stringstreamIcSt11char_traitsIcESaIcEEEELb1EE7_M_headERS8_
FNDA:0,_ZNSt10_Head_baseILm1ESt14default_deleteINSt7__cxx1118basic_stringstreamIcSt11char_traitsIcESaIcEEEELb1EE7_M_headERS8_
FN:122,_ZNSt10_Head_baseILm0EPNSt7__cxx1112basic_stringIcSt11char_traitsIcESaIcEEELb0EEC2Ev
FNDA:0,_ZNSt10_Head_baseILm0EPNSt7__cxx1112basic_stringIcSt11char_traitsIcESaIcEEELb0EEC2Ev
FN:128,_ZNSt10_Head_baseILm0EN7testing7MatcherIhEELb0EEC2ERKS3_
FNDA:0,_ZNSt10_Head_baseILm0EN7testing7MatcherIhEELb0EEC2ERKS3_
FN:128,_ZNSt10_Head_baseILm1EN7testing7MatcherIhEELb0EEC2ERKS3_
FNDA:0,_ZNSt10_Head_baseILm1EN7testing7MatcherIhEELb0EEC2ERKS3_
FN:132,_ZNSt10_Head_baseILm0EN7testing7MatcherIhEELb0EEC2IS2_EEOT_
FNDA:0,_ZNSt10_Head_baseILm0EN7testing7MatcherIhEELb0EEC2IS2_EEOT_
FN:132,_ZNSt10_Head_baseILm1EN7testing7MatcherIhEELb0EEC2IS2_EEOT_
FNDA:0,_ZNSt10_Head_baseILm1EN7testing7MatcherIhEELb0EEC2IS2_EEOT_
FN:160,_ZNSt10_Head_baseILm0EPNSt7__cxx1118basic_stringstreamIcSt11char_traitsIcESaIcEEELb0EE7_M_headERS7_
FNDA:0,_ZNSt10_Head_baseILm0EPNSt7__cxx1118basic_stringstreamIcSt11char_traitsIcESaIcEEELb0EE7_M_headERS7_
FN:160,_ZNSt10_Head_baseILm0EPNSt7__cxx1112basic_stringIcSt11char_traitsIcESaIcEEELb0EE7_M_headERS7_
FNDA:0,_ZNSt10_Head_baseILm0EPNSt7__cxx1112basic_stringIcSt11char_traitsIcESaIcEEELb0EE7_M_headERS7_
FN:163,_ZNSt10_Head_baseILm0EPNSt7__cxx1112basic_stringIcSt11char_traitsIcESaIcEEELb0EE7_M_headERKS7_
FNDA:0,_ZNSt10_Head_baseILm0EPNSt7__cxx1112basic_stringIcSt11char_traitsIcESaIcEEELb0EE7_M_headERKS7_
FN:163,_ZNSt10_Head_baseILm0EPN7testing8internal11ThreadLocalIPNS0_8SequenceEE18ValueHolderFactoryELb0EE7_M_headERKS8_
FNDA:0,_ZNSt10_Head_baseILm0EPN7testing8internal11ThreadLocalIPNS0_8SequenceEE18ValueHolderFactoryELb0EE7_M_headERKS8_
FN:195,_ZNSt11_Tuple_implILm0EJPNSt7__cxx1112basic_stringIcSt11char_traitsIcESaIcEEESt14default_deleteIS5_EEE7_M_headERS9_
FNDA:0,_ZNSt11_Tuple_implILm0EJPNSt7__cxx1112basic_stringIcSt11char_traitsIcESaIcEEESt14default_deleteIS5_EEE7_M_headERS9_
FN:195,_ZNSt11_Tuple_implILm0EJPNSt7__cxx1118basic_stringstreamIcSt11char_traitsIcESaIcEEESt14default_deleteIS5_EEE7_M_headERS9_
FNDA:0,_ZNSt11_Tuple_implILm0EJPNSt7__cxx1118basic_stringstreamIcSt11char_traitsIcESaIcEEESt14default_deleteIS5_EEE7_M_headERS9_
FN:198,_ZNSt11_Tuple_implILm0EJPN7testing8internal11ThreadLocalIPNS0_8SequenceEE18ValueHolderFactoryESt14default_deleteIS6_EEE7_M_headERKSA_
FNDA:0,_ZNSt11_Tuple_implILm0EJPN7testing8internal11ThreadLocalIPNS0_8SequenceEE18ValueHolderFactoryESt14default_deleteIS6_EEE7_M_headERKSA_
FN:198,_ZNSt11_Tuple_implILm0EJPNSt7__cxx1112basic_stringIcSt11char_traitsIcESaIcEEESt14default_deleteIS5_EEE7_M_headERKS9_
FNDA:0,_ZNSt11_Tuple_implILm0EJPNSt7__cxx1112basic_stringIcSt11char_traitsIcESaIcEEESt14default_deleteIS5_EEE7_M_headERKS9_
FN:206,_ZNSt11_Tuple_implILm0EJPNSt7__cxx1112basic_stringIcSt11char_traitsIcESaIcEEESt14default_deleteIS5_EEEC2Ev
FNDA:0,_ZNSt11_Tuple_implILm0EJPNSt7__cxx1112basic_stringIcSt11char_traitsIcESaIcEEESt14default_deleteIS5_EEEC2Ev
FN:216,_ZNSt11_Tuple_implILm0EJN7testing7MatcherIhEES2_EEC2IS2_JS2_EvEEOT_DpOT0_
FNDA:0,_ZNSt11_Tuple_implILm0EJN7testing7MatcherIhEES2_EEC2IS2_JS2_EvEEOT_DpOT0_
FN:220,_ZNSt11_Tuple_implILm0EJN7testing7MatcherIhEES2_EEC2ERKS3_
FNDA:0,_ZNSt11_Tuple_implILm0EJN7testing7MatcherIhEES2_EEC2ERKS3_
FN:334,_ZNSt11_Tuple_implILm1EJSt14default_deleteINSt7__cxx1118basic_stringstreamIcSt11char_traitsIcESaIcEEEEEE7_M_headERS8_
FNDA:0,_ZNSt11_Tuple_implILm1EJSt14default_deleteINSt7__cxx1118basic_stringstreamIcSt11char_traitsIcESaIcEEEEEE7_M_headERS8_
FN:334,_ZNSt11_Tuple_implILm1EJSt14default_deleteINSt7__cxx1112basic_stringIcSt11char_traitsIcESaIcEEEEEE7_M_headERS8_
FNDA:0,_ZNSt11_Tuple_implILm1EJSt14default_deleteINSt7__cxx1112basic_stringIcSt11char_traitsIcESaIcEEEEEE7_M_headERS8_
FN:339,_ZNSt11_Tuple_implILm1EJSt14default_deleteINSt7__cxx1112basic_stringIcSt11char_traitsIcESaIcEEEEEEC2Ev
FNDA:0,_ZNSt11_Tuple_implILm1EJSt14default_deleteINSt7__cxx1112basic_stringIcSt11char_traitsIcESaIcEEEEEEC2Ev
FN:348,_ZNSt11_Tuple_implILm1EJN7testing7MatcherIhEEEEC2IS2_EEOT_
FNDA:0,_ZNSt11_Tuple_implILm1EJN7testing7MatcherIhEEEEC2IS2_EEOT_
FN:351,_ZNSt11_Tuple_implILm1EJN7testing7MatcherIhEEEEC2ERKS3_
FNDA:0,_ZNSt11_Tuple_implILm1EJN7testing7MatcherIhEEEEC2ERKS3_
FN:918,_ZNSt5tupleIJPNSt7__cxx1112basic_stringIcSt11char_traitsIcESaIcEEESt14default_deleteIS5_EEEC2IS6_S8_Lb1EEEv
FNDA:0,_ZNSt5tupleIJPNSt7__cxx1112basic_stringIcSt11char_traitsIcESaIcEEESt14default_deleteIS5_EEEC2IS6_S8_Lb1EEEv
FN:968,_ZNSt5tupleIJN7testing7MatcherIhEES2_EEC2IS2_S2_Lb1EEEOT_OT0_
FNDA:0,_ZNSt5tupleIJN7testing7MatcherIhEES2_EEC2IS2_S2_Lb1EEEOT_OT0_
FN:981,_ZNSt5tupleIJN7testing7MatcherIhEES2_EEC2ERKS3_
FNDA:0,_ZNSt5tupleIJN7testing7MatcherIhEES2_EEC2ERKS3_
FN:1309,_ZSt12__get_helperILm0EPNSt7__cxx1112basic_stringIcSt11char_traitsIcESaIcEEEJSt14default_deleteIS5_EEERT0_RSt11_Tuple_implIXT_EJS9_DpT1_EE
FNDA:0,_ZSt12__get_helperILm0EPNSt7__cxx1112basic_stringIcSt11char_traitsIcESaIcEEEJSt14default_deleteIS5_EEERT0_RSt11_Tuple_implIXT_EJS9_DpT1_EE
FN:1309,_ZSt12__get_helperILm0EPNSt7__cxx1118basic_stringstreamIcSt11char_traitsIcESaIcEEEJSt14default_deleteIS5_EEERT0_RSt11_Tuple_implIXT_EJS9_DpT1_EE
FNDA:0,_ZSt12__get_helperILm0EPNSt7__cxx1118basic_stringstreamIcSt11char_traitsIcESaIcEEEJSt14default_deleteIS5_EEERT0_RSt11_Tuple_implIXT_EJS9_DpT1_EE
FN:1309,_ZSt12__get_helperILm1ESt14default_deleteINSt7__cxx1112basic_stringIcSt11char_traitsIcESaIcEEEEJEERT0_RSt11_Tuple_implIXT_EJS8_DpT1_EE
FNDA:0,_ZSt12__get_helperILm1ESt14default_deleteINSt7__cxx1112basic_stringIcSt11char_traitsIcESaIcEEEEJEERT0_RSt11_Tuple_implIXT_EJS8_DpT1_EE
FN:1309,_ZSt12__get_helperILm1ESt14default_deleteINSt7__cxx1118basic_stringstreamIcSt11char_traitsIcESaIcEEEEJEERT0_RSt11_Tuple_implIXT_EJS8_DpT1_EE
FNDA:0,_ZSt12__get_helperILm1ESt14default_deleteINSt7__cxx1118basic_stringstreamIcSt11char_traitsIcESaIcEEEEJEERT0_RSt11_Tuple_implIXT_EJS8_DpT1_EE
FN:1314,_ZSt12__get_helperILm0EPN7testing8internal11ThreadLocalIPNS0_8SequenceEE18ValueHolderFactoryEJSt14default_deleteIS6_EEERKT0_RKSt11_Tuple_implIXT_EJSA_DpT1_EE
FNDA:0,_ZSt12__get_helperILm0EPN7testing8internal11ThreadLocalIPNS0_8SequenceEE18ValueHolderFactoryEJSt14default_deleteIS6_EEERKT0_RKSt11_Tuple_implIXT_EJSA_DpT1_EE
FN:1314,_ZSt12__get_helperILm0EPNSt7__cxx1112basic_stringIcSt11char_traitsIcESaIcEEEJSt14default_deleteIS5_EEERKT0_RKSt11_Tuple_implIXT_EJS9_DpT1_EE
FNDA:0,_ZSt12__get_helperILm0EPNSt7__cxx1112basic_stringIcSt11char_traitsIcESaIcEEEJSt14default_deleteIS5_EEERKT0_RKSt11_Tuple_implIXT_EJS9_DpT1_EE
FN:1320,_ZSt3getILm0EJPNSt7__cxx1112basic_stringIcSt11char_traitsIcESaIcEEESt14default_deleteIS5_EEERNSt13tuple_elementIXT_ESt5tupleIJDpT0_EEE4typeERSD_
FNDA:0,_ZSt3getILm0EJPNSt7__cxx1112basic_stringIcSt11char_traitsIcESaIcEEESt14default_deleteIS5_EEERNSt13tuple_elementIXT_ESt5tupleIJDpT0_EEE4typeERSD_
FN:1320,_ZSt3getILm0EJPNSt7__cxx1118basic_stringstreamIcSt11char_traitsIcESaIcEEESt14default_deleteIS5_EEERNSt13tuple_elementIXT_ESt5tupleIJDpT0_EEE4typeERSD_
FNDA:0,_ZSt3getILm0EJPNSt7__cxx1118basic_stringstreamIcSt11char_traitsIcESaIcEEESt14default_deleteIS5_EEERNSt13tuple_elementIXT_ESt5tupleIJDpT0_EEE4typeERSD_
FN:1320,_ZSt3getILm1EJPNSt7__cxx1118basic_stringstreamIcSt11char_traitsIcESaIcEEESt14default_deleteIS5_EEERNSt13tuple_elementIXT_ESt5tupleIJDpT0_EEE4typeERSD_
FNDA:0,_ZSt3getILm1EJPNSt7__cxx1118basic_stringstreamIcSt11char_traitsIcESaIcEEESt14default_deleteIS5_EEERNSt13tuple_elementIXT_ESt5tupleIJDpT0_EEE4typeERSD_
FN:1320,_ZSt3getILm1EJPNSt7__cxx1112basic_stringIcSt11char_traitsIcESaIcEEESt14default_deleteIS5_EEERNSt13tuple_elementIXT_ESt5tupleIJDpT0_EEE4typeERSD_
FNDA:0,_ZSt3getILm1EJPNSt7__cxx1112basic_stringIcSt11char_traitsIcESaIcEEESt14default_deleteIS5_EEERNSt13tuple_elementIXT_ESt5tupleIJDpT0_EEE4typeERSD_
FN:1326,_ZSt3getILm0EJPNSt7__cxx1112basic_stringIcSt11char_traitsIcESaIcEEESt14default_deleteIS5_EEERKNSt13tuple_elementIXT_ESt5tupleIJDpT0_EEE4typeERKSD_
FNDA:0,_ZSt3getILm0EJPNSt7__cxx1112basic_stringIcSt11char_traitsIcESaIcEEESt14default_deleteIS5_EEERKNSt13tuple_elementIXT_ESt5tupleIJDpT0_EEE4typeERKSD_
FN:1326,_ZSt3getILm0EJPN7testing8internal11ThreadLocalIPNS0_8SequenceEE18ValueHolderFactoryESt14default_deleteIS6_EEERKNSt13tuple_elementIXT_ESt5tupleIJDpT0_EEE4typeERKSE_
FNDA:0,_ZSt3getILm0EJPN7testing8internal11ThreadLocalIPNS0_8SequenceEE18ValueHolderFactoryESt14default_deleteIS6_EEERKNSt13tuple_elementIXT_ESt5tupleIJDpT0_EEE4typeERKSE_
FN:1470,_ZSt10make_tupleIJN7testing7MatcherIhEES2_EESt5tupleIJDpNSt17__decay_and_stripIT_E6__typeEEEDpOS5_
FNDA:0,_ZSt10make_tupleIJN7testing7MatcherIhEES2_EESt5tupleIJDpNSt17__decay_and_stripIT_E6__typeEEEDpOS5_
DA:76,0
DA:77,0
DA:113,0
DA:113,0
DA:122,0
DA:123,0
DA:128,0
DA:128,0
DA:132,0
DA:133,0
DA:132,0
DA:133,0
DA:160,0
DA:160,0
DA:163,0
DA:163,0
DA:195,0
DA:195,0
DA:198,0
DA:198,0
DA:206,0
DA:207,0
DA:216,0
DA:218,0
DA:220,0
DA:334,0
DA:334,0
DA:339,0
DA:340,0
DA:348,0
DA:349,0
DA:351,0
DA:918,0
DA:919,0
DA:968,0
DA:969,0
DA:981,0
DA:1309,0
DA:1310,0
DA:1309,0
DA:1310,0
DA:1309,0
DA:1310,0
DA:1309,0
DA:1310,0
DA:1314,0
DA:1315,0
DA:1314,0
DA:1315,0
DA:1320,0
DA:1321,0
DA:1320,0
DA:1321,0
DA:1320,0
DA:1321,0
DA:1320,0
DA:1321,0
DA:1326,0
DA:1327,0
DA:1326,0
DA:1327,0
DA:1470,0
DA:1474,0
end_of_record
SF:/usr/include/c++/9/bits/move.h
FN:47,_ZSt11__addressofISt10shared_ptrIN7testing8internal15ExpectationBaseEEEPT_RS5_
FNDA:0,_ZSt11__addressofISt10shared_ptrIN7testing8internal15ExpectationBaseEEEPT_RS5_
FN:74,_ZSt7forwardISt10shared_ptrIN7testing8internal15ExpectationBaseEEEOT_RNSt16remove_referenceIS5_E4typeE
FNDA:0,_ZSt7forwardISt10shared_ptrIN7testing8internal15ExpectationBaseEEEOT_RNSt16remove_referenceIS5_E4typeE
FN:74,_ZSt7forwardIRKSt10shared_ptrIN7testing8internal15ExpectationBaseEEEOT_RNSt16remove_referenceIS7_E4typeE
FNDA:0,_ZSt7forwardIRKSt10shared_ptrIN7testing8internal15ExpectationBaseEEEOT_RNSt16remove_referenceIS7_E4typeE
FN:74,_ZSt7forwardIN7testing7MatcherIhEEEOT_RNSt16remove_referenceIS3_E4typeE
FNDA:0,_ZSt7forwardIN7testing7MatcherIhEEEOT_RNSt16remove_referenceIS3_E4typeE
FN:99,_ZSt4moveIRSt10shared_ptrIN7testing8internal15ExpectationBaseEEEONSt16remove_referenceIT_E4typeEOS7_
FNDA:0,_ZSt4moveIRSt10shared_ptrIN7testing8internal15ExpectationBaseEEEONSt16remove_referenceIT_E4typeEOS7_
FN:99,_ZSt4moveIRPKN7testing16MatcherInterfaceIRKhEEEONSt16remove_referenceIT_E4typeEOS9_
FNDA:0,_ZSt4moveIRPKN7testing16MatcherInterfaceIRKhEEEONSt16remove_referenceIT_E4typeEOS9_
FN:99,_ZSt4moveIRSt12__shared_ptrIKN7testing16MatcherInterfaceIRKhEELN9__gnu_cxx12_Lock_policyE2EEEONSt16remove_referenceIT_E4typeEOSC_
FNDA:0,_ZSt4moveIRSt12__shared_ptrIKN7testing16MatcherInterfaceIRKhEELN9__gnu_cxx12_Lock_policyE2EEEONSt16remove_referenceIT_E4typeEOSC_
FN:99,_ZSt4moveIRSt10shared_ptrIKN7testing16MatcherInterfaceIRKhEEEEONSt16remove_referenceIT_E4typeEOSA_
FNDA:0,_ZSt4moveIRSt10shared_ptrIKN7testing16MatcherInterfaceIRKhEEEEONSt16remove_referenceIT_E4typeEOSA_
FN:99,_ZSt4moveIRN7testing7MatcherIhEEEONSt16remove_referenceIT_E4typeEOS5_
FNDA:0,_ZSt4moveIRN7testing7MatcherIhEEEONSt16remove_referenceIT_E4typeEOS5_
FN:99,_ZSt4moveIRPNSt7__cxx1112basic_stringIcSt11char_traitsIcESaIcEEEEONSt16remove_referenceIT_E4typeEOS9_
FNDA:0,_ZSt4moveIRPNSt7__cxx1112basic_stringIcSt11char_traitsIcESaIcEEEEONSt16remove_referenceIT_E4typeEOS9_
FN:99,_ZSt4moveIRPNSt7__cxx1118basic_stringstreamIcSt11char_traitsIcESaIcEEEEONSt16remove_referenceIT_E4typeEOS9_
FNDA:0,_ZSt4moveIRPNSt7__cxx1118basic_stringstreamIcSt11char_traitsIcESaIcEEEEONSt16remove_referenceIT_E4typeEOS9_
FN:99,_ZSt4moveIRNSt7__cxx1112basic_stringIcSt11char_traitsIcESaIcEEEEONSt16remove_referenceIT_E4typeEOS8_
FNDA:0,_ZSt4moveIRNSt7__cxx1112basic_stringIcSt11char_traitsIcESaIcEEEEONSt16remove_referenceIT_E4typeEOS8_
FN:99,_ZSt4moveIRSaIcEEONSt16remove_referenceIT_E4typeEOS3_
FNDA:0,_ZSt4moveIRSaIcEEONSt16remove_referenceIT_E4typeEOS3_
FN:182,_ZSt4swapIPKN7testing16MatcherInterfaceIRKhEEENSt9enable_ifIXsrSt6__and_IJSt6__not_ISt15__is_tuple_likeIT_EESt21is_move_constructibleISB_ESt18is_move_assignableISB_EEE5valueEvE4typeERSB_SL_
FNDA:0,_ZSt4swapIPKN7testing16MatcherInterfaceIRKhEEENSt9enable_ifIXsrSt6__and_IJSt6__not_ISt15__is_tuple_likeIT_EESt21is_move_constructibleISB_ESt18is_move_assignableISB_EEE5valueEvE4typeERSB_SL_
DA:47,0
DA:48,0
DA:74,0
DA:75,0
DA:74,0
DA:75,0
DA:74,0
DA:75,0
DA:99,0
DA:100,0
DA:99,0
DA:100,0
DA:99,0
DA:100,0
DA:99,0
DA:100,0
DA:99,0
DA:100,0
DA:99,0
DA:100,0
DA:99,0
DA:100,0
DA:99,0
DA:100,0
DA:99,0
DA:100,0
DA:182,0
DA:193,0
DA:194,0
DA:195,0
DA:196,0
end_of_record
SF:/usr/include/c++/9/bits/vector.tcc
FN:426,_ZNSt6vectorISt10shared_ptrIN7testing8internal15ExpectationBaseEESaIS4_EE17_M_realloc_insertIJRKS4_EEEvN9__gnu_cxx17__normal_iteratorIPS4_S6_EEDpOT_
FNDA:0,_ZNSt6vectorISt10shared_ptrIN7testing8internal15ExpectationBaseEESaIS4_EE17_M_realloc_insertIJRKS4_EEEvN9__gnu_cxx17__normal_iteratorIPS4_S6_EEDpOT_
DA:426,0
DA:435,0
DA:437,0
DA:438,0
DA:439,0
DA:440,0
DA:441,0
DA:449,0
DA:450,0
DA:456,0
DA:459,0
DA:461,0
DA:462,0
DA:464,0
DA:466,0
DA:467,0
DA:474,0
DA:475,0
DA:477,0
DA:481,0
DA:482,0
DA:485,0
DA:487,0
DA:488,0
DA:489,0
DA:491,0
DA:492,0
DA:493,0
DA:496,0
DA:498,0
DA:500,0
DA:501,0
DA:502,0
DA:503,0
DA:504,0
DA:505,0
end_of_record
SF:/usr/include/c++/9/bits/stl_uninitialized.h
FN:76,_ZNSt20__uninitialized_copyILb0EE13__uninit_copyISt13move_iteratorIPSt10shared_ptrIN7testing8internal15ExpectationBaseEEES8_EET0_T_SB_SA_
FNDA:0,_ZNSt20__uninitialized_copyILb0EE13__uninit_copyISt13move_iteratorIPSt10shared_ptrIN7testing8internal15ExpectationBaseEEES8_EET0_T_SB_SA_
FN:115,_ZSt18uninitialized_copyISt13move_iteratorIPSt10shared_ptrIN7testing8internal15ExpectationBaseEEES6_ET0_T_S9_S8_
FNDA:0,_ZSt18uninitialized_copyISt13move_iteratorIPSt10shared_ptrIN7testing8internal15ExpectationBaseEEES6_ET0_T_S9_S8_
FN:287,_ZSt22__uninitialized_copy_aISt13move_iteratorIPSt10shared_ptrIN7testing8internal15ExpectationBaseEEES6_S5_ET0_T_S9_S8_RSaIT1_E
FNDA:0,_ZSt22__uninitialized_copy_aISt13move_iteratorIPSt10shared_ptrIN7testing8internal15ExpectationBaseEEES6_S5_ET0_T_S9_S8_RSaIT1_E
FN:305,_ZSt34__uninitialized_move_if_noexcept_aIPSt10shared_ptrIN7testing8internal15ExpectationBaseEES5_SaIS4_EET0_T_S8_S7_RT1_
FNDA:0,_ZSt34__uninitialized_move_if_noexcept_aIPSt10shared_ptrIN7testing8internal15ExpectationBaseEES5_SaIS4_EET0_T_S8_S7_RT1_
FN:887,_ZSt19__relocate_object_aISt10shared_ptrIN7testing8internal15ExpectationBaseEES4_SaIS4_EEvPT_PT0_RT1_
FNDA:0,_ZSt19__relocate_object_aISt10shared_ptrIN7testing8internal15ExpectationBaseEES4_SaIS4_EEvPT_PT0_RT1_
FN:918,_ZSt14__relocate_a_1IPSt10shared_ptrIN7testing8internal15ExpectationBaseEES5_SaIS4_EET0_T_S8_S7_RT1_
FNDA:0,_ZSt14__relocate_a_1IPSt10shared_ptrIN7testing8internal15ExpectationBaseEES5_SaIS4_EET0_T_S8_S7_RT1_
FN:940,_ZSt12__relocate_aIPSt10shared_ptrIN7testing8internal15ExpectationBaseEES5_SaIS4_EET0_T_S8_S7_RT1_
FNDA:0,_ZSt12__relocate_aIPSt10shared_ptrIN7testing8internal15ExpectationBaseEES5_SaIS4_EET0_T_S8_S7_RT1_
DA:76,0
DA:79,0
DA:82,0
DA:83,0
DA:84,0
DA:86,0
DA:88,0
DA:89,0
DA:115,0
DA:128,0
DA:134,0
DA:287,0
DA:289,0
DA:305,0
DA:311,0
DA:312,0
DA:887,0
DA:894,0
DA:895,0
DA:896,0
DA:918,0
DA:930,0
DA:931,0
DA:932,0
DA:934,0
DA:940,0
DA:946,0
DA:948,0
end_of_record
SF:/usr/include/x86_64-linux-gnu/c++/9/bits/gthr-default.h
FN:248,_ZL18__gthread_active_pv
FNDA:0,_ZL18__gthread_active_pv
DA:248,0
DA:252,0
end_of_record
SF:/usr/include/c++/9/bits/basic_string.tcc
FN:206,_ZNSt7__cxx1112basic_stringIcSt11char_traitsIcESaIcEE12_M_constructIPcEEvT_S7_St20forward_iterator_tag
FNDA:0,_ZNSt7__cxx1112basic_stringIcSt11char_traitsIcESaIcEE12_M_constructIPcEEvT_S7_St20forward_iterator_tag
FN:206,_ZNSt7__cxx1112basic_stringIcSt11char_traitsIcESaIcEE12_M_constructIPKcEEvT_S8_St20forward_iterator_tag
FNDA:0,_ZNSt7__cxx1112basic_stringIcSt11char_traitsIcESaIcEE12_M_constructIPKcEEvT_S8_St20forward_iterator_tag
DA:206,0
DA:211,0
DA:212,0
DA:215,0
DA:217,0
DA:219,0
DA:220,0
DA:225,0
DA:226,0
DA:228,0
DA:229,0
DA:232,0
DA:233,0
DA:206,0
DA:211,0
DA:212,0
DA:215,0
DA:217,0
DA:219,0
DA:220,0
DA:225,0
DA:226,0
DA:228,0
DA:229,0
DA:232,0
DA:233,0
end_of_record
SF:/usr/include/c++/9/bits/shared_ptr.h
FN:127,_ZNSt10shared_ptrIKN7testing16MatcherInterfaceIRKhEEEC2Ev
FNDA:0,_ZNSt10shared_ptrIKN7testing16MatcherInterfaceIRKhEEEC2Ev
FN:129,_ZNSt10shared_ptrIKN7testing16MatcherInterfaceIRKhEEEC2ERKS6_
FNDA:0,_ZNSt10shared_ptrIKN7testing16MatcherInterfaceIRKhEEEC2ERKS6_
FN:129,_ZNSt10shared_ptrIN7testing8internal15ExpectationBaseEEC2ERKS3_
FNDA:0,_ZNSt10shared_ptrIN7testing8internal15ExpectationBaseEEC2ERKS3_
FN:139,_ZNSt10shared_ptrIKN7testing16MatcherInterfaceIRKSt5tupleIJhhEEEEEC2IS7_vEEPT_
FNDA:0,_ZNSt10shared_ptrIKN7testing16MatcherInterfaceIRKSt5tupleIJhhEEEEEC2IS7_vEEPT_
FN:139,_ZNSt10shared_ptrIKN7testing16MatcherInterfaceIRKhEEEC2IS5_vEEPT_
FNDA:0,_ZNSt10shared_ptrIKN7testing16MatcherInterfaceIRKhEEEC2IS5_vEEPT_
FN:139,_ZNSt10shared_ptrIN7testing8internal15ExpectationBaseEEC2INS1_16TypedExpectationIFvhhEEEvEEPT_
FNDA:0,_ZNSt10shared_ptrIN7testing8internal15ExpectationBaseEEC2INS1_16TypedExpectationIFvhhEEEvEEPT_
FN:139,_ZNSt10shared_ptrIN7testing11ExpectationEEC2IS1_vEEPT_
FNDA:0,_ZNSt10shared_ptrIN7testing11ExpectationEEC2IS1_vEEPT_
FN:254,_ZNSt10shared_ptrIN7testing8internal15ExpectationBaseEEC2EOS3_
FNDA:0,_ZNSt10shared_ptrIN7testing8internal15ExpectationBaseEEC2EOS3_
FN:254,_ZNSt10shared_ptrIKN7testing16MatcherInterfaceIRKhEEEC2EOS6_
FNDA:0,_ZNSt10shared_ptrIKN7testing16MatcherInterfaceIRKhEEEC2EOS6_
FN:333,_ZNSt10shared_ptrIKN7testing16MatcherInterfaceIRKhEEEaSEOS6_
FNDA:0,_ZNSt10shared_ptrIKN7testing16MatcherInterfaceIRKhEEEaSEOS6_
DA:127,0
DA:129,0
DA:129,0
DA:139,0
DA:139,0
DA:139,0
DA:139,0
DA:254,0
DA:255,0
DA:254,0
DA:255,0
DA:333,0
DA:335,0
DA:336,0
end_of_record
SF:/home/pieter/GitHub/Control-Surface/build/googletest/googletest-src/googletest/include/gtest/gtest-message.h
end_of_record
SF:/usr/include/c++/9/bits/stl_vector.h
FN:273,_ZNSt12_Vector_baseISt10shared_ptrIN7testing8internal15ExpectationBaseEESaIS4_EE19_M_get_Tp_allocatorEv
FNDA:0,_ZNSt12_Vector_baseISt10shared_ptrIN7testing8internal15ExpectationBaseEESaIS4_EE19_M_get_Tp_allocatorEv
FN:277,_ZNKSt12_Vector_baseISt10shared_ptrIN7testing8internal15ExpectationBaseEESaIS4_EE19_M_get_Tp_allocatorEv
FNDA:0,_ZNKSt12_Vector_baseISt10shared_ptrIN7testing8internal15ExpectationBaseEESaIS4_EE19_M_get_Tp_allocatorEv
FN:340,_ZNSt12_Vector_baseISt10shared_ptrIN7testing8internal15ExpectationBaseEESaIS4_EE11_M_allocateEm
FNDA:0,_ZNSt12_Vector_baseISt10shared_ptrIN7testing8internal15ExpectationBaseEESaIS4_EE11_M_allocateEm
FN:347,_ZNSt12_Vector_baseISt10shared_ptrIN7testing8internal15ExpectationBaseEESaIS4_EE13_M_deallocateEPS4_m
FNDA:0,_ZNSt12_Vector_baseISt10shared_ptrIN7testing8internal15ExpectationBaseEESaIS4_EE13_M_deallocateEPS4_m
FN:428,_ZNSt6vectorISt10shared_ptrIN7testing8internal15ExpectationBaseEESaIS4_EE19_S_nothrow_relocateESt17integral_constantIbLb1EE
FNDA:0,_ZNSt6vectorISt10shared_ptrIN7testing8internal15ExpectationBaseEESaIS4_EE19_S_nothrow_relocateESt17integral_constantIbLb1EE
FN:441,_ZNSt6vectorISt10shared_ptrIN7testing8internal15ExpectationBaseEESaIS4_EE15_S_use_relocateEv
FNDA:0,_ZNSt6vectorISt10shared_ptrIN7testing8internal15ExpectationBaseEESaIS4_EE15_S_use_relocateEv
FN:450,_ZNSt6vectorISt10shared_ptrIN7testing8internal15ExpectationBaseEESaIS4_EE14_S_do_relocateEPS4_S7_S7_RS5_St17integral_constantIbLb1EE
FNDA:0,_ZNSt6vectorISt10shared_ptrIN7testing8internal15ExpectationBaseEESaIS4_EE14_S_do_relocateEPS4_S7_S7_RS5_St17integral_constantIbLb1EE
FN:462,_ZNSt6vectorISt10shared_ptrIN7testing8internal15ExpectationBaseEESaIS4_EE11_S_relocateEPS4_S7_S7_RS5_
FNDA:0,_ZNSt6vectorISt10shared_ptrIN7testing8internal15ExpectationBaseEESaIS4_EE11_S_relocateEPS4_S7_S7_RS5_
FN:808,_ZNSt6vectorIPKvSaIS1_EE5beginEv
FNDA:0,_ZNSt6vectorIPKvSaIS1_EE5beginEv
FN:808,_ZNSt6vectorISt10shared_ptrIN7testing8internal15ExpectationBaseEESaIS4_EE5beginEv
FNDA:0,_ZNSt6vectorISt10shared_ptrIN7testing8internal15ExpectationBaseEESaIS4_EE5beginEv
FN:826,_ZNSt6vectorISt10shared_ptrIN7testing8internal15ExpectationBaseEESaIS4_EE3endEv
FNDA:0,_ZNSt6vectorISt10shared_ptrIN7testing8internal15ExpectationBaseEESaIS4_EE3endEv
FN:826,_ZNSt6vectorIPKvSaIS1_EE3endEv
FNDA:0,_ZNSt6vectorIPKvSaIS1_EE3endEv
FN:915,_ZNKSt6vectorISt10shared_ptrIN7testing8internal15ExpectationBaseEESaIS4_EE4sizeEv
FNDA:0,_ZNKSt6vectorISt10shared_ptrIN7testing8internal15ExpectationBaseEESaIS4_EE4sizeEv
FN:920,_ZNKSt6vectorISt10shared_ptrIN7testing8internal15ExpectationBaseEESaIS4_EE8max_sizeEv
FNDA:0,_ZNKSt6vectorISt10shared_ptrIN7testing8internal15ExpectationBaseEESaIS4_EE8max_sizeEv
FN:1184,_ZNSt6vectorISt10shared_ptrIN7testing8internal15ExpectationBaseEESaIS4_EE9push_backERKS4_
FNDA:0,_ZNSt6vectorISt10shared_ptrIN7testing8internal15ExpectationBaseEESaIS4_EE9push_backERKS4_
FN:1753,_ZNKSt6vectorISt10shared_ptrIN7testing8internal15ExpectationBaseEESaIS4_EE12_M_check_lenEmPKc
FNDA:0,_ZNKSt6vectorISt10shared_ptrIN7testing8internal15ExpectationBaseEESaIS4_EE12_M_check_lenEmPKc
FN:1773,_ZNSt6vectorISt10shared_ptrIN7testing8internal15ExpectationBaseEESaIS4_EE11_S_max_sizeERKS5_
FNDA:0,_ZNSt6vectorISt10shared_ptrIN7testing8internal15ExpectationBaseEESaIS4_EE11_S_max_sizeERKS5_
DA:273,0
DA:274,0
DA:277,0
DA:278,0
DA:340,0
DA:343,0
DA:347,0
DA:350,0
DA:351,0
DA:352,0
DA:428,0
DA:433,0
DA:441,0
DA:446,0
DA:450,0
DA:453,0
DA:462,0
DA:466,0
DA:808,0
DA:809,0
DA:808,0
DA:809,0
DA:826,0
DA:827,0
DA:826,0
DA:827,0
DA:915,0
DA:916,0
DA:920,0
DA:921,0
DA:1184,0
DA:1186,0
DA:1189,0
DA:1191,0
DA:1195,0
DA:1196,0
DA:1753,0
DA:1755,0
DA:1756,0
DA:1758,0
DA:1759,0
DA:1773,0
DA:1778,0
DA:1780,0
DA:1781,0
end_of_record
SF:/home/pieter/GitHub/Control-Surface/src/MIDI_Inputs/LEDs/MIDINoteLED.hpp
FN:9,_ZN16MIDINoteLED_BaseC2Et
FNDA:1,_ZN16MIDINoteLED_BaseC2Et
FN:12,_ZN16MIDINoteLED_Base5beginEv
FNDA:1,_ZN16MIDINoteLED_Base5beginEv
FN:15,_ZNK16MIDINoteLED_Base7displayEv
FNDA:2,_ZNK16MIDINoteLED_Base7displayEv
FN:35,_ZN11MIDINoteLEDC1EtRK20MIDICNChannelAddress
FNDA:1,_ZN11MIDINoteLEDC1EtRK20MIDICNChannelAddress
DA:9,1
DA:12,1
DA:15,2
DA:35,1
DA:36,1
end_of_record
SF:/home/pieter/GitHub/Control-Surface/build/googletest/googletest-src/googletest/include/gtest/gtest-printers.h
FN:259,_ZN16testing_internal26DefaultPrintNonContainerToIiEEvRKT_PSo
FNDA:0,_ZN16testing_internal26DefaultPrintNonContainerToIiEEvRKT_PSo
FN:312,_ZN7testing8internal19FormatForComparisonIihE6FormatB5cxx11ERKi
FNDA:0,_ZN7testing8internal19FormatForComparisonIihE6FormatB5cxx11ERKi
FN:312,_ZN7testing8internal19FormatForComparisonIhiE6FormatB5cxx11ERKh
FNDA:0,_ZN7testing8internal19FormatForComparisonIhiE6FormatB5cxx11ERKh
FN:376,_ZN7testing8internal33FormatForComparisonFailureMessageIihEENSt7__cxx1112basic_stringIcSt11char_traitsIcESaIcEEERKT_RKT0_
FNDA:0,_ZN7testing8internal33FormatForComparisonFailureMessageIihEENSt7__cxx1112basic_stringIcSt11char_traitsIcESaIcEEERKT_RKT0_
FN:376,_ZN7testing8internal33FormatForComparisonFailureMessageIhiEENSt7__cxx1112basic_stringIcSt11char_traitsIcESaIcEEERKT_RKT0_
FNDA:0,_ZN7testing8internal33FormatForComparisonFailureMessageIhiEENSt7__cxx1112basic_stringIcSt11char_traitsIcESaIcEEERKT_RKT0_
FN:465,_ZN7testing8internal14DefaultPrintToIiEEvNS0_15WrapPrinterTypeILNS0_18DefaultPrinterTypeE3EEERKT_PSo
FNDA:0,_ZN7testing8internal14DefaultPrintToIiEEvNS0_15WrapPrinterTypeILNS0_18DefaultPrinterTypeE3EEERKT_PSo
FN:482,_ZN7testing8internal7PrintToIiEEvRKT_PSo
FNDA:0,_ZN7testing8internal7PrintToIiEEvRKT_PSo
FN:669,_ZN7testing8internal16UniversalPrinterIiE5PrintERKiPSo
FNDA:0,_ZN7testing8internal16UniversalPrinterIiE5PrintERKiPSo
FN:669,_ZN7testing8internal16UniversalPrinterIhE5PrintERKhPSo
FNDA:0,_ZN7testing8internal16UniversalPrinterIhE5PrintERKhPSo
FN:795,_ZN7testing8internal21UniversalTersePrinterIiE5PrintERKiPSo
FNDA:0,_ZN7testing8internal21UniversalTersePrinterIiE5PrintERKiPSo
FN:795,_ZN7testing8internal21UniversalTersePrinterIhE5PrintERKhPSo
FNDA:0,_ZN7testing8internal21UniversalTersePrinterIhE5PrintERKhPSo
FN:864,_ZN7testing8internal14UniversalPrintIiEEvRKT_PSo
FNDA:0,_ZN7testing8internal14UniversalPrintIiEEvRKT_PSo
FN:864,_ZN7testing8internal14UniversalPrintIhEEvRKT_PSo
FNDA:0,_ZN7testing8internal14UniversalPrintIhEEvRKT_PSo
FN:914,_ZN7testing13PrintToStringIiEENSt7__cxx1112basic_stringIcSt11char_traitsIcESaIcEEERKT_
FNDA:0,_ZN7testing13PrintToStringIiEENSt7__cxx1112basic_stringIcSt11char_traitsIcESaIcEEERKT_
FN:914,_ZN7testing13PrintToStringIhEENSt7__cxx1112basic_stringIcSt11char_traitsIcESaIcEEERKT_
FNDA:0,_ZN7testing13PrintToStringIhEENSt7__cxx1112basic_stringIcSt11char_traitsIcESaIcEEERKT_
DA:259,0
DA:286,0
DA:287,0
DA:312,0
DA:313,0
DA:312,0
DA:313,0
DA:376,0
DA:378,0
DA:376,0
DA:378,0
DA:465,0
DA:467,0
DA:468,0
DA:482,0
DA:502,0
DA:513,0
DA:669,0
DA:678,0
DA:679,0
DA:669,0
DA:678,0
DA:679,0
DA:795,0
DA:796,0
DA:797,0
DA:795,0
DA:796,0
DA:797,0
DA:864,0
DA:868,0
DA:869,0
DA:864,0
DA:868,0
DA:869,0
DA:914,0
DA:915,0
DA:916,0
DA:917,0
DA:914,0
DA:915,0
DA:916,0
DA:917,0
end_of_record
SF:/home/pieter/GitHub/Control-Surface/src/MIDI_Inputs/MIDI_message_matcher.hpp
FN:9,_ZN20MIDI_message_matcherC2Eh7Channelhhh
FNDA:0,_ZN20MIDI_message_matcherC2Eh7Channelhhh
DA:9,0
DA:11,0
DA:12,0
end_of_record
SF:/home/pieter/GitHub/Control-Surface/build/googletest/googletest-src/googlemock/include/gmock/internal/gmock-internal-utils.h
FN:298,_ZN7testing8internal6ExpectEbPKciRKNSt7__cxx1112basic_stringIcSt11char_traitsIcESaIcEEE
FNDA:0,_ZN7testing8internal6ExpectEbPKciRKNSt7__cxx1112basic_stringIcSt11char_traitsIcESaIcEEE
DA:298,0
DA:300,0
DA:301,0
DA:302,0
DA:304,0
end_of_record
SF:/usr/include/c++/9/new
FN:173,_ZnwmPv
FNDA:0,_ZnwmPv
DA:173,0
DA:174,0
end_of_record
SF:/home/pieter/GitHub/Control-Surface/build/googletest/googletest-src/googlemock/include/gmock/gmock-actions.h
FN:358,_ZN7testing6ActionIFvhhEEC2Ev
FNDA:0,_ZN7testing6ActionIFvhhEEC2Ev
FN:724,_ZNK7testing8internal15DoDefaultActioncvNS_6ActionIT_EEIFvhhEEEv
FNDA:0,_ZNK7testing8internal15DoDefaultActioncvNS_6ActionIT_EEIFvhhEEEv
FN:1074,_ZN7testing9DoDefaultEv
FNDA:0,_ZN7testing9DoDefaultEv
DA:358,0
DA:724,0
DA:1074,0
DA:1075,0
end_of_record
SF:/home/pieter/GitHub/Control-Surface/build/googletest/googletest-src/googletest/include/gtest/internal/gtest-internal.h
FN:442,_ZN7testing8internal15TestFactoryBaseD0Ev
FNDA:0,_ZN7testing8internal15TestFactoryBaseD0Ev
FN:442,_ZN7testing8internal15TestFactoryBaseD2Ev
FNDA:0,_ZN7testing8internal15TestFactoryBaseD2Ev
FN:449,_ZN7testing8internal15TestFactoryBaseC2Ev
FNDA:0,_ZN7testing8internal15TestFactoryBaseC2Ev
FN:460,_ZN7testing8internal15TestFactoryImplI27MIDINote_NoteOnNoteOff_TestE10CreateTestEv
FNDA:1,_ZN7testing8internal15TestFactoryImplI27MIDINote_NoteOnNoteOff_TestE10CreateTestEv
FN:460,_ZN7testing8internal15TestFactoryImplI38MIDINote_NoteOnNoteOnZeroVelocity_TestE10CreateTestEv
FNDA:1,_ZN7testing8internal15TestFactoryImplI38MIDINote_NoteOnNoteOnZeroVelocity_TestE10CreateTestEv
FN:460,_ZN7testing8internal15TestFactoryImplI19MIDINote_reset_TestE10CreateTestEv
FNDA:1,_ZN7testing8internal15TestFactoryImplI19MIDINote_reset_TestE10CreateTestEv
FN:460,_ZN7testing8internal15TestFactoryImplI22MIDINote_resetAll_TestE10CreateTestEv
FNDA:1,_ZN7testing8internal15TestFactoryImplI22MIDINote_resetAll_TestE10CreateTestEv
FN:460,_ZN7testing8internal15TestFactoryImplI30MIDINoteLED_NoteOnNoteOff_TestE10CreateTestEv
FNDA:1,_ZN7testing8internal15TestFactoryImplI30MIDINoteLED_NoteOnNoteOff_TestE10CreateTestEv
FN:481,_ZN7testing8internal12CodeLocationC2ERKNSt7__cxx1112basic_stringIcSt11char_traitsIcESaIcEEEi
FNDA:0,_ZN7testing8internal12CodeLocationC2ERKNSt7__cxx1112basic_stringIcSt11char_traitsIcESaIcEEEi
FN:494,_ZN7testing8internal19GetNotDefaultOrNullEPFvvES2_
FNDA:0,_ZN7testing8internal19GetNotDefaultOrNullEPFvvES2_
FN:509,_ZN7testing8internal16SuiteApiResolverINS_4TestEE19GetSetUpCaseOrSuiteEv
FNDA:0,_ZN7testing8internal16SuiteApiResolverINS_4TestEE19GetSetUpCaseOrSuiteEv
FN:522,_ZN7testing8internal16SuiteApiResolverINS_4TestEE22GetTearDownCaseOrSuiteEv
FNDA:0,_ZN7testing8internal16SuiteApiResolverINS_4TestEE22GetTearDownCaseOrSuiteEv
DA:442,0
DA:442,0
DA:449,0
DA:460,1
DA:460,1
DA:460,1
DA:460,1
DA:460,1
DA:481,0
DA:482,0
DA:494,0
DA:496,0
DA:509,0
DA:511,0
DA:513,0
DA:515,0
DA:516,0
DA:519,0
DA:522,0
DA:524,0
DA:526,0
DA:528,0
DA:529,0
DA:532,0
end_of_record
SF:/usr/include/c++/9/bits/char_traits.h
FN:329,_ZNSt11char_traitsIcE6lengthEPKc
FNDA:0,_ZNSt11char_traitsIcE6lengthEPKc
FN:361,_ZNSt11char_traitsIcE4copyEPcPKcm
FNDA:0,_ZNSt11char_traitsIcE4copyEPcPKcm
DA:329,0
DA:335,0
DA:361,0
DA:363,0
DA:364,0
DA:365,0
end_of_record
SF:/usr/include/c++/9/bits/unique_ptr.h
FN:75,_ZNKSt14default_deleteINSt7__cxx1112basic_stringIcSt11char_traitsIcESaIcEEEEclEPS5_
FNDA:0,_ZNKSt14default_deleteINSt7__cxx1112basic_stringIcSt11char_traitsIcESaIcEEEEclEPS5_
FN:75,_ZNKSt14default_deleteINSt7__cxx1118basic_stringstreamIcSt11char_traitsIcESaIcEEEEclEPS5_
FNDA:0,_ZNKSt14default_deleteINSt7__cxx1118basic_stringstreamIcSt11char_traitsIcESaIcEEEEclEPS5_
FN:146,_ZNSt15__uniq_ptr_implINSt7__cxx1112basic_stringIcSt11char_traitsIcESaIcEEESt14default_deleteIS5_EEC2Ev
FNDA:0,_ZNSt15__uniq_ptr_implINSt7__cxx1112basic_stringIcSt11char_traitsIcESaIcEEESt14default_deleteIS5_EEC2Ev
FN:153,_ZNSt15__uniq_ptr_implINSt7__cxx1118basic_stringstreamIcSt11char_traitsIcESaIcEEESt14default_deleteIS5_EE6_M_ptrEv
FNDA:0,_ZNSt15__uniq_ptr_implINSt7__cxx1118basic_stringstreamIcSt11char_traitsIcESaIcEEESt14default_deleteIS5_EE6_M_ptrEv
FN:153,_ZNSt15__uniq_ptr_implINSt7__cxx1112basic_stringIcSt11char_traitsIcESaIcEEESt14default_deleteIS5_EE6_M_ptrEv
FNDA:0,_ZNSt15__uniq_ptr_implINSt7__cxx1112basic_stringIcSt11char_traitsIcESaIcEEESt14default_deleteIS5_EE6_M_ptrEv
FN:154,_ZNKSt15__uniq_ptr_implIN7testing8internal11ThreadLocalIPNS0_8SequenceEE18ValueHolderFactoryESt14default_deleteIS6_EE6_M_ptrEv
FNDA:0,_ZNKSt15__uniq_ptr_implIN7testing8internal11ThreadLocalIPNS0_8SequenceEE18ValueHolderFactoryESt14default_deleteIS6_EE6_M_ptrEv
FN:154,_ZNKSt15__uniq_ptr_implINSt7__cxx1112basic_stringIcSt11char_traitsIcESaIcEEESt14default_deleteIS5_EE6_M_ptrEv
FNDA:0,_ZNKSt15__uniq_ptr_implINSt7__cxx1112basic_stringIcSt11char_traitsIcESaIcEEESt14default_deleteIS5_EE6_M_ptrEv
FN:155,_ZNSt15__uniq_ptr_implINSt7__cxx1112basic_stringIcSt11char_traitsIcESaIcEEESt14default_deleteIS5_EE10_M_deleterEv
FNDA:0,_ZNSt15__uniq_ptr_implINSt7__cxx1112basic_stringIcSt11char_traitsIcESaIcEEESt14default_deleteIS5_EE10_M_deleterEv
FN:155,_ZNSt15__uniq_ptr_implINSt7__cxx1118basic_stringstreamIcSt11char_traitsIcESaIcEEESt14default_deleteIS5_EE10_M_deleterEv
FNDA:0,_ZNSt15__uniq_ptr_implINSt7__cxx1118basic_stringstreamIcSt11char_traitsIcESaIcEEESt14default_deleteIS5_EE10_M_deleterEv
FN:196,_ZNSt10unique_ptrINSt7__cxx1112basic_stringIcSt11char_traitsIcESaIcEEESt14default_deleteIS5_EEC2IS7_vEEv
FNDA:0,_ZNSt10unique_ptrINSt7__cxx1112basic_stringIcSt11char_traitsIcESaIcEEESt14default_deleteIS5_EEC2IS7_vEEv
FN:283,_ZNSt10unique_ptrINSt7__cxx1118basic_stringstreamIcSt11char_traitsIcESaIcEEESt14default_deleteIS5_EED2Ev
FNDA:0,_ZNSt10unique_ptrINSt7__cxx1118basic_stringstreamIcSt11char_traitsIcESaIcEEESt14default_deleteIS5_EED2Ev
FN:283,_ZNSt10unique_ptrINSt7__cxx1112basic_stringIcSt11char_traitsIcESaIcEEESt14default_deleteIS5_EED2Ev
FNDA:0,_ZNSt10unique_ptrINSt7__cxx1112basic_stringIcSt11char_traitsIcESaIcEEESt14default_deleteIS5_EED2Ev
FN:349,_ZNKSt10unique_ptrIN7testing8internal11ThreadLocalIPNS0_8SequenceEE18ValueHolderFactoryESt14default_deleteIS6_EEptEv
FNDA:0,_ZNKSt10unique_ptrIN7testing8internal11ThreadLocalIPNS0_8SequenceEE18ValueHolderFactoryESt14default_deleteIS6_EEptEv
FN:349,_ZNKSt10unique_ptrINSt7__cxx1112basic_stringIcSt11char_traitsIcESaIcEEESt14default_deleteIS5_EEptEv
FNDA:0,_ZNKSt10unique_ptrINSt7__cxx1112basic_stringIcSt11char_traitsIcESaIcEEESt14default_deleteIS5_EEptEv
FN:357,_ZNKSt10unique_ptrINSt7__cxx1112basic_stringIcSt11char_traitsIcESaIcEEESt14default_deleteIS5_EE3getEv
FNDA:0,_ZNKSt10unique_ptrINSt7__cxx1112basic_stringIcSt11char_traitsIcESaIcEEESt14default_deleteIS5_EE3getEv
FN:357,_ZNKSt10unique_ptrIN7testing8internal11ThreadLocalIPNS0_8SequenceEE18ValueHolderFactoryESt14default_deleteIS6_EE3getEv
FNDA:0,_ZNKSt10unique_ptrIN7testing8internal11ThreadLocalIPNS0_8SequenceEE18ValueHolderFactoryESt14default_deleteIS6_EE3getEv
FN:362,_ZNSt10unique_ptrINSt7__cxx1118basic_stringstreamIcSt11char_traitsIcESaIcEEESt14default_deleteIS5_EE11get_deleterEv
FNDA:0,_ZNSt10unique_ptrINSt7__cxx1118basic_stringstreamIcSt11char_traitsIcESaIcEEESt14default_deleteIS5_EE11get_deleterEv
FN:362,_ZNSt10unique_ptrINSt7__cxx1112basic_stringIcSt11char_traitsIcESaIcEEESt14default_deleteIS5_EE11get_deleterEv
FNDA:0,_ZNSt10unique_ptrINSt7__cxx1112basic_stringIcSt11char_traitsIcESaIcEEESt14default_deleteIS5_EE11get_deleterEv
DA:75,0
DA:81,0
DA:82,0
DA:75,0
DA:81,0
DA:82,0
DA:146,0
DA:153,0
DA:153,0
DA:154,0
DA:154,0
DA:155,0
DA:155,0
DA:196,0
DA:197,0
DA:198,0
DA:283,0
DA:287,0
DA:288,0
DA:289,0
DA:290,0
DA:291,0
DA:283,0
DA:287,0
DA:288,0
DA:289,0
DA:290,0
DA:291,0
DA:349,0
DA:352,0
DA:349,0
DA:352,0
DA:357,0
DA:358,0
DA:357,0
DA:358,0
DA:362,0
DA:363,0
DA:362,0
DA:363,0
end_of_record
SF:/home/pieter/GitHub/Control-Surface/src/Def/MIDICNChannelAddress.hpp
FN:73,_ZN20MIDICNChannelAddressC2Ei7Channeli
FNDA:0,_ZN20MIDICNChannelAddressC2Ei7Channeli
DA:73,0
DA:75,0
DA:77,0
DA:78,0
DA:79,0
DA:80,0
end_of_record
SF:/home/pieter/GitHub/Control-Surface/src/Helpers/LinkedList.hpp
FN:25,_ZN16DoublyLinkedListI20MIDIInputElementNoteE18node_iterator_baseIS0_EC2EPS0_
FNDA:20,_ZN16DoublyLinkedListI20MIDIInputElementNoteE18node_iterator_baseIS0_EC2EPS0_
FN:27,_ZNK16DoublyLinkedListI20MIDIInputElementNoteE18node_iterator_baseIS0_EneERKS3_
FNDA:12,_ZNK16DoublyLinkedListI20MIDIInputElementNoteE18node_iterator_baseIS0_EneERKS3_
FN:31,_ZNK16DoublyLinkedListI20MIDIInputElementNoteE18node_iterator_baseIS0_EdeEv
FNDA:10,_ZNK16DoublyLinkedListI20MIDIInputElementNoteE18node_iterator_baseIS0_EdeEv
FN:44,_ZN16DoublyLinkedListI20MIDIInputElementNoteE13node_iteratorIS0_EC2EPS0_
FNDA:20,_ZN16DoublyLinkedListI20MIDIInputElementNoteE13node_iteratorIS0_EC2EPS0_
FN:55,_ZN16DoublyLinkedListI20MIDIInputElementNoteE13node_iteratorIS0_EppEv
FNDA:2,_ZN16DoublyLinkedListI20MIDIInputElementNoteE13node_iteratorIS0_EppEv
FN:109,_ZN16DoublyLinkedListI20MIDIInputElementNoteE6appendEPS0_
FNDA:5,_ZN16DoublyLinkedListI20MIDIInputElementNoteE6appendEPS0_
FN:192,_ZN16DoublyLinkedListI20MIDIInputElementNoteE6removeEPS0_
FNDA:5,_ZN16DoublyLinkedListI20MIDIInputElementNoteE6removeEPS0_
FN:224,_ZN16DoublyLinkedListI20MIDIInputElementNoteE8moveDownEPS0_
FNDA:8,_ZN16DoublyLinkedListI20MIDIInputElementNoteE8moveDownEPS0_
FN:265,_ZN16DoublyLinkedListI20MIDIInputElementNoteE5beginEv
FNDA:10,_ZN16DoublyLinkedListI20MIDIInputElementNoteE5beginEv
FN:266,_ZN16DoublyLinkedListI20MIDIInputElementNoteE3endEv
FNDA:10,_ZN16DoublyLinkedListI20MIDIInputElementNoteE3endEv
FN:299,_ZN14DoublyLinkableI20MIDIInputElementNoteED0Ev
FNDA:0,_ZN14DoublyLinkableI20MIDIInputElementNoteED0Ev
FN:299,_ZN14DoublyLinkableI20MIDIInputElementNoteED2Ev
FNDA:5,_ZN14DoublyLinkableI20MIDIInputElementNoteED2Ev
DA:25,20
DA:27,12
DA:28,12
DA:31,10
DA:33,10
DA:44,20
DA:55,2
DA:57,2
DA:58,2
DA:109,5
DA:110,5
DA:111,5
DA:112,5
DA:113,5
DA:114,0
DA:115,5
DA:116,5
DA:117,5
DA:192,5
DA:193,5
DA:194,0
DA:195,5
DA:196,5
DA:197,5
DA:198,0
DA:199,5
DA:200,5
DA:201,5
DA:202,5
DA:203,5
DA:224,8
DA:225,8
DA:226,8
DA:227,8
DA:228,0
DA:229,0
DA:231,0
DA:232,0
DA:234,0
DA:235,0
DA:236,0
DA:237,0
DA:238,0
DA:239,0
DA:240,0
DA:242,0
DA:265,10
DA:266,10
DA:299,0
DA:299,5
end_of_record
SF:/usr/include/c++/9/bits/basic_string.h
FN:243,_ZNSt7__cxx1112basic_stringIcSt11char_traitsIcESaIcEE16_M_construct_auxIPcEEvT_S7_St12__false_type
FNDA:0,_ZNSt7__cxx1112basic_stringIcSt11char_traitsIcESaIcEE16_M_construct_auxIPcEEvT_S7_St12__false_type
FN:243,_ZNSt7__cxx1112basic_stringIcSt11char_traitsIcESaIcEE16_M_construct_auxIPKcEEvT_S8_St12__false_type
FNDA:0,_ZNSt7__cxx1112basic_stringIcSt11char_traitsIcESaIcEE16_M_construct_auxIPKcEEvT_S8_St12__false_type
FN:263,_ZNSt7__cxx1112basic_stringIcSt11char_traitsIcESaIcEE12_M_constructIPcEEvT_S7_
FNDA:0,_ZNSt7__cxx1112basic_stringIcSt11char_traitsIcESaIcEE12_M_constructIPcEEvT_S7_
FN:263,_ZNSt7__cxx1112basic_stringIcSt11char_traitsIcESaIcEE12_M_constructIPKcEEvT_S8_
FNDA:0,_ZNSt7__cxx1112basic_stringIcSt11char_traitsIcESaIcEE12_M_constructIPKcEEvT_S8_
FN:6057,_ZStplIcSt11char_traitsIcESaIcEENSt7__cxx1112basic_stringIT_T0_T1_EERKS8_PKS5_
FNDA:0,_ZStplIcSt11char_traitsIcESaIcEENSt7__cxx1112basic_stringIT_T0_T1_EERKS8_PKS5_
FN:6121,_ZStplIcSt11char_traitsIcESaIcEENSt7__cxx1112basic_stringIT_T0_T1_EEOS8_PKS5_
FNDA:0,_ZStplIcSt11char_traitsIcESaIcEENSt7__cxx1112basic_stringIT_T0_T1_EEOS8_PKS5_
DA:243,0
DA:247,0
DA:248,0
DA:243,0
DA:247,0
DA:248,0
DA:263,0
DA:266,0
DA:267,0
DA:263,0
DA:266,0
DA:267,0
DA:6057,0
DA:6060,0
DA:6061,0
DA:6062,0
DA:6121,0
DA:6123,0
end_of_record
SF:/home/pieter/GitHub/Control-Surface/src/MIDI_Inputs/MIDIInputElementNote.hpp
FN:28,_ZN20MIDIInputElementNoteC2ERK20MIDICNChannelAddress
FNDA:5,_ZN20MIDIInputElementNoteC2ERK20MIDICNChannelAddress
FN:38,_ZN20MIDIInputElementNoteD0Ev
FNDA:0,_ZN20MIDIInputElementNoteD0Ev
FN:38,_ZN20MIDIInputElementNoteD2Ev
FNDA:5,_ZN20MIDIInputElementNoteD2Ev
FN:48,_ZN20MIDIInputElementNote8beginAllEv
FNDA:1,_ZN20MIDIInputElementNote8beginAllEv
FN:70,_ZN20MIDIInputElementNote8resetAllEv
FNDA:1,_ZN20MIDIInputElementNote8resetAllEv
FN:82,_ZN20MIDIInputElementNote13updateAllWithERK20MIDI_message_matcher
FNDA:8,_ZN20MIDIInputElementNote13updateAllWithERK20MIDI_message_matcher
FN:92,_ZN20MIDIInputElementNote8moveDownEv
FNDA:8,_ZN20MIDIInputElementNote8moveDownEv
DA:28,5
DA:29,5
DA:31,5
DA:32,5
DA:38,0
DA:41,0
DA:38,5
DA:40,5
DA:41,5
DA:48,1
DA:50,2
DA:51,1
DA:52,1
DA:70,1
DA:72,2
DA:73,1
DA:74,1
DA:82,8
DA:83,8
DA:84,8
DA:85,8
DA:92,8
DA:94,8
DA:95,8
end_of_record
SF:/home/pieter/GitHub/Control-Surface/src/MIDI_Inputs/MIDIInputElement.hpp
FN:22,_ZN16MIDIInputElementC2ERK20MIDICNChannelAddress
FNDA:0,_ZN16MIDIInputElementC2ERK20MIDICNChannelAddress
FN:25,_ZN16MIDIInputElementD0Ev
FNDA:0,_ZN16MIDIInputElementD0Ev
FN:25,_ZN16MIDIInputElementD2Ev
FNDA:0,_ZN16MIDIInputElementD2Ev
FN:28,_ZN16MIDIInputElement5beginEv
FNDA:0,_ZN16MIDIInputElement5beginEv
FN:31,_ZNK16MIDIInputElement7displayEv
FNDA:0,_ZNK16MIDIInputElement7displayEv
FN:37,_ZN16MIDIInputElement6updateEv
FNDA:0,_ZN16MIDIInputElement6updateEv
FN:40,_ZN16MIDIInputElement10updateWithERK20MIDI_message_matcher
FNDA:0,_ZN16MIDIInputElement10updateWithERK20MIDI_message_matcher
FN:66,_ZNK16MIDIInputElement9getTargetERK20MIDI_message_matcher
FNDA:0,_ZNK16MIDIInputElement9getTargetERK20MIDI_message_matcher
FN:76,_ZNK16MIDIInputElement5matchERK20MIDICNChannelAddress
FNDA:0,_ZNK16MIDIInputElement5matchERK20MIDICNChannelAddress
DA:22,0
DA:25,0
DA:25,0
DA:28,0
DA:31,0
DA:37,0
DA:40,0
DA:42,0
DA:43,0
DA:44,0
DA:46,0
DA:47,0
DA:49,0
DA:50,0
DA:51,0
DA:66,0
DA:67,0
DA:76,0
DA:77,0
end_of_record
SF:/home/pieter/GitHub/Control-Surface/build/googletest/googletest-src/googletest/include/gtest/internal/gtest-port.h
FN:980,_ZN7testing8internal8GTestLog9GetStreamEv
FNDA:0,_ZN7testing8internal8GTestLog9GetStreamEv
FN:1135,_ZN7testing8internal27CheckedDowncastToActualTypeINS0_11ThreadLocalIPNS_8SequenceEE11ValueHolderENS0_26ThreadLocalValueHolderBaseEEEPT_PT0_
FNDA:0,_ZN7testing8internal27CheckedDowncastToActualTypeINS0_11ThreadLocalIPNS_8SequenceEE11ValueHolderENS0_26ThreadLocalValueHolderBaseEEEPT_PT0_
FN:1792,_ZNK7testing8internal11ThreadLocalIPNS_8SequenceEE7pointerEv
FNDA:0,_ZNK7testing8internal11ThreadLocalIPNS_8SequenceEE7pointerEv
FN:1793,_ZNK7testing8internal11ThreadLocalIPNS_8SequenceEE3getEv
FNDA:0,_ZNK7testing8internal11ThreadLocalIPNS_8SequenceEE3getEv
FN:1803,_ZN7testing8internal11ThreadLocalIPNS_8SequenceEE11ValueHolder7pointerEv
FNDA:0,_ZN7testing8internal11ThreadLocalIPNS_8SequenceEE11ValueHolder7pointerEv
FN:1819,_ZNK7testing8internal11ThreadLocalIPNS_8SequenceEE16GetOrCreateValueEv
FNDA:0,_ZNK7testing8internal11ThreadLocalIPNS_8SequenceEE16GetOrCreateValueEv
DA:980,0
DA:1135,0
DA:1137,0
DA:1143,0
DA:1792,0
DA:1793,0
DA:1803,0
DA:1819,0
DA:1821,0
DA:1822,0
DA:1823,0
DA:1826,0
DA:1827,0
DA:1828,0
DA:1829,0
end_of_record
SF:/home/pieter/GitHub/Control-Surface/ArduinoMock/ArduinoMock.hpp
FN:17,_ZN11ArduinoMock13gmock_pinModeERKN7testing7MatcherIhEES4_
FNDA:0,_ZN11ArduinoMock13gmock_pinModeERKN7testing7MatcherIhEES4_
FN:18,_ZN11ArduinoMock18gmock_digitalWriteERKN7testing7MatcherIhEES4_
FNDA:0,_ZN11ArduinoMock18gmock_digitalWriteERKN7testing7MatcherIhEES4_
DA:17,0
DA:18,0
end_of_record
SF:/home/pieter/GitHub/Control-Surface/build/googletest/googletest-src/googletest/include/gtest/gtest.h
FN:293,_ZN7testing15AssertionResultC2IbEERKT_PNS_8internal8EnableIfIXntsrSt14is_convertibleIS2_S0_E5valueEE4typeE
FNDA:0,_ZN7testing15AssertionResultC2IbEERKT_PNS_8internal8EnableIfIXntsrSt14is_convertibleIS2_S0_E5valueEE4typeE
FN:312,_ZNK7testing15AssertionResultcvbEv
FNDA:0,_ZNK7testing15AssertionResultcvbEv
FN:321,_ZNK7testing15AssertionResult7messageEv
FNDA:0,_ZNK7testing15AssertionResult7messageEv
FN:325,_ZNK7testing15AssertionResult15failure_messageEv
FNDA:0,_ZNK7testing15AssertionResult15failure_messageEv
FN:415,_ZN7testing4Test14SetUpTestSuiteEv
FNDA:0,_ZN7testing4Test14SetUpTestSuiteEv
FN:423,_ZN7testing4Test17TearDownTestSuiteEv
FNDA:0,_ZN7testing4Test17TearDownTestSuiteEv
FN:427,_ZN7testing4Test16TearDownTestCaseEv
FNDA:0,_ZN7testing4Test16TearDownTestCaseEv
FN:428,_ZN7testing4Test13SetUpTestCaseEv
FNDA:0,_ZN7testing4Test13SetUpTestCaseEv
FN:509,_ZN7testing4Test5SetupEv
FNDA:0,_ZN7testing4Test5SetupEv
FN:1484,_ZN7testing8internal18CmpHelperEQFailureIhiEENS_15AssertionResultEPKcS4_RKT_RKT0_
FNDA:0,_ZN7testing8internal18CmpHelperEQFailureIhiEENS_15AssertionResultEPKcS4_RKT_RKT0_
FN:1503,_ZN7testing8internal11CmpHelperEQIhiEENS_15AssertionResultEPKcS4_RKT_RKT0_
FNDA:0,_ZN7testing8internal11CmpHelperEQIhiEENS_15AssertionResultEPKcS4_RKT_RKT0_
FN:1531,_ZN7testing8internal8EqHelper7CompareIhiLPv0EEENS_15AssertionResultEPKcS6_RKT_RKT0_
FNDA:0,_ZN7testing8internal8EqHelper7CompareIhiLPv0EEENS_15AssertionResultEPKcS6_RKT_RKT0_
DA:293,0
DA:299,0
DA:312,0
DA:321,0
DA:322,0
DA:325,0
DA:415,0
DA:423,0
DA:427,0
DA:428,0
DA:509,0
DA:1484,0
DA:1491,0
DA:1503,0
DA:1507,0
DA:1508,0
DA:1511,0
DA:1531,0
DA:1534,0
end_of_record
SF:/home/pieter/GitHub/Control-Surface/src/Def/Channel.hpp
FN:18,_ZN7ChannelC2Ea
FNDA:0,_ZN7ChannelC2Ea
FN:26,_ZNK7Channel6getRawEv
FNDA:0,_ZNK7Channel6getRawEv
DA:18,0
DA:19,0
DA:26,0
end_of_record
SF:/usr/include/c++/9/bits/stl_iterator_base_types.h
FN:205,_ZSt19__iterator_categoryIPcENSt15iterator_traitsIT_E17iterator_categoryERKS2_
FNDA:0,_ZSt19__iterator_categoryIPcENSt15iterator_traitsIT_E17iterator_categoryERKS2_
FN:205,_ZSt19__iterator_categoryIPKcENSt15iterator_traitsIT_E17iterator_categoryERKS3_
FNDA:0,_ZSt19__iterator_categoryIPKcENSt15iterator_traitsIT_E17iterator_categoryERKS3_
DA:205,0
DA:206,0
DA:205,0
DA:206,0
end_of_record
SF:/usr/include/c++/9/bits/shared_ptr_base.h
FN:117,_ZNSt16_Sp_counted_baseILN9__gnu_cxx12_Lock_policyE2EEC2Ev
FNDA:0,_ZNSt16_Sp_counted_baseILN9__gnu_cxx12_Lock_policyE2EEC2Ev
FN:121,_ZNSt16_Sp_counted_baseILN9__gnu_cxx12_Lock_policyE2EED0Ev
FNDA:0,_ZNSt16_Sp_counted_baseILN9__gnu_cxx12_Lock_policyE2EED0Ev
FN:121,_ZNSt16_Sp_counted_baseILN9__gnu_cxx12_Lock_policyE2EED2Ev
FNDA:0,_ZNSt16_Sp_counted_baseILN9__gnu_cxx12_Lock_policyE2EED2Ev
FN:131,_ZNSt16_Sp_counted_baseILN9__gnu_cxx12_Lock_policyE2EE10_M_destroyEv
FNDA:0,_ZNSt16_Sp_counted_baseILN9__gnu_cxx12_Lock_policyE2EE10_M_destroyEv
FN:138,_ZNSt16_Sp_counted_baseILN9__gnu_cxx12_Lock_policyE2EE15_M_add_ref_copyEv
FNDA:0,_ZNSt16_Sp_counted_baseILN9__gnu_cxx12_Lock_policyE2EE15_M_add_ref_copyEv
FN:148,_ZNSt16_Sp_counted_baseILN9__gnu_cxx12_Lock_policyE2EE10_M_releaseEv
FNDA:0,_ZNSt16_Sp_counted_baseILN9__gnu_cxx12_Lock_policyE2EE10_M_releaseEv
FN:372,_ZNSt15_Sp_counted_ptrIPN7testing11ExpectationELN9__gnu_cxx12_Lock_policyE2EEC2ES2_
FNDA:0,_ZNSt15_Sp_counted_ptrIPN7testing11ExpectationELN9__gnu_cxx12_Lock_policyE2EEC2ES2_
FN:372,_ZNSt15_Sp_counted_ptrIPN7testing8internal16TypedExpectationIFvhhEEELN9__gnu_cxx12_Lock_policyE2EEC2ES5_
FNDA:0,_ZNSt15_Sp_counted_ptrIPN7testing8internal16TypedExpectationIFvhhEEELN9__gnu_cxx12_Lock_policyE2EEC2ES5_
FN:372,_ZNSt15_Sp_counted_ptrIPKN7testing16MatcherInterfaceIRKhEELN9__gnu_cxx12_Lock_policyE2EEC2ES6_
FNDA:0,_ZNSt15_Sp_counted_ptrIPKN7testing16MatcherInterfaceIRKhEELN9__gnu_cxx12_Lock_policyE2EEC2ES6_
FN:372,_ZNSt15_Sp_counted_ptrIPKN7testing16MatcherInterfaceIRKSt5tupleIJhhEEEELN9__gnu_cxx12_Lock_policyE2EEC2ES8_
FNDA:0,_ZNSt15_Sp_counted_ptrIPKN7testing16MatcherInterfaceIRKSt5tupleIJhhEEEELN9__gnu_cxx12_Lock_policyE2EEC2ES8_
FN:376,_ZNSt15_Sp_counted_ptrIPN7testing11ExpectationELN9__gnu_cxx12_Lock_policyE2EE10_M_disposeEv
FNDA:0,_ZNSt15_Sp_counted_ptrIPN7testing11ExpectationELN9__gnu_cxx12_Lock_policyE2EE10_M_disposeEv
FN:376,_ZNSt15_Sp_counted_ptrIPKN7testing16MatcherInterfaceIRKSt5tupleIJhhEEEELN9__gnu_cxx12_Lock_policyE2EE10_M_disposeEv
FNDA:0,_ZNSt15_Sp_counted_ptrIPKN7testing16MatcherInterfaceIRKSt5tupleIJhhEEEELN9__gnu_cxx12_Lock_policyE2EE10_M_disposeEv
FN:376,_ZNSt15_Sp_counted_ptrIPKN7testing16MatcherInterfaceIRKhEELN9__gnu_cxx12_Lock_policyE2EE10_M_disposeEv
FNDA:0,_ZNSt15_Sp_counted_ptrIPKN7testing16MatcherInterfaceIRKhEELN9__gnu_cxx12_Lock_policyE2EE10_M_disposeEv
FN:376,_ZNSt15_Sp_counted_ptrIPN7testing8internal16TypedExpectationIFvhhEEELN9__gnu_cxx12_Lock_policyE2EE10_M_disposeEv
FNDA:0,_ZNSt15_Sp_counted_ptrIPN7testing8internal16TypedExpectationIFvhhEEELN9__gnu_cxx12_Lock_policyE2EE10_M_disposeEv
FN:380,_ZNSt15_Sp_counted_ptrIPKN7testing16MatcherInterfaceIRKSt5tupleIJhhEEEELN9__gnu_cxx12_Lock_policyE2EE10_M_destroyEv
FNDA:0,_ZNSt15_Sp_counted_ptrIPKN7testing16MatcherInterfaceIRKSt5tupleIJhhEEEELN9__gnu_cxx12_Lock_policyE2EE10_M_destroyEv
FN:380,_ZNSt15_Sp_counted_ptrIPKN7testing16MatcherInterfaceIRKhEELN9__gnu_cxx12_Lock_policyE2EE10_M_destroyEv
FNDA:0,_ZNSt15_Sp_counted_ptrIPKN7testing16MatcherInterfaceIRKhEELN9__gnu_cxx12_Lock_policyE2EE10_M_destroyEv
FN:380,_ZNSt15_Sp_counted_ptrIPN7testing8internal16TypedExpectationIFvhhEEELN9__gnu_cxx12_Lock_policyE2EE10_M_destroyEv
FNDA:0,_ZNSt15_Sp_counted_ptrIPN7testing8internal16TypedExpectationIFvhhEEELN9__gnu_cxx12_Lock_policyE2EE10_M_destroyEv
FN:380,_ZNSt15_Sp_counted_ptrIPN7testing11ExpectationELN9__gnu_cxx12_Lock_policyE2EE10_M_destroyEv
FNDA:0,_ZNSt15_Sp_counted_ptrIPN7testing11ExpectationELN9__gnu_cxx12_Lock_policyE2EE10_M_destroyEv
FN:384,_ZNSt15_Sp_counted_ptrIPKN7testing16MatcherInterfaceIRKSt5tupleIJhhEEEELN9__gnu_cxx12_Lock_policyE2EE14_M_get_deleterERKSt9type_info
FNDA:0,_ZNSt15_Sp_counted_ptrIPKN7testing16MatcherInterfaceIRKSt5tupleIJhhEEEELN9__gnu_cxx12_Lock_policyE2EE14_M_get_deleterERKSt9type_info
FN:384,_ZNSt15_Sp_counted_ptrIPKN7testing16MatcherInterfaceIRKhEELN9__gnu_cxx12_Lock_policyE2EE14_M_get_deleterERKSt9type_info
FNDA:0,_ZNSt15_Sp_counted_ptrIPKN7testing16MatcherInterfaceIRKhEELN9__gnu_cxx12_Lock_policyE2EE14_M_get_deleterERKSt9type_info
FN:384,_ZNSt15_Sp_counted_ptrIPN7testing11ExpectationELN9__gnu_cxx12_Lock_policyE2EE14_M_get_deleterERKSt9type_info
FNDA:0,_ZNSt15_Sp_counted_ptrIPN7testing11ExpectationELN9__gnu_cxx12_Lock_policyE2EE14_M_get_deleterERKSt9type_info
FN:384,_ZNSt15_Sp_counted_ptrIPN7testing8internal16TypedExpectationIFvhhEEELN9__gnu_cxx12_Lock_policyE2EE14_M_get_deleterERKSt9type_info
FNDA:0,_ZNSt15_Sp_counted_ptrIPN7testing8internal16TypedExpectationIFvhhEEELN9__gnu_cxx12_Lock_policyE2EE14_M_get_deleterERKSt9type_info
FN:616,_ZNSt14__shared_countILN9__gnu_cxx12_Lock_policyE2EEC2Ev
FNDA:0,_ZNSt14__shared_countILN9__gnu_cxx12_Lock_policyE2EEC2Ev
FN:621,_ZNSt14__shared_countILN9__gnu_cxx12_Lock_policyE2EEC2IPN7testing11ExpectationEEET_
FNDA:0,_ZNSt14__shared_countILN9__gnu_cxx12_Lock_policyE2EEC2IPN7testing11ExpectationEEET_
FN:621,_ZNSt14__shared_countILN9__gnu_cxx12_Lock_policyE2EEC2IPKN7testing16MatcherInterfaceIRKhEEEET_
FNDA:0,_ZNSt14__shared_countILN9__gnu_cxx12_Lock_policyE2EEC2IPKN7testing16MatcherInterfaceIRKhEEEET_
FN:621,_ZNSt14__shared_countILN9__gnu_cxx12_Lock_policyE2EEC2IPN7testing8internal16TypedExpectationIFvhhEEEEET_
FNDA:0,_ZNSt14__shared_countILN9__gnu_cxx12_Lock_policyE2EEC2IPN7testing8internal16TypedExpectationIFvhhEEEEET_
FN:621,_ZNSt14__shared_countILN9__gnu_cxx12_Lock_policyE2EEC2IPKN7testing16MatcherInterfaceIRKSt5tupleIJhhEEEEEET_
FNDA:0,_ZNSt14__shared_countILN9__gnu_cxx12_Lock_policyE2EEC2IPKN7testing16MatcherInterfaceIRKSt5tupleIJhhEEEEEET_
FN:635,_ZNSt14__shared_countILN9__gnu_cxx12_Lock_policyE2EEC2IPKN7testing16MatcherInterfaceIRKhEEEET_St17integral_constantIbLb0EE
FNDA:0,_ZNSt14__shared_countILN9__gnu_cxx12_Lock_policyE2EEC2IPKN7testing16MatcherInterfaceIRKhEEEET_St17integral_constantIbLb0EE
FN:635,_ZNSt14__shared_countILN9__gnu_cxx12_Lock_policyE2EEC2IPN7testing8internal16TypedExpectationIFvhhEEEEET_St17integral_constantIbLb0EE
FNDA:0,_ZNSt14__shared_countILN9__gnu_cxx12_Lock_policyE2EEC2IPN7testing8internal16TypedExpectationIFvhhEEEEET_St17integral_constantIbLb0EE
FN:635,_ZNSt14__shared_countILN9__gnu_cxx12_Lock_policyE2EEC2IPN7testing11ExpectationEEET_St17integral_constantIbLb0EE
FNDA:0,_ZNSt14__shared_countILN9__gnu_cxx12_Lock_policyE2EEC2IPN7testing11ExpectationEEET_St17integral_constantIbLb0EE
FN:635,_ZNSt14__shared_countILN9__gnu_cxx12_Lock_policyE2EEC2IPKN7testing16MatcherInterfaceIRKSt5tupleIJhhEEEEEET_St17integral_constantIbLb0EE
FNDA:0,_ZNSt14__shared_countILN9__gnu_cxx12_Lock_policyE2EEC2IPKN7testing16MatcherInterfaceIRKSt5tupleIJhhEEEEEET_St17integral_constantIbLb0EE
FN:727,_ZNSt14__shared_countILN9__gnu_cxx12_Lock_policyE2EED2Ev
FNDA:0,_ZNSt14__shared_countILN9__gnu_cxx12_Lock_policyE2EED2Ev
FN:733,_ZNSt14__shared_countILN9__gnu_cxx12_Lock_policyE2EEC2ERKS2_
FNDA:0,_ZNSt14__shared_countILN9__gnu_cxx12_Lock_policyE2EEC2ERKS2_
FN:756,_ZNSt14__shared_countILN9__gnu_cxx12_Lock_policyE2EE7_M_swapERS2_
FNDA:0,_ZNSt14__shared_countILN9__gnu_cxx12_Lock_policyE2EE7_M_swapERS2_
FN:1012,_ZNKSt19__shared_ptr_accessIKN7testing16MatcherInterfaceIRKSt5tupleIJhhEEEELN9__gnu_cxx12_Lock_policyE2ELb0ELb0EEptEv
FNDA:0,_ZNKSt19__shared_ptr_accessIKN7testing16MatcherInterfaceIRKSt5tupleIJhhEEEELN9__gnu_cxx12_Lock_policyE2ELb0ELb0EEptEv
FN:1020,_ZNKSt19__shared_ptr_accessIKN7testing16MatcherInterfaceIRKSt5tupleIJhhEEEELN9__gnu_cxx12_Lock_policyE2ELb0ELb0EE6_M_getEv
FNDA:0,_ZNKSt19__shared_ptr_accessIKN7testing16MatcherInterfaceIRKSt5tupleIJhhEEEELN9__gnu_cxx12_Lock_policyE2ELb0ELb0EE6_M_getEv
FN:1118,_ZNSt12__shared_ptrIKN7testing16MatcherInterfaceIRKhEELN9__gnu_cxx12_Lock_policyE2EEC2Ev
FNDA:0,_ZNSt12__shared_ptrIKN7testing16MatcherInterfaceIRKhEELN9__gnu_cxx12_Lock_policyE2EEC2Ev
FN:1124,_ZNSt12__shared_ptrIKN7testing16MatcherInterfaceIRKSt5tupleIJhhEEEELN9__gnu_cxx12_Lock_policyE2EEC2IS7_vEEPT_
FNDA:0,_ZNSt12__shared_ptrIKN7testing16MatcherInterfaceIRKSt5tupleIJhhEEEELN9__gnu_cxx12_Lock_policyE2EEC2IS7_vEEPT_
FN:1124,_ZNSt12__shared_ptrIN7testing8internal15ExpectationBaseELN9__gnu_cxx12_Lock_policyE2EEC2INS1_16TypedExpectationIFvhhEEEvEEPT_
FNDA:0,_ZNSt12__shared_ptrIN7testing8internal15ExpectationBaseELN9__gnu_cxx12_Lock_policyE2EEC2INS1_16TypedExpectationIFvhhEEEvEEPT_
FN:1124,_ZNSt12__shared_ptrIN7testing11ExpectationELN9__gnu_cxx12_Lock_policyE2EEC2IS1_vEEPT_
FNDA:0,_ZNSt12__shared_ptrIN7testing11ExpectationELN9__gnu_cxx12_Lock_policyE2EEC2IS1_vEEPT_
FN:1124,_ZNSt12__shared_ptrIKN7testing16MatcherInterfaceIRKhEELN9__gnu_cxx12_Lock_policyE2EEC2IS5_vEEPT_
FNDA:0,_ZNSt12__shared_ptrIKN7testing16MatcherInterfaceIRKhEELN9__gnu_cxx12_Lock_policyE2EEC2IS5_vEEPT_
FN:1167,_ZNSt12__shared_ptrIN7testing8internal15ExpectationBaseELN9__gnu_cxx12_Lock_policyE2EEC2ERKS5_
FNDA:0,_ZNSt12__shared_ptrIN7testing8internal15ExpectationBaseELN9__gnu_cxx12_Lock_policyE2EEC2ERKS5_
FN:1167,_ZNSt12__shared_ptrIKN7testing16MatcherInterfaceIRKhEELN9__gnu_cxx12_Lock_policyE2EEC2ERKS8_
FNDA:0,_ZNSt12__shared_ptrIKN7testing16MatcherInterfaceIRKhEELN9__gnu_cxx12_Lock_policyE2EEC2ERKS8_
FN:1169,_ZNSt12__shared_ptrIN7testing8internal15ExpectationBaseELN9__gnu_cxx12_Lock_policyE2EED2Ev
FNDA:0,_ZNSt12__shared_ptrIN7testing8internal15ExpectationBaseELN9__gnu_cxx12_Lock_policyE2EED2Ev
FN:1169,_ZNSt12__shared_ptrIN7testing11ExpectationELN9__gnu_cxx12_Lock_policyE2EED2Ev
FNDA:0,_ZNSt12__shared_ptrIN7testing11ExpectationELN9__gnu_cxx12_Lock_policyE2EED2Ev
FN:1169,_ZNSt12__shared_ptrIKN7testing16MatcherInterfaceIRKhEELN9__gnu_cxx12_Lock_policyE2EED2Ev
FNDA:0,_ZNSt12__shared_ptrIKN7testing16MatcherInterfaceIRKhEELN9__gnu_cxx12_Lock_policyE2EED2Ev
FN:1169,_ZNSt12__shared_ptrIKN7testing16MatcherInterfaceIRKSt5tupleIJhhEEEELN9__gnu_cxx12_Lock_policyE2EED2Ev
FNDA:0,_ZNSt12__shared_ptrIKN7testing16MatcherInterfaceIRKSt5tupleIJhhEEEELN9__gnu_cxx12_Lock_policyE2EED2Ev
FN:1176,_ZNSt12__shared_ptrIKN7testing16MatcherInterfaceIRKhEELN9__gnu_cxx12_Lock_policyE2EEC2EOS8_
FNDA:0,_ZNSt12__shared_ptrIKN7testing16MatcherInterfaceIRKhEELN9__gnu_cxx12_Lock_policyE2EEC2EOS8_
FN:1176,_ZNSt12__shared_ptrIN7testing8internal15ExpectationBaseELN9__gnu_cxx12_Lock_policyE2EEC2EOS5_
FNDA:0,_ZNSt12__shared_ptrIN7testing8internal15ExpectationBaseELN9__gnu_cxx12_Lock_policyE2EEC2EOS5_
FN:1263,_ZNSt12__shared_ptrIKN7testing16MatcherInterfaceIRKhEELN9__gnu_cxx12_Lock_policyE2EEaSEOS8_
FNDA:0,_ZNSt12__shared_ptrIKN7testing16MatcherInterfaceIRKhEELN9__gnu_cxx12_Lock_policyE2EEaSEOS8_
FN:1309,_ZNKSt12__shared_ptrIKN7testing16MatcherInterfaceIRKSt5tupleIJhhEEEELN9__gnu_cxx12_Lock_policyE2EE3getEv
FNDA:0,_ZNKSt12__shared_ptrIKN7testing16MatcherInterfaceIRKSt5tupleIJhhEEEELN9__gnu_cxx12_Lock_policyE2EE3getEv
FN:1324,_ZNSt12__shared_ptrIKN7testing16MatcherInterfaceIRKhEELN9__gnu_cxx12_Lock_policyE2EE4swapERS8_
FNDA:0,_ZNSt12__shared_ptrIKN7testing16MatcherInterfaceIRKhEELN9__gnu_cxx12_Lock_policyE2EE4swapERS8_
FN:1388,_ZNSt12__shared_ptrIN7testing11ExpectationELN9__gnu_cxx12_Lock_policyE2EE31_M_enable_shared_from_this_withIS1_S1_EENSt9enable_ifIXntsrNS4_15__has_esft_baseIT0_vEE5valueEvE4typeEPT_
FNDA:0,_ZNSt12__shared_ptrIN7testing11ExpectationELN9__gnu_cxx12_Lock_policyE2EE31_M_enable_shared_from_this_withIS1_S1_EENSt9enable_ifIXntsrNS4_15__has_esft_baseIT0_vEE5valueEvE4typeEPT_
FN:1388,_ZNSt12__shared_ptrIN7testing8internal15ExpectationBaseELN9__gnu_cxx12_Lock_policyE2EE31_M_enable_shared_from_this_withINS1_16TypedExpectationIFvhhEEES9_EENSt9enable_ifIXntsrNS5_15__has_esft_baseIT0_vEE5valueEvE4typeEPT_
FNDA:0,_ZNSt12__shared_ptrIN7testing8internal15ExpectationBaseELN9__gnu_cxx12_Lock_policyE2EE31_M_enable_shared_from_this_withINS1_16TypedExpectationIFvhhEEES9_EENSt9enable_ifIXntsrNS5_15__has_esft_baseIT0_vEE5valueEvE4typeEPT_
FN:1388,_ZNSt12__shared_ptrIKN7testing16MatcherInterfaceIRKhEELN9__gnu_cxx12_Lock_policyE2EE31_M_enable_shared_from_this_withIS5_S4_EENSt9enable_ifIXntsrNS8_15__has_esft_baseIT0_vEE5valueEvE4typeEPT_
FNDA:0,_ZNSt12__shared_ptrIKN7testing16MatcherInterfaceIRKhEELN9__gnu_cxx12_Lock_policyE2EE31_M_enable_shared_from_this_withIS5_S4_EENSt9enable_ifIXntsrNS8_15__has_esft_baseIT0_vEE5valueEvE4typeEPT_
FN:1388,_ZNSt12__shared_ptrIKN7testing16MatcherInterfaceIRKSt5tupleIJhhEEEELN9__gnu_cxx12_Lock_policyE2EE31_M_enable_shared_from_this_withIS7_S6_EENSt9enable_ifIXntsrNSA_15__has_esft_baseIT0_vEE5valueEvE4typeEPT_
FNDA:0,_ZNSt12__shared_ptrIKN7testing16MatcherInterfaceIRKSt5tupleIJhhEEEELN9__gnu_cxx12_Lock_policyE2EE31_M_enable_shared_from_this_withIS7_S6_EENSt9enable_ifIXntsrNSA_15__has_esft_baseIT0_vEE5valueEvE4typeEPT_
DA:117,0
DA:118,0
DA:121,0
DA:122,0
DA:121,0
DA:122,0
DA:131,0
DA:132,0
DA:138,0
DA:139,0
DA:148,0
DA:152,0
DA:155,0
DA:167,0
DA:168,0
DA:171,0
DA:174,0
DA:372,0
DA:373,0
DA:372,0
DA:373,0
DA:372,0
DA:373,0
DA:372,0
DA:373,0
DA:376,0
DA:377,0
DA:376,0
DA:377,0
DA:376,0
DA:377,0
DA:376,0
DA:377,0
DA:380,0
DA:381,0
DA:380,0
DA:381,0
DA:380,0
DA:381,0
DA:380,0
DA:381,0
DA:384,0
DA:385,0
DA:384,0
DA:385,0
DA:384,0
DA:385,0
DA:384,0
DA:385,0
DA:616,0
DA:617,0
DA:621,0
DA:625,0
DA:627,0
DA:629,0
DA:630,0
DA:632,0
DA:621,0
DA:625,0
DA:627,0
DA:629,0
DA:630,0
DA:632,0
DA:621,0
DA:625,0
DA:627,0
DA:629,0
DA:630,0
DA:632,0
DA:621,0
DA:625,0
DA:627,0
DA:629,0
DA:630,0
DA:632,0
DA:635,0
DA:636,0
DA:637,0
DA:635,0
DA:636,0
DA:637,0
DA:635,0
DA:636,0
DA:637,0
DA:635,0
DA:636,0
DA:637,0
DA:727,0
DA:729,0
DA:730,0
DA:731,0
DA:733,0
DA:734,0
DA:736,0
DA:737,0
DA:738,0
DA:756,0
DA:758,0
DA:759,0
DA:760,0
DA:761,0
DA:1012,0
DA:1015,0
DA:1020,0
DA:1021,0
DA:1118,0
DA:1119,0
DA:1120,0
DA:1124,0
DA:1125,0
DA:1129,0
DA:1130,0
DA:1124,0
DA:1125,0
DA:1129,0
DA:1130,0
DA:1124,0
DA:1125,0
DA:1129,0
DA:1130,0
DA:1124,0
DA:1125,0
DA:1129,0
DA:1130,0
DA:1167,0
DA:1167,0
DA:1169,0
DA:1169,0
DA:1169,0
DA:1169,0
DA:1176,0
DA:1177,0
DA:1179,0
DA:1180,0
DA:1181,0
DA:1176,0
DA:1177,0
DA:1179,0
DA:1180,0
DA:1181,0
DA:1263,0
DA:1265,0
DA:1266,0
DA:1309,0
DA:1310,0
DA:1324,0
DA:1326,0
DA:1327,0
DA:1328,0
DA:1388,0
DA:1389,0
DA:1388,0
DA:1389,0
DA:1388,0
DA:1389,0
DA:1388,0
DA:1389,0
end_of_record
SF:/usr/include/c++/9/bits/std_function.h
FN:255,_ZNSt14_Function_baseC2Ev
FNDA:0,_ZNSt14_Function_baseC2Ev
FN:257,_ZNSt14_Function_baseD2Ev
FNDA:0,_ZNSt14_Function_baseD2Ev
FN:398,_ZNSt8functionIFvhhEEC2Ev
FNDA:0,_ZNSt8functionIFvhhEEC2Ev
DA:255,0
DA:257,0
DA:258,0
DA:259,0
DA:260,0
DA:261,0
DA:398,0
DA:399,0
end_of_record
SF:/usr/include/c++/9/bits/stl_iterator.h
FN:806,_ZN9__gnu_cxx17__normal_iteratorIPPKvSt6vectorIS2_SaIS2_EEEC2ERKS3_
FNDA:0,_ZN9__gnu_cxx17__normal_iteratorIPPKvSt6vectorIS2_SaIS2_EEEC2ERKS3_
FN:806,_ZN9__gnu_cxx17__normal_iteratorIPSt10shared_ptrIN7testing8internal15ExpectationBaseEESt6vectorIS5_SaIS5_EEEC2ERKS6_
FNDA:0,_ZN9__gnu_cxx17__normal_iteratorIPSt10shared_ptrIN7testing8internal15ExpectationBaseEESt6vectorIS5_SaIS5_EEEC2ERKS6_
FN:811,_ZN9__gnu_cxx17__normal_iteratorIPKPKvSt6vectorIS2_SaIS2_EEEC2IPS2_EERKNS0_IT_NS_11__enable_ifIXsrSt10__are_sameISB_SA_E7__valueES7_E6__typeEEE
FNDA:0,_ZN9__gnu_cxx17__normal_iteratorIPKPKvSt6vectorIS2_SaIS2_EEEC2IPS2_EERKNS0_IT_NS_11__enable_ifIXsrSt10__are_sameISB_SA_E7__valueES7_E6__typeEEE
FN:819,_ZNK9__gnu_cxx17__normal_iteratorIPKPKvSt6vectorIS2_SaIS2_EEEdeEv
FNDA:0,_ZNK9__gnu_cxx17__normal_iteratorIPKPKvSt6vectorIS2_SaIS2_EEEdeEv
FN:827,_ZN9__gnu_cxx17__normal_iteratorIPKPKvSt6vectorIS2_SaIS2_EEEppEv
FNDA:0,_ZN9__gnu_cxx17__normal_iteratorIPKPKvSt6vectorIS2_SaIS2_EEEppEv
FN:871,_ZNK9__gnu_cxx17__normal_iteratorIPPKvSt6vectorIS2_SaIS2_EEE4baseEv
FNDA:0,_ZNK9__gnu_cxx17__normal_iteratorIPPKvSt6vectorIS2_SaIS2_EEE4baseEv
FN:871,_ZNK9__gnu_cxx17__normal_iteratorIPSt10shared_ptrIN7testing8internal15ExpectationBaseEESt6vectorIS5_SaIS5_EEE4baseEv
FNDA:0,_ZNK9__gnu_cxx17__normal_iteratorIPSt10shared_ptrIN7testing8internal15ExpectationBaseEESt6vectorIS5_SaIS5_EEE4baseEv
FN:871,_ZNK9__gnu_cxx17__normal_iteratorIPKPKvSt6vectorIS2_SaIS2_EEE4baseEv
FNDA:0,_ZNK9__gnu_cxx17__normal_iteratorIPKPKvSt6vectorIS2_SaIS2_EEE4baseEv
FN:900,_ZN9__gnu_cxxneIPKPKvPS2_St6vectorIS2_SaIS2_EEEEbRKNS_17__normal_iteratorIT_T1_EERKNS9_IT0_SB_EE
FNDA:0,_ZN9__gnu_cxxneIPKPKvPS2_St6vectorIS2_SaIS2_EEEEbRKNS_17__normal_iteratorIT_T1_EERKNS9_IT0_SB_EE
FN:989,_ZN9__gnu_cxxmiIPSt10shared_ptrIN7testing8internal15ExpectationBaseEESt6vectorIS5_SaIS5_EEEENS_17__normal_iteratorIT_T0_E15difference_typeERKSD_SG_
FNDA:0,_ZN9__gnu_cxxmiIPSt10shared_ptrIN7testing8internal15ExpectationBaseEESt6vectorIS5_SaIS5_EEEENS_17__normal_iteratorIT_T0_E15difference_typeERKSD_SG_
FN:1057,_ZNSt13move_iteratorIPSt10shared_ptrIN7testing8internal15ExpectationBaseEEEC2ES5_
FNDA:0,_ZNSt13move_iteratorIPSt10shared_ptrIN7testing8internal15ExpectationBaseEEEC2ES5_
FN:1066,_ZNKSt13move_iteratorIPSt10shared_ptrIN7testing8internal15ExpectationBaseEEE4baseEv
FNDA:0,_ZNKSt13move_iteratorIPSt10shared_ptrIN7testing8internal15ExpectationBaseEEE4baseEv
FN:1070,_ZNKSt13move_iteratorIPSt10shared_ptrIN7testing8internal15ExpectationBaseEEEdeEv
FNDA:0,_ZNKSt13move_iteratorIPSt10shared_ptrIN7testing8internal15ExpectationBaseEEEdeEv
FN:1078,_ZNSt13move_iteratorIPSt10shared_ptrIN7testing8internal15ExpectationBaseEEEppEv
FNDA:0,_ZNSt13move_iteratorIPSt10shared_ptrIN7testing8internal15ExpectationBaseEEEppEv
FN:1145,_ZSteqIPSt10shared_ptrIN7testing8internal15ExpectationBaseEEEbRKSt13move_iteratorIT_ESA_
FNDA:0,_ZSteqIPSt10shared_ptrIN7testing8internal15ExpectationBaseEEEbRKSt13move_iteratorIT_ESA_
FN:1157,_ZStneIPSt10shared_ptrIN7testing8internal15ExpectationBaseEEEbRKSt13move_iteratorIT_ESA_
FNDA:0,_ZStneIPSt10shared_ptrIN7testing8internal15ExpectationBaseEEEbRKSt13move_iteratorIT_ESA_
FN:1242,_ZSt32__make_move_if_noexcept_iteratorISt10shared_ptrIN7testing8internal15ExpectationBaseEESt13move_iteratorIPS4_EET0_PT_
FNDA:0,_ZSt32__make_move_if_noexcept_iteratorISt10shared_ptrIN7testing8internal15ExpectationBaseEESt13move_iteratorIPS4_EET0_PT_
DA:806,0
DA:807,0
DA:806,0
DA:807,0
DA:811,0
DA:815,0
DA:819,0
DA:820,0
DA:827,0
DA:829,0
DA:830,0
DA:871,0
DA:872,0
DA:871,0
DA:872,0
DA:871,0
DA:872,0
DA:900,0
DA:903,0
DA:989,0
DA:992,0
DA:1057,0
DA:1058,0
DA:1066,0
DA:1067,0
DA:1070,0
DA:1071,0
DA:1078,0
DA:1080,0
DA:1081,0
DA:1145,0
DA:1147,0
DA:1157,0
DA:1159,0
DA:1242,0
DA:1243,0
end_of_record
SF:/usr/include/c++/9/bits/stl_iterator_base_funcs.h
FN:98,_ZSt10__distanceIPcENSt15iterator_traitsIT_E15difference_typeES2_S2_St26random_access_iterator_tag
FNDA:0,_ZSt10__distanceIPcENSt15iterator_traitsIT_E15difference_typeES2_S2_St26random_access_iterator_tag
FN:98,_ZSt10__distanceIPKcENSt15iterator_traitsIT_E15difference_typeES3_S3_St26random_access_iterator_tag
FNDA:0,_ZSt10__distanceIPKcENSt15iterator_traitsIT_E15difference_typeES3_S3_St26random_access_iterator_tag
FN:138,_ZSt8distanceIPcENSt15iterator_traitsIT_E15difference_typeES2_S2_
FNDA:0,_ZSt8distanceIPcENSt15iterator_traitsIT_E15difference_typeES2_S2_
FN:138,_ZSt8distanceIPKcENSt15iterator_traitsIT_E15difference_typeES3_S3_
FNDA:0,_ZSt8distanceIPKcENSt15iterator_traitsIT_E15difference_typeES3_S3_
DA:98,0
DA:104,0
DA:98,0
DA:104,0
DA:138,0
DA:141,0
DA:142,0
DA:138,0
DA:141,0
DA:142,0
end_of_record
SF:/home/pieter/GitHub/Control-Surface/build/googletest/googletest-src/googlemock/include/gmock/gmock-spec-builders.h
FN:630,_ZN7testing8SequenceC2Ev
FNDA:0,_ZN7testing8SequenceC2Ev
FN:752,_ZNK7testing8internal15ExpectationBase18ExpectSpecPropertyEbRKNSt7__cxx1112basic_stringIcSt11char_traitsIcESaIcEEE
FNDA:0,_ZNK7testing8internal15ExpectationBase18ExpectSpecPropertyEbRKNSt7__cxx1112basic_stringIcSt11char_traitsIcESaIcEEE
FN:890,_ZN7testing8internal16TypedExpectationIFvhhEEC2EPNS0_14FunctionMockerIS2_EEPKciRKNSt7__cxx1112basic_stringIcSt11char_traitsIcESaIcEEERKSt5tupleIJNS_7MatcherIhEESJ_EE
FNDA:0,_ZN7testing8internal16TypedExpectationIFvhhEEC2EPNS0_14FunctionMockerIS2_EEPKciRKNSt7__cxx1112basic_stringIcSt11char_traitsIcESaIcEEERKSt5tupleIJNS_7MatcherIhEESJ_EE
FN:902,_ZN7testing8internal16TypedExpectationIFvhhEED0Ev
FNDA:0,_ZN7testing8internal16TypedExpectationIFvhhEED0Ev
FN:902,_ZN7testing8internal16TypedExpectationIFvhhEED2Ev
FNDA:0,_ZN7testing8internal16TypedExpectationIFvhhEED2Ev
FN:942,_ZN7testing8internal16TypedExpectationIFvhhEE10InSequenceERKNS_8SequenceE
FNDA:0,_ZN7testing8internal16TypedExpectationIFvhhEE10InSequenceERKNS_8SequenceE
FN:1068,_ZN7testing8internal16TypedExpectationIFvhhEE27MaybeDescribeExtraMatcherToEPSo
FNDA:0,_ZN7testing8internal16TypedExpectationIFvhhEE27MaybeDescribeExtraMatcherToEPSo
FN:1082,_ZN7testing8internal16TypedExpectationIFvhhEE9GetHandleEv
FNDA:0,_ZN7testing8internal16TypedExpectationIFvhhEE9GetHandleEv
FN:1254,_ZN7testing8internal8MockSpecIFvhhEEC2EPNS0_14FunctionMockerIS2_EERKSt5tupleIJNS_7MatcherIhEES9_EE
FNDA:0,_ZN7testing8internal8MockSpecIFvhhEEC2EPNS0_14FunctionMockerIS2_EERKSt5tupleIJNS_7MatcherIhEES9_EE
FN:1269,_ZN7testing8internal8MockSpecIFvhhEE18InternalExpectedAtEPKciS5_S5_
FNDA:0,_ZN7testing8internal8MockSpecIFvhhEE18InternalExpectedAtEPKciS5_S5_
FN:1281,_ZN7testing8internal8MockSpecIFvhhEEclERKNS0_15WithoutMatchersEPv
FNDA:0,_ZN7testing8internal8MockSpecIFvhhEEclERKNS0_15WithoutMatchersEPv
FN:1599,_ZN7testing8internal14FunctionMockerIFvhhEE4WithENS_7MatcherIhEES5_
FNDA:0,_ZN7testing8internal14FunctionMockerIFvhhEE4WithENS_7MatcherIhEES5_
FN:1621,_ZN7testing8internal14FunctionMockerIFvhhEE17AddNewExpectationEPKciRKNSt7__cxx1112basic_stringIcSt11char_traitsIcESaIcEEERKSt5tupleIJNS_7MatcherIhEESG_EE
FNDA:0,_ZN7testing8internal14FunctionMockerIFvhhEE17AddNewExpectationEPKciRKNSt7__cxx1112basic_stringIcSt11char_traitsIcESaIcEEERKSt5tupleIJNS_7MatcherIhEESG_EE
DA:630,0
DA:752,0
DA:754,0
DA:755,0
DA:890,0
DA:900,0
DA:902,0
DA:910,0
DA:902,0
DA:905,0
DA:906,0
DA:907,0
DA:908,0
DA:910,0
DA:942,0
DA:943,0
DA:947,0
DA:949,0
DA:950,0
DA:1068,0
DA:1069,0
DA:1070,0
DA:1071,0
DA:1072,0
DA:1074,0
DA:1082,0
DA:1254,0
DA:1256,0
DA:1269,0
DA:1271,0
DA:1273,0
DA:1274,0
DA:1275,0
DA:1281,0
DA:1282,0
DA:1599,0
DA:1600,0
DA:1621,0
DA:1625,0
DA:1626,0
DA:1627,0
DA:1628,0
DA:1631,0
DA:1634,0
DA:1635,0
DA:1636,0
DA:1639,0
end_of_record
SF:/usr/include/c++/9/ext/type_traits.h
FN:152,_ZN9__gnu_cxx17__is_null_pointerIcEEbPT_
FNDA:0,_ZN9__gnu_cxx17__is_null_pointerIcEEbPT_
FN:152,_ZN9__gnu_cxx17__is_null_pointerIKcEEbPT_
FNDA:0,_ZN9__gnu_cxx17__is_null_pointerIKcEEbPT_
DA:152,0
DA:153,0
DA:152,0
DA:153,0
end_of_record
TN:
SF:/home/pieter/GitHub/Control-Surface/src/MIDI_Inputs/MIDIInputElementCC.hpp
FN:33,_ZN18MIDIInputElementCCC2ERK20MIDICNChannelAddress
FNDA:13,_ZN18MIDIInputElementCCC2ERK20MIDICNChannelAddress
FN:40,_ZN18MIDIInputElementCCD0Ev
FNDA:0,_ZN18MIDIInputElementCCD0Ev
FN:40,_ZN18MIDIInputElementCCD2Ev
FNDA:13,_ZN18MIDIInputElementCCD2Ev
FN:81,_ZN18MIDIInputElementCC8moveDownEv
FNDA:67,_ZN18MIDIInputElementCC8moveDownEv
DA:33,13
DA:34,13
DA:36,13
DA:37,13
DA:40,0
DA:43,0
DA:40,13
DA:42,13
DA:43,13
DA:81,67
DA:83,67
DA:84,67
end_of_record
SF:/usr/include/c++/9/bits/move.h
FN:99,_ZSt4moveIRPNSt7__cxx1112basic_stringIcSt11char_traitsIcESaIcEEEEONSt16remove_referenceIT_E4typeEOS9_
FNDA:0,_ZSt4moveIRPNSt7__cxx1112basic_stringIcSt11char_traitsIcESaIcEEEEONSt16remove_referenceIT_E4typeEOS9_
FN:99,_ZSt4moveIRPNSt7__cxx1118basic_stringstreamIcSt11char_traitsIcESaIcEEEEONSt16remove_referenceIT_E4typeEOS9_
FNDA:0,_ZSt4moveIRPNSt7__cxx1118basic_stringstreamIcSt11char_traitsIcESaIcEEEEONSt16remove_referenceIT_E4typeEOS9_
FN:99,_ZSt4moveIRSaIcEEONSt16remove_referenceIT_E4typeEOS3_
FNDA:0,_ZSt4moveIRSaIcEEONSt16remove_referenceIT_E4typeEOS3_
DA:99,0
DA:100,0
DA:99,0
DA:100,0
DA:99,0
DA:100,0
end_of_record
SF:/usr/include/c++/9/tuple
FN:113,_ZNSt10_Head_baseILm1ESt14default_deleteINSt7__cxx1118basic_stringstreamIcSt11char_traitsIcESaIcEEEELb1EE7_M_headERS8_
FNDA:0,_ZNSt10_Head_baseILm1ESt14default_deleteINSt7__cxx1118basic_stringstreamIcSt11char_traitsIcESaIcEEEELb1EE7_M_headERS8_
FN:113,_ZNSt10_Head_baseILm1ESt14default_deleteINSt7__cxx1112basic_stringIcSt11char_traitsIcESaIcEEEELb1EE7_M_headERS8_
FNDA:0,_ZNSt10_Head_baseILm1ESt14default_deleteINSt7__cxx1112basic_stringIcSt11char_traitsIcESaIcEEEELb1EE7_M_headERS8_
FN:160,_ZNSt10_Head_baseILm0EPNSt7__cxx1112basic_stringIcSt11char_traitsIcESaIcEEELb0EE7_M_headERS7_
FNDA:0,_ZNSt10_Head_baseILm0EPNSt7__cxx1112basic_stringIcSt11char_traitsIcESaIcEEELb0EE7_M_headERS7_
FN:160,_ZNSt10_Head_baseILm0EPNSt7__cxx1118basic_stringstreamIcSt11char_traitsIcESaIcEEELb0EE7_M_headERS7_
FNDA:0,_ZNSt10_Head_baseILm0EPNSt7__cxx1118basic_stringstreamIcSt11char_traitsIcESaIcEEELb0EE7_M_headERS7_
FN:163,_ZNSt10_Head_baseILm0EPNSt7__cxx1112basic_stringIcSt11char_traitsIcESaIcEEELb0EE7_M_headERKS7_
FNDA:0,_ZNSt10_Head_baseILm0EPNSt7__cxx1112basic_stringIcSt11char_traitsIcESaIcEEELb0EE7_M_headERKS7_
FN:195,_ZNSt11_Tuple_implILm0EJPNSt7__cxx1112basic_stringIcSt11char_traitsIcESaIcEEESt14default_deleteIS5_EEE7_M_headERS9_
FNDA:0,_ZNSt11_Tuple_implILm0EJPNSt7__cxx1112basic_stringIcSt11char_traitsIcESaIcEEESt14default_deleteIS5_EEE7_M_headERS9_
FN:195,_ZNSt11_Tuple_implILm0EJPNSt7__cxx1118basic_stringstreamIcSt11char_traitsIcESaIcEEESt14default_deleteIS5_EEE7_M_headERS9_
FNDA:0,_ZNSt11_Tuple_implILm0EJPNSt7__cxx1118basic_stringstreamIcSt11char_traitsIcESaIcEEESt14default_deleteIS5_EEE7_M_headERS9_
FN:198,_ZNSt11_Tuple_implILm0EJPNSt7__cxx1112basic_stringIcSt11char_traitsIcESaIcEEESt14default_deleteIS5_EEE7_M_headERKS9_
FNDA:0,_ZNSt11_Tuple_implILm0EJPNSt7__cxx1112basic_stringIcSt11char_traitsIcESaIcEEESt14default_deleteIS5_EEE7_M_headERKS9_
FN:334,_ZNSt11_Tuple_implILm1EJSt14default_deleteINSt7__cxx1112basic_stringIcSt11char_traitsIcESaIcEEEEEE7_M_headERS8_
FNDA:0,_ZNSt11_Tuple_implILm1EJSt14default_deleteINSt7__cxx1112basic_stringIcSt11char_traitsIcESaIcEEEEEE7_M_headERS8_
FN:334,_ZNSt11_Tuple_implILm1EJSt14default_deleteINSt7__cxx1118basic_stringstreamIcSt11char_traitsIcESaIcEEEEEE7_M_headERS8_
FNDA:0,_ZNSt11_Tuple_implILm1EJSt14default_deleteINSt7__cxx1118basic_stringstreamIcSt11char_traitsIcESaIcEEEEEE7_M_headERS8_
FN:1309,_ZSt12__get_helperILm1ESt14default_deleteINSt7__cxx1118basic_stringstreamIcSt11char_traitsIcESaIcEEEEJEERT0_RSt11_Tuple_implIXT_EJS8_DpT1_EE
FNDA:0,_ZSt12__get_helperILm1ESt14default_deleteINSt7__cxx1118basic_stringstreamIcSt11char_traitsIcESaIcEEEEJEERT0_RSt11_Tuple_implIXT_EJS8_DpT1_EE
FN:1309,_ZSt12__get_helperILm0EPNSt7__cxx1118basic_stringstreamIcSt11char_traitsIcESaIcEEEJSt14default_deleteIS5_EEERT0_RSt11_Tuple_implIXT_EJS9_DpT1_EE
FNDA:0,_ZSt12__get_helperILm0EPNSt7__cxx1118basic_stringstreamIcSt11char_traitsIcESaIcEEEJSt14default_deleteIS5_EEERT0_RSt11_Tuple_implIXT_EJS9_DpT1_EE
FN:1309,_ZSt12__get_helperILm0EPNSt7__cxx1112basic_stringIcSt11char_traitsIcESaIcEEEJSt14default_deleteIS5_EEERT0_RSt11_Tuple_implIXT_EJS9_DpT1_EE
FNDA:0,_ZSt12__get_helperILm0EPNSt7__cxx1112basic_stringIcSt11char_traitsIcESaIcEEEJSt14default_deleteIS5_EEERT0_RSt11_Tuple_implIXT_EJS9_DpT1_EE
FN:1309,_ZSt12__get_helperILm1ESt14default_deleteINSt7__cxx1112basic_stringIcSt11char_traitsIcESaIcEEEEJEERT0_RSt11_Tuple_implIXT_EJS8_DpT1_EE
FNDA:0,_ZSt12__get_helperILm1ESt14default_deleteINSt7__cxx1112basic_stringIcSt11char_traitsIcESaIcEEEEJEERT0_RSt11_Tuple_implIXT_EJS8_DpT1_EE
FN:1314,_ZSt12__get_helperILm0EPNSt7__cxx1112basic_stringIcSt11char_traitsIcESaIcEEEJSt14default_deleteIS5_EEERKT0_RKSt11_Tuple_implIXT_EJS9_DpT1_EE
FNDA:0,_ZSt12__get_helperILm0EPNSt7__cxx1112basic_stringIcSt11char_traitsIcESaIcEEEJSt14default_deleteIS5_EEERKT0_RKSt11_Tuple_implIXT_EJS9_DpT1_EE
FN:1320,_ZSt3getILm1EJPNSt7__cxx1112basic_stringIcSt11char_traitsIcESaIcEEESt14default_deleteIS5_EEERNSt13tuple_elementIXT_ESt5tupleIJDpT0_EEE4typeERSD_
FNDA:0,_ZSt3getILm1EJPNSt7__cxx1112basic_stringIcSt11char_traitsIcESaIcEEESt14default_deleteIS5_EEERNSt13tuple_elementIXT_ESt5tupleIJDpT0_EEE4typeERSD_
FN:1320,_ZSt3getILm1EJPNSt7__cxx1118basic_stringstreamIcSt11char_traitsIcESaIcEEESt14default_deleteIS5_EEERNSt13tuple_elementIXT_ESt5tupleIJDpT0_EEE4typeERSD_
FNDA:0,_ZSt3getILm1EJPNSt7__cxx1118basic_stringstreamIcSt11char_traitsIcESaIcEEESt14default_deleteIS5_EEERNSt13tuple_elementIXT_ESt5tupleIJDpT0_EEE4typeERSD_
FN:1320,_ZSt3getILm0EJPNSt7__cxx1112basic_stringIcSt11char_traitsIcESaIcEEESt14default_deleteIS5_EEERNSt13tuple_elementIXT_ESt5tupleIJDpT0_EEE4typeERSD_
FNDA:0,_ZSt3getILm0EJPNSt7__cxx1112basic_stringIcSt11char_traitsIcESaIcEEESt14default_deleteIS5_EEERNSt13tuple_elementIXT_ESt5tupleIJDpT0_EEE4typeERSD_
FN:1320,_ZSt3getILm0EJPNSt7__cxx1118basic_stringstreamIcSt11char_traitsIcESaIcEEESt14default_deleteIS5_EEERNSt13tuple_elementIXT_ESt5tupleIJDpT0_EEE4typeERSD_
FNDA:0,_ZSt3getILm0EJPNSt7__cxx1118basic_stringstreamIcSt11char_traitsIcESaIcEEESt14default_deleteIS5_EEERNSt13tuple_elementIXT_ESt5tupleIJDpT0_EEE4typeERSD_
FN:1326,_ZSt3getILm0EJPNSt7__cxx1112basic_stringIcSt11char_traitsIcESaIcEEESt14default_deleteIS5_EEERKNSt13tuple_elementIXT_ESt5tupleIJDpT0_EEE4typeERKSD_
FNDA:0,_ZSt3getILm0EJPNSt7__cxx1112basic_stringIcSt11char_traitsIcESaIcEEESt14default_deleteIS5_EEERKNSt13tuple_elementIXT_ESt5tupleIJDpT0_EEE4typeERKSD_
DA:113,0
DA:113,0
DA:160,0
DA:160,0
DA:163,0
DA:195,0
DA:195,0
DA:198,0
DA:334,0
DA:334,0
DA:1309,0
DA:1310,0
DA:1309,0
DA:1310,0
DA:1309,0
DA:1310,0
DA:1309,0
DA:1310,0
DA:1314,0
DA:1315,0
DA:1320,0
DA:1321,0
DA:1320,0
DA:1321,0
DA:1320,0
DA:1321,0
DA:1320,0
DA:1321,0
DA:1326,0
DA:1327,0
end_of_record
SF:/usr/include/c++/9/bits/basic_string.tcc
FN:206,_ZNSt7__cxx1112basic_stringIcSt11char_traitsIcESaIcEE12_M_constructIPcEEvT_S7_St20forward_iterator_tag
FNDA:0,_ZNSt7__cxx1112basic_stringIcSt11char_traitsIcESaIcEE12_M_constructIPcEEvT_S7_St20forward_iterator_tag
FN:206,_ZNSt7__cxx1112basic_stringIcSt11char_traitsIcESaIcEE12_M_constructIPKcEEvT_S8_St20forward_iterator_tag
FNDA:0,_ZNSt7__cxx1112basic_stringIcSt11char_traitsIcESaIcEE12_M_constructIPKcEEvT_S8_St20forward_iterator_tag
DA:206,0
DA:211,0
DA:212,0
DA:215,0
DA:217,0
DA:219,0
DA:220,0
DA:225,0
DA:226,0
DA:228,0
DA:229,0
DA:232,0
DA:233,0
DA:206,0
DA:211,0
DA:212,0
DA:215,0
DA:217,0
DA:219,0
DA:220,0
DA:225,0
DA:226,0
DA:228,0
DA:229,0
DA:232,0
DA:233,0
end_of_record
SF:/home/pieter/GitHub/Control-Surface/ArduinoMock/Printable.h
end_of_record
SF:/home/pieter/GitHub/Control-Surface/build/googletest/googletest-src/googletest/include/gtest/gtest-message.h
end_of_record
SF:/usr/include/c++/9/ext/alloc_traits.h
FN:97,_ZN9__gnu_cxx14__alloc_traitsISaIcEcE17_S_select_on_copyERKS1_
FNDA:0,_ZN9__gnu_cxx14__alloc_traitsISaIcEcE17_S_select_on_copyERKS1_
DA:97,0
DA:98,0
end_of_record
SF:/home/pieter/GitHub/Control-Surface/src/MIDI_Inputs/MCU/TimeDisplay.hpp
FN:12,_ZN3MCU11TimeDisplayC2E7Channel
FNDA:13,_ZN3MCU11TimeDisplayC2E7Channel
FN:24,_ZNK3MCU11TimeDisplay7getBarsEPc
FNDA:6,_ZNK3MCU11TimeDisplay7getBarsEPc
FN:33,_ZNK3MCU11TimeDisplay8getBeatsEPc
FNDA:6,_ZNK3MCU11TimeDisplay8getBeatsEPc
FN:42,_ZNK3MCU11TimeDisplay9getFramesEPc
FNDA:6,_ZNK3MCU11TimeDisplay9getFramesEPc
DA:12,13
DA:13,13
DA:14,13
DA:24,6
DA:25,6
DA:26,4
DA:27,2
DA:28,1
DA:30,1
DA:32,6
DA:33,6
DA:34,6
DA:35,4
DA:36,2
DA:37,1
DA:39,1
DA:41,6
DA:42,6
DA:43,6
DA:44,4
DA:45,2
DA:46,1
DA:48,1
DA:50,6
end_of_record
SF:/usr/include/c++/9/ext/new_allocator.h
FN:80,_ZN9__gnu_cxx13new_allocatorIcEC2Ev
FNDA:0,_ZN9__gnu_cxx13new_allocatorIcEC2Ev
FN:83,_ZN9__gnu_cxx13new_allocatorIcEC2ERKS1_
FNDA:0,_ZN9__gnu_cxx13new_allocatorIcEC2ERKS1_
FN:89,_ZN9__gnu_cxx13new_allocatorIcED2Ev
FNDA:0,_ZN9__gnu_cxx13new_allocatorIcED2Ev
DA:80,0
DA:83,0
DA:89,0
end_of_record
SF:/usr/include/c++/9/iostream
end_of_record
SF:/usr/include/c++/9/bits/alloc_traits.h
FN:514,_ZNSt16allocator_traitsISaIcEE37select_on_container_copy_constructionERKS0_
FNDA:0,_ZNSt16allocator_traitsISaIcEE37select_on_container_copy_constructionERKS0_
DA:514,0
DA:515,0
end_of_record
SF:/home/pieter/GitHub/Control-Surface/src/Helpers/LinkedList.hpp
FN:109,_ZN16DoublyLinkedListI18MIDIInputElementCCE6appendEPS0_
FNDA:13,_ZN16DoublyLinkedListI18MIDIInputElementCCE6appendEPS0_
FN:192,_ZN16DoublyLinkedListI18MIDIInputElementCCE6removeEPS0_
FNDA:13,_ZN16DoublyLinkedListI18MIDIInputElementCCE6removeEPS0_
FN:224,_ZN16DoublyLinkedListI18MIDIInputElementCCE8moveDownEPS0_
FNDA:67,_ZN16DoublyLinkedListI18MIDIInputElementCCE8moveDownEPS0_
FN:299,_ZN14DoublyLinkableI18MIDIInputElementCCED0Ev
FNDA:0,_ZN14DoublyLinkableI18MIDIInputElementCCED0Ev
FN:299,_ZN14DoublyLinkableI18MIDIInputElementCCED2Ev
FNDA:13,_ZN14DoublyLinkableI18MIDIInputElementCCED2Ev
DA:109,13
DA:110,13
DA:111,13
DA:112,13
DA:113,13
DA:114,0
DA:115,13
DA:116,13
DA:117,13
DA:192,13
DA:193,13
DA:194,0
DA:195,13
DA:196,13
DA:197,13
DA:198,0
DA:199,13
DA:200,13
DA:201,13
DA:202,13
DA:203,13
DA:224,67
DA:225,67
DA:226,67
DA:227,67
DA:228,0
DA:229,0
DA:231,0
DA:232,0
DA:234,0
DA:235,0
DA:236,0
DA:237,0
DA:238,0
DA:239,0
DA:240,0
DA:242,0
DA:299,0
DA:299,13
end_of_record
SF:/usr/include/c++/9/bits/basic_string.h
FN:243,_ZNSt7__cxx1112basic_stringIcSt11char_traitsIcESaIcEE16_M_construct_auxIPcEEvT_S7_St12__false_type
FNDA:0,_ZNSt7__cxx1112basic_stringIcSt11char_traitsIcESaIcEE16_M_construct_auxIPcEEvT_S7_St12__false_type
FN:243,_ZNSt7__cxx1112basic_stringIcSt11char_traitsIcESaIcEE16_M_construct_auxIPKcEEvT_S8_St12__false_type
FNDA:0,_ZNSt7__cxx1112basic_stringIcSt11char_traitsIcESaIcEE16_M_construct_auxIPKcEEvT_S8_St12__false_type
FN:263,_ZNSt7__cxx1112basic_stringIcSt11char_traitsIcESaIcEE12_M_constructIPcEEvT_S7_
FNDA:0,_ZNSt7__cxx1112basic_stringIcSt11char_traitsIcESaIcEE12_M_constructIPcEEvT_S7_
FN:263,_ZNSt7__cxx1112basic_stringIcSt11char_traitsIcESaIcEE12_M_constructIPKcEEvT_S8_
FNDA:0,_ZNSt7__cxx1112basic_stringIcSt11char_traitsIcESaIcEE12_M_constructIPKcEEvT_S8_
DA:243,0
DA:247,0
DA:248,0
DA:243,0
DA:247,0
DA:248,0
DA:263,0
DA:266,0
DA:267,0
DA:263,0
DA:266,0
DA:267,0
end_of_record
SF:/home/pieter/GitHub/Control-Surface/src/MIDI_Inputs/MIDIInputElement.hpp
FN:22,_ZN16MIDIInputElementC2ERK20MIDICNChannelAddress
FNDA:27,_ZN16MIDIInputElementC2ERK20MIDICNChannelAddress
FN:25,_ZN16MIDIInputElementD0Ev
FNDA:0,_ZN16MIDIInputElementD0Ev
FN:25,_ZN16MIDIInputElementD2Ev
FNDA:27,_ZN16MIDIInputElementD2Ev
FN:28,_ZN16MIDIInputElement5beginEv
FNDA:0,_ZN16MIDIInputElement5beginEv
FN:31,_ZNK16MIDIInputElement7displayEv
FNDA:87,_ZNK16MIDIInputElement7displayEv
FN:37,_ZN16MIDIInputElement6updateEv
FNDA:0,_ZN16MIDIInputElement6updateEv
FN:40,_ZN16MIDIInputElement10updateWithERK20MIDI_message_matcher
FNDA:90,_ZN16MIDIInputElement10updateWithERK20MIDI_message_matcher
FN:66,_ZNK16MIDIInputElement9getTargetERK20MIDI_message_matcher
FNDA:75,_ZNK16MIDIInputElement9getTargetERK20MIDI_message_matcher
FN:76,_ZNK16MIDIInputElement5matchERK20MIDICNChannelAddress
FNDA:16,_ZNK16MIDIInputElement5matchERK20MIDICNChannelAddress
DA:22,27
DA:25,0
DA:25,27
DA:28,0
DA:31,87
DA:37,0
DA:40,90
DA:42,90
DA:43,90
DA:44,0
DA:46,90
DA:47,0
DA:49,90
DA:50,90
DA:51,90
DA:66,75
DA:67,75
DA:76,16
DA:77,16
end_of_record
SF:/home/pieter/GitHub/Control-Surface/src/MIDI_Inputs/MCU/SevenSegmentDisplay.hpp
FN:16,_ZN3MCU19SevenSegmentDisplayILh10EEC2ERK20MIDICNChannelAddress
FNDA:13,_ZN3MCU19SevenSegmentDisplayILh10EEC2ERK20MIDICNChannelAddress
FN:21,_ZN3MCU19SevenSegmentDisplayILh10EE5resetEv
FNDA:13,_ZN3MCU19SevenSegmentDisplayILh10EE5resetEv
FN:30,_ZN3MCU19SevenSegmentDisplayILh10EE10updateImplERK20MIDI_message_matcherRK20MIDICNChannelAddress
FNDA:67,_ZN3MCU19SevenSegmentDisplayILh10EE10updateImplERK20MIDI_message_matcherRK20MIDICNChannelAddress
FN:47,_ZNK3MCU19SevenSegmentDisplayILh10EE5matchERK20MIDICNChannelAddress
FNDA:67,_ZNK3MCU19SevenSegmentDisplayILh10EE5matchERK20MIDICNChannelAddress
FN:61,_ZNK3MCU19SevenSegmentDisplayILh10EE7getTextEPchh
FNDA:30,_ZNK3MCU19SevenSegmentDisplayILh10EE7getTextEPchh
FN:76,_ZNK3MCU19SevenSegmentDisplayILh10EE14getCharacterAtEh
FNDA:176,_ZNK3MCU19SevenSegmentDisplayILh10EE14getCharacterAtEh
FN:96,_ZNK3MCU19SevenSegmentDisplayILh10EE17getDecimalPointAtEh
FNDA:0,_ZNK3MCU19SevenSegmentDisplayILh10EE17getDecimalPointAtEh
